 0x000000000000000e (SONAME)             Library soname: [libsass.so]
_Z10json_checkPK8JsonNodePc T
_Z11json_decodePKc T
_Z11json_deleteP8JsonNode T
_Z11json_encodePK8JsonNode T
_Z11json_mkboolb T
_Z11json_mknullv T
_Z12json_mkarrayv T
_Z13json_mknumberd T
_Z13json_mkobjectv T
_Z13json_mkstringPKc T
_Z13json_validatePKc T
_Z14json_stringifyPK8JsonNodePKc T
_Z16json_find_memberP8JsonNodePKc T
_Z16json_first_childPK8JsonNode T
_Z17json_find_elementP8JsonNodei T
_Z18json_append_memberP8JsonNodePKcS0_ T
_Z18json_encode_stringPKc T
_Z19json_append_elementP8JsonNodeS0_ T
_Z19json_prepend_memberP8JsonNodePKcS0_ T
_Z20json_prepend_elementP8JsonNodeS0_ T
_Z23json_remove_from_parentP8JsonNode T
_ZGVZN4utf815replace_invalidIPKcSt20back_insert_iteratorINSt7__cxx1112basic_stringIcSt11char_traitsIcESaIcEEEEEET0_T_SC_SB_E18replacement_marker u
_ZN11LocalOptionIPKcEC1ERS1_S1_ W
_ZN11LocalOptionIPKcEC2ERS1_S1_ W
_ZN11LocalOptionIPKcED1Ev W
_ZN11LocalOptionIPKcED2Ev W
_ZN11LocalOptionIbE5resetEv W
_ZN11LocalOptionIbEC1ERbb W
_ZN11LocalOptionIbEC2ERbb W
_ZN11LocalOptionIbED1Ev W
_ZN11LocalOptionIbED2Ev W
_ZN11LocalOptionImEC1ERmm W
_ZN11LocalOptionImEC2ERmm W
_ZN11LocalOptionImED1Ev W
_ZN11LocalOptionImED2Ev W
_ZN19Sass_Output_OptionsC1E20Sass_Inspect_OptionsPKcS2_b W
_ZN19Sass_Output_OptionsC2E20Sass_Inspect_OptionsPKcS2_b W
_ZN20Sass_Inspect_OptionsC1E17Sass_Output_Stylei W
_ZN20Sass_Inspect_OptionsC2E17Sass_Output_Stylei W
_ZN4Sass10Assignment7performEPNS_9OperationINSt7__cxx1112basic_stringIcSt11char_traitsIcESaIcEEEEE W
_ZN4Sass10Assignment7performEPNS_9OperationIP10Sass_ValueEE W
_ZN4Sass10Assignment7performEPNS_9OperationIPNS_10ExpressionEEE W
_ZN4Sass10Assignment7performEPNS_9OperationIPNS_17SupportsConditionEEE W
_ZN4Sass10Assignment7performEPNS_9OperationIPNS_5ValueEEE W
_ZN4Sass10Assignment7performEPNS_9OperationIPNS_8AST_NodeEEE W
_ZN4Sass10Assignment7performEPNS_9OperationIPNS_8SelectorEEE W
_ZN4Sass10Assignment7performEPNS_9OperationIPNS_9StatementEEE W
_ZN4Sass10Assignment7performEPNS_9OperationIvEE W
_ZN4Sass10AssignmentC1ENS_10SourceSpanENSt7__cxx1112basic_stringIcSt11char_traitsIcESaIcEEENS_10SharedImplINS_10ExpressionEEEbb T
_ZN4Sass10AssignmentC1EPKS0_ T
_ZN4Sass10AssignmentC2ENS_10SourceSpanENSt7__cxx1112basic_stringIcSt11char_traitsIcESaIcEEENS_10SharedImplINS_10ExpressionEEEbb T
_ZN4Sass10AssignmentC2EPKS0_ T
_ZN4Sass10AssignmentD0Ev W
_ZN4Sass10AssignmentD1Ev W
_ZN4Sass10AssignmentD2Ev W
_ZN4Sass10AtRootRule10expressionENS_10SharedImplINS_13At_Root_QueryEEE W
_ZN4Sass10AtRootRule12exclude_nodeENS_10SharedImplINS_9StatementEEE T
_ZN4Sass10AtRootRule7bubblesEv T
_ZN4Sass10AtRootRule7performEPNS_9OperationINSt7__cxx1112basic_stringIcSt11char_traitsIcESaIcEEEEE W
_ZN4Sass10AtRootRule7performEPNS_9OperationIP10Sass_ValueEE W
_ZN4Sass10AtRootRule7performEPNS_9OperationIPNS_10ExpressionEEE W
_ZN4Sass10AtRootRule7performEPNS_9OperationIPNS_17SupportsConditionEEE W
_ZN4Sass10AtRootRule7performEPNS_9OperationIPNS_5ValueEEE W
_ZN4Sass10AtRootRule7performEPNS_9OperationIPNS_8AST_NodeEEE W
_ZN4Sass10AtRootRule7performEPNS_9OperationIPNS_8SelectorEEE W
_ZN4Sass10AtRootRule7performEPNS_9OperationIPNS_9StatementEEE W
_ZN4Sass10AtRootRule7performEPNS_9OperationIvEE W
_ZN4Sass10AtRootRuleC1ENS_10SourceSpanENS_10SharedImplINS_5BlockEEENS2_INS_13At_Root_QueryEEE T
_ZN4Sass10AtRootRuleC1EPKS0_ T
_ZN4Sass10AtRootRuleC2ENS_10SourceSpanENS_10SharedImplINS_5BlockEEENS2_INS_13At_Root_QueryEEE T
_ZN4Sass10AtRootRuleC2EPKS0_ T
_ZN4Sass10AtRootRuleD0Ev W
_ZN4Sass10AtRootRuleD1Ev W
_ZN4Sass10AtRootRuleD2Ev W
_ZN4Sass10ColorNames10aquamarineE R
_ZN4Sass10ColorNames10bluevioletE R
_ZN4Sass10ColorNames10chartreuseE R
_ZN4Sass10ColorNames10darkorangeE R
_ZN4Sass10ColorNames10darkorchidE R
_ZN4Sass10ColorNames10darksalmonE R
_ZN4Sass10ColorNames10darkvioletE R
_ZN4Sass10ColorNames10dodgerblueE R
_ZN4Sass10ColorNames10ghostwhiteE R
_ZN4Sass10ColorNames10lightcoralE R
_ZN4Sass10ColorNames10lightgreenE R
_ZN4Sass10ColorNames10mediumblueE R
_ZN4Sass10ColorNames10papayawhipE R
_ZN4Sass10ColorNames10powderblueE R
_ZN4Sass10ColorNames10sandybrownE R
_ZN4Sass10ColorNames10whitesmokeE R
_ZN4Sass10ColorNames11darkmagentaE R
_ZN4Sass10ColorNames11deepskyblueE R
_ZN4Sass10ColorNames11floralwhiteE R
_ZN4Sass10ColorNames11forestgreenE R
_ZN4Sass10ColorNames11greenyellowE R
_ZN4Sass10ColorNames11lightsalmonE R
_ZN4Sass10ColorNames11lightyellowE R
_ZN4Sass10ColorNames11navajowhiteE R
_ZN4Sass10ColorNames11saddlebrownE R
_ZN4Sass10ColorNames11springgreenE R
_ZN4Sass10ColorNames11transparentE R
_ZN4Sass10ColorNames11yellowgreenE R
_ZN4Sass10ColorNames12antiquewhiteE R
_ZN4Sass10ColorNames12darkseagreenE R
_ZN4Sass10ColorNames12lemonchiffonE R
_ZN4Sass10ColorNames12lightskyblueE R
_ZN4Sass10ColorNames12mediumorchidE R
_ZN4Sass10ColorNames12mediumpurpleE R
_ZN4Sass10ColorNames12midnightblueE R
_ZN4Sass10ColorNames13darkgoldenrodE R
_ZN4Sass10ColorNames13darkslateblueE R
_ZN4Sass10ColorNames13darkslategrayE R
_ZN4Sass10ColorNames13darkslategreyE R
_ZN4Sass10ColorNames13darkturquoiseE R
_ZN4Sass10ColorNames13lavenderblushE R
_ZN4Sass10ColorNames13lightseagreenE R
_ZN4Sass10ColorNames13palegoldenrodE R
_ZN4Sass10ColorNames13paleturquoiseE R
_ZN4Sass10ColorNames13palevioletredE R
_ZN4Sass10ColorNames13rebeccapurpleE R
_ZN4Sass10ColorNames14blanchedalmondE R
_ZN4Sass10ColorNames14cornflowerblueE R
_ZN4Sass10ColorNames14darkolivegreenE R
_ZN4Sass10ColorNames14lightslategrayE R
_ZN4Sass10ColorNames14lightslategreyE R
_ZN4Sass10ColorNames14lightsteelblueE R
_ZN4Sass10ColorNames14mediumseagreenE R
_ZN4Sass10ColorNames15mediumslateblueE R
_ZN4Sass10ColorNames15mediumturquoiseE R
_ZN4Sass10ColorNames15mediumvioletredE R
_ZN4Sass10ColorNames16mediumaquamarineE R
_ZN4Sass10ColorNames17mediumspringgreenE R
_ZN4Sass10ColorNames20lightgoldenrodyellowE R
_ZN4Sass10ColorNames3redE R
_ZN4Sass10ColorNames3tanE R
_ZN4Sass10ColorNames4aquaE R
_ZN4Sass10ColorNames4blueE R
_ZN4Sass10ColorNames4cyanE R
_ZN4Sass10ColorNames4goldE R
_ZN4Sass10ColorNames4grayE R
_ZN4Sass10ColorNames4greyE R
_ZN4Sass10ColorNames4limeE R
_ZN4Sass10ColorNames4navyE R
_ZN4Sass10ColorNames4peruE R
_ZN4Sass10ColorNames4pinkE R
_ZN4Sass10ColorNames4plumE R
_ZN4Sass10ColorNames4snowE R
_ZN4Sass10ColorNames4tealE R
_ZN4Sass10ColorNames5azureE R
_ZN4Sass10ColorNames5beigeE R
_ZN4Sass10ColorNames5blackE R
_ZN4Sass10ColorNames5brownE R
_ZN4Sass10ColorNames5coralE R
_ZN4Sass10ColorNames5greenE R
_ZN4Sass10ColorNames5ivoryE R
_ZN4Sass10ColorNames5khakiE R
_ZN4Sass10ColorNames5linenE R
_ZN4Sass10ColorNames5oliveE R
_ZN4Sass10ColorNames5wheatE R
_ZN4Sass10ColorNames5whiteE R
_ZN4Sass10ColorNames6bisqueE R
_ZN4Sass10ColorNames6indigoE R
_ZN4Sass10ColorNames6maroonE R
_ZN4Sass10ColorNames6orangeE R
_ZN4Sass10ColorNames6orchidE R
_ZN4Sass10ColorNames6purpleE R
_ZN4Sass10ColorNames6salmonE R
_ZN4Sass10ColorNames6siennaE R
_ZN4Sass10ColorNames6silverE R
_ZN4Sass10ColorNames6tomatoE R
_ZN4Sass10ColorNames6violetE R
_ZN4Sass10ColorNames6yellowE R
_ZN4Sass10ColorNames7crimsonE R
_ZN4Sass10ColorNames7darkredE R
_ZN4Sass10ColorNames7dimgrayE R
_ZN4Sass10ColorNames7dimgreyE R
_ZN4Sass10ColorNames7fuchsiaE R
_ZN4Sass10ColorNames7hotpinkE R
_ZN4Sass10ColorNames7magentaE R
_ZN4Sass10ColorNames7oldlaceE R
_ZN4Sass10ColorNames7skyblueE R
_ZN4Sass10ColorNames7thistleE R
_ZN4Sass10ColorNames8cornsilkE R
_ZN4Sass10ColorNames8darkblueE R
_ZN4Sass10ColorNames8darkcyanE R
_ZN4Sass10ColorNames8darkgrayE R
_ZN4Sass10ColorNames8darkgreyE R
_ZN4Sass10ColorNames8deeppinkE R
_ZN4Sass10ColorNames8honeydewE R
_ZN4Sass10ColorNames8lavenderE R
_ZN4Sass10ColorNames8moccasinE R
_ZN4Sass10ColorNames8seagreenE R
_ZN4Sass10ColorNames8seashellE R
_ZN4Sass10ColorNames9aliceblueE R
_ZN4Sass10ColorNames9burlywoodE R
_ZN4Sass10ColorNames9cadetblueE R
_ZN4Sass10ColorNames9chocolateE R
_ZN4Sass10ColorNames9darkgreenE R
_ZN4Sass10ColorNames9darkkhakiE R
_ZN4Sass10ColorNames9firebrickE R
_ZN4Sass10ColorNames9gainsboroE R
_ZN4Sass10ColorNames9goldenrodE R
_ZN4Sass10ColorNames9indianredE R
_ZN4Sass10ColorNames9lawngreenE R
_ZN4Sass10ColorNames9lightblueE R
_ZN4Sass10ColorNames9lightcyanE R
_ZN4Sass10ColorNames9lightgrayE R
_ZN4Sass10ColorNames9lightgreyE R
_ZN4Sass10ColorNames9lightpinkE R
_ZN4Sass10ColorNames9limegreenE R
_ZN4Sass10ColorNames9mintcreamE R
_ZN4Sass10ColorNames9mistyroseE R
_ZN4Sass10ColorNames9olivedrabE R
_ZN4Sass10ColorNames9orangeredE R
_ZN4Sass10ColorNames9palegreenE R
_ZN4Sass10ColorNames9peachpuffE R
_ZN4Sass10ColorNames9rosybrownE R
_ZN4Sass10ColorNames9royalblueE R
_ZN4Sass10ColorNames9slateblueE R
_ZN4Sass10ColorNames9slategrayE R
_ZN4Sass10ColorNames9slategreyE R
_ZN4Sass10ColorNames9steelblueE R
_ZN4Sass10ColorNames9turquoiseE R
_ZN4Sass10Color_HSLA1hEd W
_ZN4Sass10Color_HSLA1lEd W
_ZN4Sass10Color_HSLA1sEd W
_ZN4Sass10Color_HSLA6toHSLAEv W
_ZN4Sass10Color_HSLA6toRGBAEv W
_ZN4Sass10Color_HSLA7performEPNS_9OperationINSt7__cxx1112basic_stringIcSt11char_traitsIcESaIcEEEEE W
_ZN4Sass10Color_HSLA7performEPNS_9OperationIP10Sass_ValueEE W
_ZN4Sass10Color_HSLA7performEPNS_9OperationIPNS_10ExpressionEEE W
_ZN4Sass10Color_HSLA7performEPNS_9OperationIPNS_17SupportsConditionEEE W
_ZN4Sass10Color_HSLA7performEPNS_9OperationIPNS_5ValueEEE W
_ZN4Sass10Color_HSLA7performEPNS_9OperationIPNS_8AST_NodeEEE W
_ZN4Sass10Color_HSLA7performEPNS_9OperationIPNS_8SelectorEEE W
_ZN4Sass10Color_HSLA7performEPNS_9OperationIPNS_9StatementEEE W
_ZN4Sass10Color_HSLA7performEPNS_9OperationIvEE W
_ZN4Sass10Color_HSLAC1ENS_10SourceSpanEddddNSt7__cxx1112basic_stringIcSt11char_traitsIcESaIcEEE T
_ZN4Sass10Color_HSLAC1EPKS0_ T
_ZN4Sass10Color_HSLAC2ENS_10SourceSpanEddddNSt7__cxx1112basic_stringIcSt11char_traitsIcESaIcEEE T
_ZN4Sass10Color_HSLAC2EPKS0_ T
_ZN4Sass10Color_HSLAD0Ev W
_ZN4Sass10Color_HSLAD1Ev W
_ZN4Sass10Color_HSLAD2Ev W
_ZN4Sass10Color_RGBA1bEd W
_ZN4Sass10Color_RGBA1gEd W
_ZN4Sass10Color_RGBA1rEd W
_ZN4Sass10Color_RGBA6toHSLAEv W
_ZN4Sass10Color_RGBA6toRGBAEv W
_ZN4Sass10Color_RGBA7performEPNS_9OperationINSt7__cxx1112basic_stringIcSt11char_traitsIcESaIcEEEEE W
_ZN4Sass10Color_RGBA7performEPNS_9OperationIP10Sass_ValueEE W
_ZN4Sass10Color_RGBA7performEPNS_9OperationIPNS_10ExpressionEEE W
_ZN4Sass10Color_RGBA7performEPNS_9OperationIPNS_17SupportsConditionEEE W
_ZN4Sass10Color_RGBA7performEPNS_9OperationIPNS_5ValueEEE W
_ZN4Sass10Color_RGBA7performEPNS_9OperationIPNS_8AST_NodeEEE W
_ZN4Sass10Color_RGBA7performEPNS_9OperationIPNS_8SelectorEEE W
_ZN4Sass10Color_RGBA7performEPNS_9OperationIPNS_9StatementEEE W
_ZN4Sass10Color_RGBA7performEPNS_9OperationIvEE W
_ZN4Sass10Color_RGBAC1ENS_10SourceSpanEddddNSt7__cxx1112basic_stringIcSt11char_traitsIcESaIcEEE T
_ZN4Sass10Color_RGBAC1EPKS0_ T
_ZN4Sass10Color_RGBAC2ENS_10SourceSpanEddddNSt7__cxx1112basic_stringIcSt11char_traitsIcESaIcEEE T
_ZN4Sass10Color_RGBAC2EPKS0_ T
_ZN4Sass10Color_RGBAD0Ev W
_ZN4Sass10Color_RGBAD1Ev W
_ZN4Sass10Color_RGBAD2Ev W
_ZN4Sass10Definition11environmentEPNS_11EnvironmentINS_10SharedImplINS_8AST_NodeEEEEE W
_ZN4Sass10Definition7performEPNS_9OperationINSt7__cxx1112basic_stringIcSt11char_traitsIcESaIcEEEEE W
_ZN4Sass10Definition7performEPNS_9OperationIP10Sass_ValueEE W
_ZN4Sass10Definition7performEPNS_9OperationIPNS_10ExpressionEEE W
_ZN4Sass10Definition7performEPNS_9OperationIPNS_17SupportsConditionEEE W
_ZN4Sass10Definition7performEPNS_9OperationIPNS_5ValueEEE W
_ZN4Sass10Definition7performEPNS_9OperationIPNS_8AST_NodeEEE W
_ZN4Sass10Definition7performEPNS_9OperationIPNS_8SelectorEEE W
_ZN4Sass10Definition7performEPNS_9OperationIPNS_9StatementEEE W
_ZN4Sass10Definition7performEPNS_9OperationIvEE W
_ZN4Sass10DefinitionC1ENS_10SourceSpanENSt7__cxx1112basic_stringIcSt11char_traitsIcESaIcEEENS_10SharedImplINS_10ParametersEEENS8_INS_5BlockEEENS0_4TypeE T
_ZN4Sass10DefinitionC1ENS_10SourceSpanEPKcNSt7__cxx1112basic_stringIcSt11char_traitsIcESaIcEEENS_10SharedImplINS_10ParametersEEEP13Sass_Function T
_ZN4Sass10DefinitionC1ENS_10SourceSpanEPKcNSt7__cxx1112basic_stringIcSt11char_traitsIcESaIcEEENS_10SharedImplINS_10ParametersEEEPFPNS_8PreValueERNS_11EnvironmentINSA_INS_8AST_NodeEEEEESJ_RNS_7ContextES3_S1_RSt6vectorINS_9BacktraceESaISN_EESM_INSA_INS_12SelectorListEEESaISS_EESU_Eb T
_ZN4Sass10DefinitionC1EPKS0_ T
_ZN4Sass10DefinitionC2ENS_10SourceSpanENSt7__cxx1112basic_stringIcSt11char_traitsIcESaIcEEENS_10SharedImplINS_10ParametersEEENS8_INS_5BlockEEENS0_4TypeE T
_ZN4Sass10DefinitionC2ENS_10SourceSpanEPKcNSt7__cxx1112basic_stringIcSt11char_traitsIcESaIcEEENS_10SharedImplINS_10ParametersEEEP13Sass_Function T
_ZN4Sass10DefinitionC2ENS_10SourceSpanEPKcNSt7__cxx1112basic_stringIcSt11char_traitsIcESaIcEEENS_10SharedImplINS_10ParametersEEEPFPNS_8PreValueERNS_11EnvironmentINSA_INS_8AST_NodeEEEEESJ_RNS_7ContextES3_S1_RSt6vectorINS_9BacktraceESaISN_EESM_INSA_INS_12SelectorListEEESaISS_EESU_Eb T
_ZN4Sass10DefinitionC2EPKS0_ T
_ZN4Sass10DefinitionD0Ev W
_ZN4Sass10DefinitionD1Ev W
_ZN4Sass10DefinitionD2Ev W
_ZN4Sass10Expression10is_delayedEb W
_ZN4Sass10Expression11is_expandedEb W
_ZN4Sass10Expression11set_delayedEb W
_ZN4Sass10Expression13concrete_typeENS0_4TypeE W
_ZN4Sass10Expression14is_interpolantEb W
_ZN4Sass10Expression8is_falseEv W
_ZN4Sass10Expression9type_nameB5cxx11Ev W
_ZN4Sass10ExpressionC1ENS_10SourceSpanEbbbNS0_4TypeE T
_ZN4Sass10ExpressionC1EPKS0_ T
_ZN4Sass10ExpressionC1ERKS0_ W
_ZN4Sass10ExpressionC2ENS_10SourceSpanEbbbNS0_4TypeE T
_ZN4Sass10ExpressionC2EPKS0_ T
_ZN4Sass10ExpressionC2ERKS0_ W
_ZN4Sass10ExpressionD0Ev W
_ZN4Sass10ExpressionD1Ev W
_ZN4Sass10ExpressionD2Ev W
_ZN4Sass10ExpressioncvbEv W
_ZN4Sass10ExtendRule10isOptionalEb W
_ZN4Sass10ExtendRule7performEPNS_9OperationINSt7__cxx1112basic_stringIcSt11char_traitsIcESaIcEEEEE W
_ZN4Sass10ExtendRule7performEPNS_9OperationIP10Sass_ValueEE W
_ZN4Sass10ExtendRule7performEPNS_9OperationIPNS_10ExpressionEEE W
_ZN4Sass10ExtendRule7performEPNS_9OperationIPNS_17SupportsConditionEEE W
_ZN4Sass10ExtendRule7performEPNS_9OperationIPNS_5ValueEEE W
_ZN4Sass10ExtendRule7performEPNS_9OperationIPNS_8AST_NodeEEE W
_ZN4Sass10ExtendRule7performEPNS_9OperationIPNS_8SelectorEEE W
_ZN4Sass10ExtendRule7performEPNS_9OperationIPNS_9StatementEEE W
_ZN4Sass10ExtendRule7performEPNS_9OperationIvEE W
_ZN4Sass10ExtendRule8selectorENS_10SharedImplINS_12SelectorListEEE W
_ZN4Sass10ExtendRuleC1ENS_10SourceSpanENS_10SharedImplINS_12SelectorListEEE T
_ZN4Sass10ExtendRuleC1ENS_10SourceSpanENS_10SharedImplINS_15Selector_SchemaEEE T
_ZN4Sass10ExtendRuleC1EPKS0_ T
_ZN4Sass10ExtendRuleC2ENS_10SourceSpanENS_10SharedImplINS_12SelectorListEEE T
_ZN4Sass10ExtendRuleC2ENS_10SourceSpanENS_10SharedImplINS_15Selector_SchemaEEE T
_ZN4Sass10ExtendRuleC2EPKS0_ T
_ZN4Sass10ExtendRuleD0Ev W
_ZN4Sass10ExtendRuleD1Ev W
_ZN4Sass10ExtendRuleD2Ev W
_ZN4Sass10IDSelector13getIdSelectorEv W
_ZN4Sass10IDSelector7performEPNS_9OperationINSt7__cxx1112basic_stringIcSt11char_traitsIcESaIcEEEEE W
_ZN4Sass10IDSelector7performEPNS_9OperationIP10Sass_ValueEE W
_ZN4Sass10IDSelector7performEPNS_9OperationIPNS_10ExpressionEEE W
_ZN4Sass10IDSelector7performEPNS_9OperationIPNS_17SupportsConditionEEE W
_ZN4Sass10IDSelector7performEPNS_9OperationIPNS_5ValueEEE W
_ZN4Sass10IDSelector7performEPNS_9OperationIPNS_8AST_NodeEEE W
_ZN4Sass10IDSelector7performEPNS_9OperationIPNS_8SelectorEEE W
_ZN4Sass10IDSelector7performEPNS_9OperationIPNS_9StatementEEE W
_ZN4Sass10IDSelector7performEPNS_9OperationIvEE W
_ZN4Sass10IDSelector9unifyWithEPNS_16CompoundSelectorE T
_ZN4Sass10IDSelectorC1ENS_10SourceSpanENSt7__cxx1112basic_stringIcSt11char_traitsIcESaIcEEE T
_ZN4Sass10IDSelectorC1EPKS0_ T
_ZN4Sass10IDSelectorC2ENS_10SourceSpanENSt7__cxx1112basic_stringIcSt11char_traitsIcESaIcEEE T
_ZN4Sass10IDSelectorC2EPKS0_ T
_ZN4Sass10IDSelectorD0Ev W
_ZN4Sass10IDSelectorD1Ev W
_ZN4Sass10IDSelectorD2Ev W
_ZN4Sass10Mixin_Call16block_parametersENS_10SharedImplINS_10ParametersEEE W
_ZN4Sass10Mixin_Call7performEPNS_9OperationINSt7__cxx1112basic_stringIcSt11char_traitsIcESaIcEEEEE W
_ZN4Sass10Mixin_Call7performEPNS_9OperationIP10Sass_ValueEE W
_ZN4Sass10Mixin_Call7performEPNS_9OperationIPNS_10ExpressionEEE W
_ZN4Sass10Mixin_Call7performEPNS_9OperationIPNS_17SupportsConditionEEE W
_ZN4Sass10Mixin_Call7performEPNS_9OperationIPNS_5ValueEEE W
_ZN4Sass10Mixin_Call7performEPNS_9OperationIPNS_8AST_NodeEEE W
_ZN4Sass10Mixin_Call7performEPNS_9OperationIPNS_8SelectorEEE W
_ZN4Sass10Mixin_Call7performEPNS_9OperationIPNS_9StatementEEE W
_ZN4Sass10Mixin_Call7performEPNS_9OperationIvEE W
_ZN4Sass10Mixin_Call9argumentsENS_10SharedImplINS_9ArgumentsEEE W
_ZN4Sass10Mixin_CallC1ENS_10SourceSpanENSt7__cxx1112basic_stringIcSt11char_traitsIcESaIcEEENS_10SharedImplINS_9ArgumentsEEENS8_INS_10ParametersEEENS8_INS_5BlockEEE T
_ZN4Sass10Mixin_CallC1EPKS0_ T
_ZN4Sass10Mixin_CallC2ENS_10SourceSpanENSt7__cxx1112basic_stringIcSt11char_traitsIcESaIcEEENS_10SharedImplINS_9ArgumentsEEENS8_INS_10ParametersEEENS8_INS_5BlockEEE T
_ZN4Sass10Mixin_CallC2EPKS0_ T
_ZN4Sass10Mixin_CallD0Ev W
_ZN4Sass10Mixin_CallD1Ev W
_ZN4Sass10Mixin_CallD2Ev W
_ZN4Sass10Parameters18has_rest_parameterEb W
_ZN4Sass10Parameters20adjust_after_pushingENS_10SharedImplINS_9ParameterEEE T
_ZN4Sass10Parameters23has_optional_parametersEb W
_ZN4Sass10Parameters7performEPNS_9OperationINSt7__cxx1112basic_stringIcSt11char_traitsIcESaIcEEEEE W
_ZN4Sass10Parameters7performEPNS_9OperationIP10Sass_ValueEE W
_ZN4Sass10Parameters7performEPNS_9OperationIPNS_10ExpressionEEE W
_ZN4Sass10Parameters7performEPNS_9OperationIPNS_17SupportsConditionEEE W
_ZN4Sass10Parameters7performEPNS_9OperationIPNS_5ValueEEE W
_ZN4Sass10Parameters7performEPNS_9OperationIPNS_8AST_NodeEEE W
_ZN4Sass10Parameters7performEPNS_9OperationIPNS_8SelectorEEE W
_ZN4Sass10Parameters7performEPNS_9OperationIPNS_9StatementEEE W
_ZN4Sass10Parameters7performEPNS_9OperationIvEE W
_ZN4Sass10ParametersC1ENS_10SourceSpanE T
_ZN4Sass10ParametersC1EPKS0_ T
_ZN4Sass10ParametersC2ENS_10SourceSpanE T
_ZN4Sass10ParametersC2EPKS0_ T
_ZN4Sass10ParametersD0Ev W
_ZN4Sass10ParametersD1Ev W
_ZN4Sass10ParametersD2Ev W
_ZN4Sass10SharedImplINS_10AssignmentEEC1IS1_EEPT_ W
_ZN4Sass10SharedImplINS_10AssignmentEEC2IS1_EEPT_ W
_ZN4Sass10SharedImplINS_10AssignmentEED1Ev W
_ZN4Sass10SharedImplINS_10AssignmentEED2Ev W
_ZN4Sass10SharedImplINS_10AtRootRuleEE6detachEv W
_ZN4Sass10SharedImplINS_10AtRootRuleEEC1IS1_EEPT_ W
_ZN4Sass10SharedImplINS_10AtRootRuleEEC2IS1_EEPT_ W
_ZN4Sass10SharedImplINS_10AtRootRuleEED1Ev W
_ZN4Sass10SharedImplINS_10AtRootRuleEED2Ev W
_ZN4Sass10SharedImplINS_10Color_HSLAEE6detachEv W
_ZN4Sass10SharedImplINS_10Color_HSLAEEC1IS1_EEPT_ W
_ZN4Sass10SharedImplINS_10Color_HSLAEEC2IS1_EEPT_ W
_ZN4Sass10SharedImplINS_10Color_HSLAEED1Ev W
_ZN4Sass10SharedImplINS_10Color_HSLAEED2Ev W
_ZN4Sass10SharedImplINS_10Color_RGBAEE6detachEv W
_ZN4Sass10SharedImplINS_10Color_RGBAEEC1IS1_EEPT_ W
_ZN4Sass10SharedImplINS_10Color_RGBAEEC2IS1_EEPT_ W
_ZN4Sass10SharedImplINS_10Color_RGBAEED1Ev W
_ZN4Sass10SharedImplINS_10Color_RGBAEED2Ev W
_ZN4Sass10SharedImplINS_10DefinitionEEC1ERKS2_ W
_ZN4Sass10SharedImplINS_10DefinitionEEC1IS1_EEPT_ W
_ZN4Sass10SharedImplINS_10DefinitionEEC2ERKS2_ W
_ZN4Sass10SharedImplINS_10DefinitionEEC2IS1_EEPT_ W
_ZN4Sass10SharedImplINS_10DefinitionEED1Ev W
_ZN4Sass10SharedImplINS_10DefinitionEED2Ev W
_ZN4Sass10SharedImplINS_10ExpressionEE6detachEv W
_ZN4Sass10SharedImplINS_10ExpressionEEC1EOS2_ W
_ZN4Sass10SharedImplINS_10ExpressionEEC1ERKS2_ W
_ZN4Sass10SharedImplINS_10ExpressionEEC1Ev W
_ZN4Sass10SharedImplINS_10ExpressionEEC1INS_11Media_QueryEEEPT_ W
_ZN4Sass10SharedImplINS_10ExpressionEEC1INS_11Media_QueryEEERKNS0_IT_EE W
_ZN4Sass10SharedImplINS_10ExpressionEEC1INS_13At_Root_QueryEEEPT_ W
_ZN4Sass10SharedImplINS_10ExpressionEEC1INS_13At_Root_QueryEEERKNS0_IT_EE W
_ZN4Sass10SharedImplINS_10ExpressionEEC1INS_13Function_CallEEEPT_ W
_ZN4Sass10SharedImplINS_10ExpressionEEC1INS_13Function_CallEEERKNS0_IT_EE W
_ZN4Sass10SharedImplINS_10ExpressionEEC1INS_13String_QuotedEEEPT_ W
_ZN4Sass10SharedImplINS_10ExpressionEEC1INS_13String_QuotedEEERKNS0_IT_EE W
_ZN4Sass10SharedImplINS_10ExpressionEEC1INS_13String_SchemaEEEPT_ W
_ZN4Sass10SharedImplINS_10ExpressionEEC1INS_13String_SchemaEEERKNS0_IT_EE W
_ZN4Sass10SharedImplINS_10ExpressionEEC1INS_15String_ConstantEEEPT_ W
_ZN4Sass10SharedImplINS_10ExpressionEEC1INS_16Parent_ReferenceEEEPT_ W
_ZN4Sass10SharedImplINS_10ExpressionEEC1INS_16Unary_ExpressionEEEPT_ W
_ZN4Sass10SharedImplINS_10ExpressionEEC1INS_3MapEEEPT_ W
_ZN4Sass10SharedImplINS_10ExpressionEEC1INS_4ListEEEPT_ W
_ZN4Sass10SharedImplINS_10ExpressionEEC1INS_4ListEEERKNS0_IT_EE W
_ZN4Sass10SharedImplINS_10ExpressionEEC1INS_4NullEEEPT_ W
_ZN4Sass10SharedImplINS_10ExpressionEEC1INS_5ValueEEEPT_ W
_ZN4Sass10SharedImplINS_10ExpressionEEC1INS_5ValueEEERKNS0_IT_EE W
_ZN4Sass10SharedImplINS_10ExpressionEEC1INS_6NumberEEEPT_ W
_ZN4Sass10SharedImplINS_10ExpressionEEC1INS_6StringEEEPT_ W
_ZN4Sass10SharedImplINS_10ExpressionEEC1INS_6StringEEERKNS0_IT_EE W
_ZN4Sass10SharedImplINS_10ExpressionEEC1INS_7BooleanEEEPT_ W
_ZN4Sass10SharedImplINS_10ExpressionEEC1INS_8ArgumentEEEPT_ W
_ZN4Sass10SharedImplINS_10ExpressionEEC1INS_8ArgumentEEERKNS0_IT_EE W
_ZN4Sass10SharedImplINS_10ExpressionEEC1INS_8PreValueEEEPT_ W
_ZN4Sass10SharedImplINS_10ExpressionEEC1INS_8PreValueEEERKNS0_IT_EE W
_ZN4Sass10SharedImplINS_10ExpressionEEC1INS_8VariableEEEPT_ W
_ZN4Sass10SharedImplINS_10ExpressionEEC1IS1_EEPT_ W
_ZN4Sass10SharedImplINS_10ExpressionEEC2EOS2_ W
_ZN4Sass10SharedImplINS_10ExpressionEEC2ERKS2_ W
_ZN4Sass10SharedImplINS_10ExpressionEEC2Ev W
_ZN4Sass10SharedImplINS_10ExpressionEEC2INS_11Media_QueryEEEPT_ W
_ZN4Sass10SharedImplINS_10ExpressionEEC2INS_11Media_QueryEEERKNS0_IT_EE W
_ZN4Sass10SharedImplINS_10ExpressionEEC2INS_13At_Root_QueryEEEPT_ W
_ZN4Sass10SharedImplINS_10ExpressionEEC2INS_13At_Root_QueryEEERKNS0_IT_EE W
_ZN4Sass10SharedImplINS_10ExpressionEEC2INS_13Function_CallEEEPT_ W
_ZN4Sass10SharedImplINS_10ExpressionEEC2INS_13Function_CallEEERKNS0_IT_EE W
_ZN4Sass10SharedImplINS_10ExpressionEEC2INS_13String_QuotedEEEPT_ W
_ZN4Sass10SharedImplINS_10ExpressionEEC2INS_13String_QuotedEEERKNS0_IT_EE W
_ZN4Sass10SharedImplINS_10ExpressionEEC2INS_13String_SchemaEEEPT_ W
_ZN4Sass10SharedImplINS_10ExpressionEEC2INS_13String_SchemaEEERKNS0_IT_EE W
_ZN4Sass10SharedImplINS_10ExpressionEEC2INS_15String_ConstantEEEPT_ W
_ZN4Sass10SharedImplINS_10ExpressionEEC2INS_16Parent_ReferenceEEEPT_ W
_ZN4Sass10SharedImplINS_10ExpressionEEC2INS_16Unary_ExpressionEEEPT_ W
_ZN4Sass10SharedImplINS_10ExpressionEEC2INS_3MapEEEPT_ W
_ZN4Sass10SharedImplINS_10ExpressionEEC2INS_4ListEEEPT_ W
_ZN4Sass10SharedImplINS_10ExpressionEEC2INS_4ListEEERKNS0_IT_EE W
_ZN4Sass10SharedImplINS_10ExpressionEEC2INS_4NullEEEPT_ W
_ZN4Sass10SharedImplINS_10ExpressionEEC2INS_5ValueEEEPT_ W
_ZN4Sass10SharedImplINS_10ExpressionEEC2INS_5ValueEEERKNS0_IT_EE W
_ZN4Sass10SharedImplINS_10ExpressionEEC2INS_6NumberEEEPT_ W
_ZN4Sass10SharedImplINS_10ExpressionEEC2INS_6StringEEEPT_ W
_ZN4Sass10SharedImplINS_10ExpressionEEC2INS_6StringEEERKNS0_IT_EE W
_ZN4Sass10SharedImplINS_10ExpressionEEC2INS_7BooleanEEEPT_ W
_ZN4Sass10SharedImplINS_10ExpressionEEC2INS_8ArgumentEEEPT_ W
_ZN4Sass10SharedImplINS_10ExpressionEEC2INS_8ArgumentEEERKNS0_IT_EE W
_ZN4Sass10SharedImplINS_10ExpressionEEC2INS_8PreValueEEEPT_ W
_ZN4Sass10SharedImplINS_10ExpressionEEC2INS_8PreValueEEERKNS0_IT_EE W
_ZN4Sass10SharedImplINS_10ExpressionEEC2INS_8VariableEEEPT_ W
_ZN4Sass10SharedImplINS_10ExpressionEEC2IS1_EEPT_ W
_ZN4Sass10SharedImplINS_10ExpressionEED1Ev W
_ZN4Sass10SharedImplINS_10ExpressionEED2Ev W
_ZN4Sass10SharedImplINS_10ExpressionEEaSEOS2_ W
_ZN4Sass10SharedImplINS_10ExpressionEEaSERKS2_ W
_ZN4Sass10SharedImplINS_10ExpressionEEaSINS_13At_Root_QueryEEERS2_PT_ W
_ZN4Sass10SharedImplINS_10ExpressionEEaSINS_13String_QuotedEEERS2_PT_ W
_ZN4Sass10SharedImplINS_10ExpressionEEaSINS_13String_SchemaEEERS2_RKNS0_IT_EE W
_ZN4Sass10SharedImplINS_10ExpressionEEaSINS_15String_ConstantEEERS2_PT_ W
_ZN4Sass10SharedImplINS_10ExpressionEEaSINS_17Binary_ExpressionEEERS2_PT_ W
_ZN4Sass10SharedImplINS_10ExpressionEEaSINS_4ListEEERS2_PT_ W
_ZN4Sass10SharedImplINS_10ExpressionEEaSINS_4ListEEERS2_RKNS0_IT_EE W
_ZN4Sass10SharedImplINS_10ExpressionEEaSINS_5ValueEEERS2_PT_ W
_ZN4Sass10SharedImplINS_10ExpressionEEaSINS_6NumberEEERS2_PT_ W
_ZN4Sass10SharedImplINS_10ExpressionEEaSINS_8PreValueEEERS2_PT_ W
_ZN4Sass10SharedImplINS_10ExpressionEEaSIS1_EERS2_PT_ W
_ZN4Sass10SharedImplINS_10IDSelectorEEC1IS1_EEPT_ W
_ZN4Sass10SharedImplINS_10IDSelectorEEC2IS1_EEPT_ W
_ZN4Sass10SharedImplINS_10IDSelectorEED1Ev W
_ZN4Sass10SharedImplINS_10IDSelectorEED2Ev W
_ZN4Sass10SharedImplINS_10Mixin_CallEE6detachEv W
_ZN4Sass10SharedImplINS_10Mixin_CallEEC1IS1_EEPT_ W
_ZN4Sass10SharedImplINS_10Mixin_CallEEC2IS1_EEPT_ W
_ZN4Sass10SharedImplINS_10Mixin_CallEED1Ev W
_ZN4Sass10SharedImplINS_10Mixin_CallEED2Ev W
_ZN4Sass10SharedImplINS_10ParametersEEC1ERKS2_ W
_ZN4Sass10SharedImplINS_10ParametersEEC1Ev W
_ZN4Sass10SharedImplINS_10ParametersEEC1IS1_EEPT_ W
_ZN4Sass10SharedImplINS_10ParametersEEC2ERKS2_ W
_ZN4Sass10SharedImplINS_10ParametersEEC2Ev W
_ZN4Sass10SharedImplINS_10ParametersEEC2IS1_EEPT_ W
_ZN4Sass10SharedImplINS_10ParametersEED1Ev W
_ZN4Sass10SharedImplINS_10ParametersEED2Ev W
_ZN4Sass10SharedImplINS_10ParametersEEaSERKS2_ W
_ZN4Sass10SharedImplINS_10ParametersEEaSIS1_EERS2_PT_ W
_ZN4Sass10SharedImplINS_10SourceDataEEC1EOS2_ W
_ZN4Sass10SharedImplINS_10SourceDataEEC1ERKS2_ W
_ZN4Sass10SharedImplINS_10SourceDataEEC1INS_10SourceFileEEEPT_ W
_ZN4Sass10SharedImplINS_10SourceDataEEC1INS_10SourceFileEEERKNS0_IT_EE W
_ZN4Sass10SharedImplINS_10SourceDataEEC1INS_9SynthFileEEEPT_ W
_ZN4Sass10SharedImplINS_10SourceDataEEC1IS1_EEPT_ W
_ZN4Sass10SharedImplINS_10SourceDataEEC2EOS2_ W
_ZN4Sass10SharedImplINS_10SourceDataEEC2ERKS2_ W
_ZN4Sass10SharedImplINS_10SourceDataEEC2INS_10SourceFileEEEPT_ W
_ZN4Sass10SharedImplINS_10SourceDataEEC2INS_10SourceFileEEERKNS0_IT_EE W
_ZN4Sass10SharedImplINS_10SourceDataEEC2INS_9SynthFileEEEPT_ W
_ZN4Sass10SharedImplINS_10SourceDataEEC2IS1_EEPT_ W
_ZN4Sass10SharedImplINS_10SourceDataEED1Ev W
_ZN4Sass10SharedImplINS_10SourceDataEED2Ev W
_ZN4Sass10SharedImplINS_10SourceDataEEaSEOS2_ W
_ZN4Sass10SharedImplINS_10SourceDataEEaSERKS2_ W
_ZN4Sass10SharedImplINS_10SourceFileEEC1IS1_EEPT_ W
_ZN4Sass10SharedImplINS_10SourceFileEEC2IS1_EEPT_ W
_ZN4Sass10SharedImplINS_10SourceFileEED1Ev W
_ZN4Sass10SharedImplINS_10SourceFileEED2Ev W
_ZN4Sass10SharedImplINS_11DeclarationEE6detachEv W
_ZN4Sass10SharedImplINS_11DeclarationEEC1EOS2_ W
_ZN4Sass10SharedImplINS_11DeclarationEEC1IS1_EEPT_ W
_ZN4Sass10SharedImplINS_11DeclarationEEC2EOS2_ W
_ZN4Sass10SharedImplINS_11DeclarationEEC2IS1_EEPT_ W
_ZN4Sass10SharedImplINS_11DeclarationEED1Ev W
_ZN4Sass10SharedImplINS_11DeclarationEED2Ev W
_ZN4Sass10SharedImplINS_11Media_QueryEE6detachEv W
_ZN4Sass10SharedImplINS_11Media_QueryEEC1IS1_EEPT_ W
_ZN4Sass10SharedImplINS_11Media_QueryEEC2IS1_EEPT_ W
_ZN4Sass10SharedImplINS_11Media_QueryEED1Ev W
_ZN4Sass10SharedImplINS_11Media_QueryEED2Ev W
_ZN4Sass10SharedImplINS_11WarningRuleEEC1IS1_EEPT_ W
_ZN4Sass10SharedImplINS_11WarningRuleEEC2IS1_EEPT_ W
_ZN4Sass10SharedImplINS_11WarningRuleEED1Ev W
_ZN4Sass10SharedImplINS_11WarningRuleEED2Ev W
_ZN4Sass10SharedImplINS_12CssMediaRuleEE6detachEv W
_ZN4Sass10SharedImplINS_12CssMediaRuleEEC1EOS2_ W
_ZN4Sass10SharedImplINS_12CssMediaRuleEEC1ERKS2_ W
_ZN4Sass10SharedImplINS_12CssMediaRuleEEC1Ev W
_ZN4Sass10SharedImplINS_12CssMediaRuleEEC1IS1_EEPT_ W
_ZN4Sass10SharedImplINS_12CssMediaRuleEEC2EOS2_ W
_ZN4Sass10SharedImplINS_12CssMediaRuleEEC2ERKS2_ W
_ZN4Sass10SharedImplINS_12CssMediaRuleEEC2Ev W
_ZN4Sass10SharedImplINS_12CssMediaRuleEEC2IS1_EEPT_ W
_ZN4Sass10SharedImplINS_12CssMediaRuleEED1Ev W
_ZN4Sass10SharedImplINS_12CssMediaRuleEED2Ev W
_ZN4Sass10SharedImplINS_12CssMediaRuleEEaSERKS2_ W
_ZN4Sass10SharedImplINS_12SelectorListEE6detachEv W
_ZN4Sass10SharedImplINS_12SelectorListEEC1EOS2_ W
_ZN4Sass10SharedImplINS_12SelectorListEEC1ERKS2_ W
_ZN4Sass10SharedImplINS_12SelectorListEEC1Ev W
_ZN4Sass10SharedImplINS_12SelectorListEEC1IS1_EEPT_ W
_ZN4Sass10SharedImplINS_12SelectorListEEC2EOS2_ W
_ZN4Sass10SharedImplINS_12SelectorListEEC2ERKS2_ W
_ZN4Sass10SharedImplINS_12SelectorListEEC2Ev W
_ZN4Sass10SharedImplINS_12SelectorListEEC2IS1_EEPT_ W
_ZN4Sass10SharedImplINS_12SelectorListEED1Ev W
_ZN4Sass10SharedImplINS_12SelectorListEED2Ev W
_ZN4Sass10SharedImplINS_12SelectorListEEaSEOS2_ W
_ZN4Sass10SharedImplINS_12SelectorListEEaSERKS2_ W
_ZN4Sass10SharedImplINS_12SupportsRuleEE6detachEv W
_ZN4Sass10SharedImplINS_12SupportsRuleEEC1IS1_EEPT_ W
_ZN4Sass10SharedImplINS_12SupportsRuleEEC2IS1_EEPT_ W
_ZN4Sass10SharedImplINS_12SupportsRuleEED1Ev W
_ZN4Sass10SharedImplINS_12SupportsRuleEED2Ev W
_ZN4Sass10SharedImplINS_12TypeSelectorEEC1IS1_EEPT_ W
_ZN4Sass10SharedImplINS_12TypeSelectorEEC2IS1_EEPT_ W
_ZN4Sass10SharedImplINS_12TypeSelectorEED1Ev W
_ZN4Sass10SharedImplINS_12TypeSelectorEED2Ev W
_ZN4Sass10SharedImplINS_13At_Root_QueryEEC1ERKS2_ W
_ZN4Sass10SharedImplINS_13At_Root_QueryEEC1Ev W
_ZN4Sass10SharedImplINS_13At_Root_QueryEEC1IS1_EEPT_ W
_ZN4Sass10SharedImplINS_13At_Root_QueryEEC2ERKS2_ W
_ZN4Sass10SharedImplINS_13At_Root_QueryEEC2Ev W
_ZN4Sass10SharedImplINS_13At_Root_QueryEEC2IS1_EEPT_ W
_ZN4Sass10SharedImplINS_13At_Root_QueryEED1Ev W
_ZN4Sass10SharedImplINS_13At_Root_QueryEED2Ev W
_ZN4Sass10SharedImplINS_13At_Root_QueryEEaSEOS2_ W
_ZN4Sass10SharedImplINS_13At_Root_QueryEEaSERKS2_ W
_ZN4Sass10SharedImplINS_13CssMediaQueryEEC1EOS2_ W
_ZN4Sass10SharedImplINS_13CssMediaQueryEEC1ERKS2_ W
_ZN4Sass10SharedImplINS_13CssMediaQueryEEC1Ev W
_ZN4Sass10SharedImplINS_13CssMediaQueryEEC1IS1_EEPT_ W
_ZN4Sass10SharedImplINS_13CssMediaQueryEEC2EOS2_ W
_ZN4Sass10SharedImplINS_13CssMediaQueryEEC2ERKS2_ W
_ZN4Sass10SharedImplINS_13CssMediaQueryEEC2Ev W
_ZN4Sass10SharedImplINS_13CssMediaQueryEEC2IS1_EEPT_ W
_ZN4Sass10SharedImplINS_13CssMediaQueryEED1Ev W
_ZN4Sass10SharedImplINS_13CssMediaQueryEED2Ev W
_ZN4Sass10SharedImplINS_13CssMediaQueryEEaSEOS2_ W
_ZN4Sass10SharedImplINS_13CssMediaQueryEEaSERKS2_ W
_ZN4Sass10SharedImplINS_13Function_CallEEC1EOS2_ W
_ZN4Sass10SharedImplINS_13Function_CallEEC1ERKS2_ W
_ZN4Sass10SharedImplINS_13Function_CallEEC1Ev W
_ZN4Sass10SharedImplINS_13Function_CallEEC1IS1_EEPT_ W
_ZN4Sass10SharedImplINS_13Function_CallEEC2EOS2_ W
_ZN4Sass10SharedImplINS_13Function_CallEEC2ERKS2_ W
_ZN4Sass10SharedImplINS_13Function_CallEEC2Ev W
_ZN4Sass10SharedImplINS_13Function_CallEEC2IS1_EEPT_ W
_ZN4Sass10SharedImplINS_13Function_CallEED1Ev W
_ZN4Sass10SharedImplINS_13Function_CallEED2Ev W
_ZN4Sass10SharedImplINS_13Keyframe_RuleEE6detachEv W
_ZN4Sass10SharedImplINS_13Keyframe_RuleEEC1IS1_EEPT_ W
_ZN4Sass10SharedImplINS_13Keyframe_RuleEEC2IS1_EEPT_ W
_ZN4Sass10SharedImplINS_13Keyframe_RuleEED1Ev W
_ZN4Sass10SharedImplINS_13Keyframe_RuleEED2Ev W
_ZN4Sass10SharedImplINS_13String_QuotedEE6detachEv W
_ZN4Sass10SharedImplINS_13String_QuotedEEC1IS1_EEPT_ W
_ZN4Sass10SharedImplINS_13String_QuotedEEC2IS1_EEPT_ W
_ZN4Sass10SharedImplINS_13String_QuotedEED1Ev W
_ZN4Sass10SharedImplINS_13String_QuotedEED2Ev W
_ZN4Sass10SharedImplINS_13String_SchemaEE6detachEv W
_ZN4Sass10SharedImplINS_13String_SchemaEEC1ERKS2_ W
_ZN4Sass10SharedImplINS_13String_SchemaEEC1Ev W
_ZN4Sass10SharedImplINS_13String_SchemaEEC1INS_6StringEEEPT_ W
_ZN4Sass10SharedImplINS_13String_SchemaEEC1INS_6StringEEERKNS0_IT_EE W
_ZN4Sass10SharedImplINS_13String_SchemaEEC1IS1_EEPT_ W
_ZN4Sass10SharedImplINS_13String_SchemaEEC2ERKS2_ W
_ZN4Sass10SharedImplINS_13String_SchemaEEC2Ev W
_ZN4Sass10SharedImplINS_13String_SchemaEEC2INS_6StringEEEPT_ W
_ZN4Sass10SharedImplINS_13String_SchemaEEC2INS_6StringEEERKNS0_IT_EE W
_ZN4Sass10SharedImplINS_13String_SchemaEEC2IS1_EEPT_ W
_ZN4Sass10SharedImplINS_13String_SchemaEED1Ev W
_ZN4Sass10SharedImplINS_13String_SchemaEED2Ev W
_ZN4Sass10SharedImplINS_13String_SchemaEEaSIS1_EERS2_PT_ W
_ZN4Sass10SharedImplINS_14PseudoSelectorEEC1EOS2_ W
_ZN4Sass10SharedImplINS_14PseudoSelectorEEC1ERKS2_ W
_ZN4Sass10SharedImplINS_14PseudoSelectorEEC1INS_14SimpleSelectorEEEPT_ W
_ZN4Sass10SharedImplINS_14PseudoSelectorEEC1INS_14SimpleSelectorEEERKNS0_IT_EE W
_ZN4Sass10SharedImplINS_14PseudoSelectorEEC1IS1_EEPT_ W
_ZN4Sass10SharedImplINS_14PseudoSelectorEEC2EOS2_ W
_ZN4Sass10SharedImplINS_14PseudoSelectorEEC2ERKS2_ W
_ZN4Sass10SharedImplINS_14PseudoSelectorEEC2INS_14SimpleSelectorEEEPT_ W
_ZN4Sass10SharedImplINS_14PseudoSelectorEEC2INS_14SimpleSelectorEEERKNS0_IT_EE W
_ZN4Sass10SharedImplINS_14PseudoSelectorEEC2IS1_EEPT_ W
_ZN4Sass10SharedImplINS_14PseudoSelectorEED1Ev W
_ZN4Sass10SharedImplINS_14PseudoSelectorEED2Ev W
_ZN4Sass10SharedImplINS_14SimpleSelectorEEC1EOS2_ W
_ZN4Sass10SharedImplINS_14SimpleSelectorEEC1ERKS2_ W
_ZN4Sass10SharedImplINS_14SimpleSelectorEEC1Ev W
_ZN4Sass10SharedImplINS_14SimpleSelectorEEC1INS_10IDSelectorEEEPT_ W
_ZN4Sass10SharedImplINS_14SimpleSelectorEEC1INS_12TypeSelectorEEEPT_ W
_ZN4Sass10SharedImplINS_14SimpleSelectorEEC1INS_13ClassSelectorEEEPT_ W
_ZN4Sass10SharedImplINS_14SimpleSelectorEEC1INS_14PseudoSelectorEEEPT_ W
_ZN4Sass10SharedImplINS_14SimpleSelectorEEC1INS_14PseudoSelectorEEERKNS0_IT_EE W
_ZN4Sass10SharedImplINS_14SimpleSelectorEEC1INS_17AttributeSelectorEEEPT_ W
_ZN4Sass10SharedImplINS_14SimpleSelectorEEC1INS_17AttributeSelectorEEERKNS0_IT_EE W
_ZN4Sass10SharedImplINS_14SimpleSelectorEEC1INS_19PlaceholderSelectorEEEPT_ W
_ZN4Sass10SharedImplINS_14SimpleSelectorEEC1IS1_EEPT_ W
_ZN4Sass10SharedImplINS_14SimpleSelectorEEC2EOS2_ W
_ZN4Sass10SharedImplINS_14SimpleSelectorEEC2ERKS2_ W
_ZN4Sass10SharedImplINS_14SimpleSelectorEEC2Ev W
_ZN4Sass10SharedImplINS_14SimpleSelectorEEC2INS_10IDSelectorEEEPT_ W
_ZN4Sass10SharedImplINS_14SimpleSelectorEEC2INS_12TypeSelectorEEEPT_ W
_ZN4Sass10SharedImplINS_14SimpleSelectorEEC2INS_13ClassSelectorEEEPT_ W
_ZN4Sass10SharedImplINS_14SimpleSelectorEEC2INS_14PseudoSelectorEEEPT_ W
_ZN4Sass10SharedImplINS_14SimpleSelectorEEC2INS_14PseudoSelectorEEERKNS0_IT_EE W
_ZN4Sass10SharedImplINS_14SimpleSelectorEEC2INS_17AttributeSelectorEEEPT_ W
_ZN4Sass10SharedImplINS_14SimpleSelectorEEC2INS_17AttributeSelectorEEERKNS0_IT_EE W
_ZN4Sass10SharedImplINS_14SimpleSelectorEEC2INS_19PlaceholderSelectorEEEPT_ W
_ZN4Sass10SharedImplINS_14SimpleSelectorEEC2IS1_EEPT_ W
_ZN4Sass10SharedImplINS_14SimpleSelectorEED1Ev W
_ZN4Sass10SharedImplINS_14SimpleSelectorEED2Ev W
_ZN4Sass10SharedImplINS_14SimpleSelectorEEaSEOS2_ W
_ZN4Sass10SharedImplINS_14SimpleSelectorEEaSERKS2_ W
_ZN4Sass10SharedImplINS_14SimpleSelectorEEaSIS1_EERS2_PT_ W
_ZN4Sass10SharedImplINS_15ComplexSelectorEEC1EOS2_ W
_ZN4Sass10SharedImplINS_15ComplexSelectorEEC1ERKS2_ W
_ZN4Sass10SharedImplINS_15ComplexSelectorEEC1Ev W
_ZN4Sass10SharedImplINS_15ComplexSelectorEEC1IS1_EEPT_ W
_ZN4Sass10SharedImplINS_15ComplexSelectorEEC2EOS2_ W
_ZN4Sass10SharedImplINS_15ComplexSelectorEEC2ERKS2_ W
_ZN4Sass10SharedImplINS_15ComplexSelectorEEC2Ev W
_ZN4Sass10SharedImplINS_15ComplexSelectorEEC2IS1_EEPT_ W
_ZN4Sass10SharedImplINS_15ComplexSelectorEED1Ev W
_ZN4Sass10SharedImplINS_15ComplexSelectorEED2Ev W
_ZN4Sass10SharedImplINS_15ComplexSelectorEEaSEOS2_ W
_ZN4Sass10SharedImplINS_15ComplexSelectorEEaSERKS2_ W
_ZN4Sass10SharedImplINS_15ComplexSelectorEEaSIS1_EERS2_PT_ W
_ZN4Sass10SharedImplINS_15ParentStatementEEC1Ev W
_ZN4Sass10SharedImplINS_15ParentStatementEEC1IS1_EEPT_ W
_ZN4Sass10SharedImplINS_15ParentStatementEEC2Ev W
_ZN4Sass10SharedImplINS_15ParentStatementEEC2IS1_EEPT_ W
_ZN4Sass10SharedImplINS_15ParentStatementEED1Ev W
_ZN4Sass10SharedImplINS_15ParentStatementEED2Ev W
_ZN4Sass10SharedImplINS_15ParentStatementEEaSEOS2_ W
_ZN4Sass10SharedImplINS_15ParentStatementEEaSINS_9StatementEEERS2_PT_ W
_ZN4Sass10SharedImplINS_15Selector_SchemaEE6detachEv W
_ZN4Sass10SharedImplINS_15Selector_SchemaEEC1ERKS2_ W
_ZN4Sass10SharedImplINS_15Selector_SchemaEEC1Ev W
_ZN4Sass10SharedImplINS_15Selector_SchemaEEC1IS1_EEPT_ W
_ZN4Sass10SharedImplINS_15Selector_SchemaEEC2ERKS2_ W
_ZN4Sass10SharedImplINS_15Selector_SchemaEEC2Ev W
_ZN4Sass10SharedImplINS_15Selector_SchemaEEC2IS1_EEPT_ W
_ZN4Sass10SharedImplINS_15Selector_SchemaEED1Ev W
_ZN4Sass10SharedImplINS_15Selector_SchemaEED2Ev W
_ZN4Sass10SharedImplINS_15Selector_SchemaEEaSERKS2_ W
_ZN4Sass10SharedImplINS_15String_ConstantEE6detachEv W
_ZN4Sass10SharedImplINS_15String_ConstantEEC1IS1_EEPT_ W
_ZN4Sass10SharedImplINS_15String_ConstantEEC2IS1_EEPT_ W
_ZN4Sass10SharedImplINS_15String_ConstantEED1Ev W
_ZN4Sass10SharedImplINS_15String_ConstantEED2Ev W
_ZN4Sass10SharedImplINS_16CompoundSelectorEE6detachEv W
_ZN4Sass10SharedImplINS_16CompoundSelectorEEC1EOS2_ W
_ZN4Sass10SharedImplINS_16CompoundSelectorEEC1ERKS2_ W
_ZN4Sass10SharedImplINS_16CompoundSelectorEEC1Ev W
_ZN4Sass10SharedImplINS_16CompoundSelectorEEC1INS_17SelectorComponentEEEPT_ W
_ZN4Sass10SharedImplINS_16CompoundSelectorEEC1INS_17SelectorComponentEEERKNS0_IT_EE W
_ZN4Sass10SharedImplINS_16CompoundSelectorEEC1IS1_EEPT_ W
_ZN4Sass10SharedImplINS_16CompoundSelectorEEC2EOS2_ W
_ZN4Sass10SharedImplINS_16CompoundSelectorEEC2ERKS2_ W
_ZN4Sass10SharedImplINS_16CompoundSelectorEEC2Ev W
_ZN4Sass10SharedImplINS_16CompoundSelectorEEC2INS_17SelectorComponentEEEPT_ W
_ZN4Sass10SharedImplINS_16CompoundSelectorEEC2INS_17SelectorComponentEEERKNS0_IT_EE W
_ZN4Sass10SharedImplINS_16CompoundSelectorEEC2IS1_EEPT_ W
_ZN4Sass10SharedImplINS_16CompoundSelectorEED1Ev W
_ZN4Sass10SharedImplINS_16CompoundSelectorEED2Ev W
_ZN4Sass10SharedImplINS_16CompoundSelectorEEaSIS1_EERS2_PT_ W
_ZN4Sass10SharedImplINS_16Unary_ExpressionEEC1IS1_EEPT_ W
_ZN4Sass10SharedImplINS_16Unary_ExpressionEEC2IS1_EEPT_ W
_ZN4Sass10SharedImplINS_16Unary_ExpressionEED1Ev W
_ZN4Sass10SharedImplINS_16Unary_ExpressionEED2Ev W
_ZN4Sass10SharedImplINS_17AttributeSelectorEEC1Ev W
_ZN4Sass10SharedImplINS_17AttributeSelectorEEC1IS1_EEPT_ W
_ZN4Sass10SharedImplINS_17AttributeSelectorEEC2Ev W
_ZN4Sass10SharedImplINS_17AttributeSelectorEEC2IS1_EEPT_ W
_ZN4Sass10SharedImplINS_17AttributeSelectorEED1Ev W
_ZN4Sass10SharedImplINS_17AttributeSelectorEED2Ev W
_ZN4Sass10SharedImplINS_17Binary_ExpressionEE6detachEv W
_ZN4Sass10SharedImplINS_17Binary_ExpressionEEC1IS1_EEPT_ W
_ZN4Sass10SharedImplINS_17Binary_ExpressionEEC2IS1_EEPT_ W
_ZN4Sass10SharedImplINS_17Binary_ExpressionEED1Ev W
_ZN4Sass10SharedImplINS_17Binary_ExpressionEED2Ev W
_ZN4Sass10SharedImplINS_17SelectorComponentEEC1EOS2_ W
_ZN4Sass10SharedImplINS_17SelectorComponentEEC1ERKS2_ W
_ZN4Sass10SharedImplINS_17SelectorComponentEEC1Ev W
_ZN4Sass10SharedImplINS_17SelectorComponentEEC1INS_16CompoundSelectorEEEPT_ W
_ZN4Sass10SharedImplINS_17SelectorComponentEEC1INS_16CompoundSelectorEEERKNS0_IT_EE W
_ZN4Sass10SharedImplINS_17SelectorComponentEEC1INS_18SelectorCombinatorEEEPT_ W
_ZN4Sass10SharedImplINS_17SelectorComponentEEC1INS_18SelectorCombinatorEEERKNS0_IT_EE W
_ZN4Sass10SharedImplINS_17SelectorComponentEEC1IS1_EEPT_ W
_ZN4Sass10SharedImplINS_17SelectorComponentEEC2EOS2_ W
_ZN4Sass10SharedImplINS_17SelectorComponentEEC2ERKS2_ W
_ZN4Sass10SharedImplINS_17SelectorComponentEEC2Ev W
_ZN4Sass10SharedImplINS_17SelectorComponentEEC2INS_16CompoundSelectorEEEPT_ W
_ZN4Sass10SharedImplINS_17SelectorComponentEEC2INS_16CompoundSelectorEEERKNS0_IT_EE W
_ZN4Sass10SharedImplINS_17SelectorComponentEEC2INS_18SelectorCombinatorEEEPT_ W
_ZN4Sass10SharedImplINS_17SelectorComponentEEC2INS_18SelectorCombinatorEEERKNS0_IT_EE W
_ZN4Sass10SharedImplINS_17SelectorComponentEEC2IS1_EEPT_ W
_ZN4Sass10SharedImplINS_17SelectorComponentEED1Ev W
_ZN4Sass10SharedImplINS_17SelectorComponentEED2Ev W
_ZN4Sass10SharedImplINS_17SelectorComponentEEaSEOS2_ W
_ZN4Sass10SharedImplINS_17SelectorComponentEEaSERKS2_ W
_ZN4Sass10SharedImplINS_17SelectorComponentEEaSINS_16CompoundSelectorEEERS2_PT_ W
_ZN4Sass10SharedImplINS_17SelectorComponentEEaSINS_16CompoundSelectorEEERS2_RKNS0_IT_EE W
_ZN4Sass10SharedImplINS_17SelectorComponentEEaSIS1_EERS2_PT_ W
_ZN4Sass10SharedImplINS_17SupportsConditionEEC1EOS2_ W
_ZN4Sass10SharedImplINS_17SupportsConditionEEC1ERKS2_ W
_ZN4Sass10SharedImplINS_17SupportsConditionEEC1Ev W
_ZN4Sass10SharedImplINS_17SupportsConditionEEC1INS_16SupportsNegationEEEPT_ W
_ZN4Sass10SharedImplINS_17SupportsConditionEEC1INS_22Supports_InterpolationEEEPT_ W
_ZN4Sass10SharedImplINS_17SupportsConditionEEC1IS1_EEPT_ W
_ZN4Sass10SharedImplINS_17SupportsConditionEEC2EOS2_ W
_ZN4Sass10SharedImplINS_17SupportsConditionEEC2ERKS2_ W
_ZN4Sass10SharedImplINS_17SupportsConditionEEC2Ev W
_ZN4Sass10SharedImplINS_17SupportsConditionEEC2INS_16SupportsNegationEEEPT_ W
_ZN4Sass10SharedImplINS_17SupportsConditionEEC2INS_22Supports_InterpolationEEEPT_ W
_ZN4Sass10SharedImplINS_17SupportsConditionEEC2IS1_EEPT_ W
_ZN4Sass10SharedImplINS_17SupportsConditionEED1Ev W
_ZN4Sass10SharedImplINS_17SupportsConditionEED2Ev W
_ZN4Sass10SharedImplINS_17SupportsConditionEEaSEOS2_ W
_ZN4Sass10SharedImplINS_17SupportsConditionEEaSINS_17SupportsOperationEEERS2_PT_ W
_ZN4Sass10SharedImplINS_17SupportsOperationEEC1IS1_EEPT_ W
_ZN4Sass10SharedImplINS_17SupportsOperationEEC2IS1_EEPT_ W
_ZN4Sass10SharedImplINS_17SupportsOperationEED1Ev W
_ZN4Sass10SharedImplINS_17SupportsOperationEED2Ev W
_ZN4Sass10SharedImplINS_18SelectorCombinatorEEC1Ev W
_ZN4Sass10SharedImplINS_18SelectorCombinatorEEC1INS_17SelectorComponentEEEPT_ W
_ZN4Sass10SharedImplINS_18SelectorCombinatorEEC1INS_17SelectorComponentEEERKNS0_IT_EE W
_ZN4Sass10SharedImplINS_18SelectorCombinatorEEC1IS1_EEPT_ W
_ZN4Sass10SharedImplINS_18SelectorCombinatorEEC2Ev W
_ZN4Sass10SharedImplINS_18SelectorCombinatorEEC2INS_17SelectorComponentEEEPT_ W
_ZN4Sass10SharedImplINS_18SelectorCombinatorEEC2INS_17SelectorComponentEEERKNS0_IT_EE W
_ZN4Sass10SharedImplINS_18SelectorCombinatorEEC2IS1_EEPT_ W
_ZN4Sass10SharedImplINS_18SelectorCombinatorEED1Ev W
_ZN4Sass10SharedImplINS_18SelectorCombinatorEED2Ev W
_ZN4Sass10SharedImplINS_18SelectorCombinatorEEaSINS_17SelectorComponentEEERS2_RKNS0_IT_EE W
_ZN4Sass10SharedImplINS_22Media_Query_ExpressionEEC1EOS2_ W
_ZN4Sass10SharedImplINS_22Media_Query_ExpressionEEC1ERKS2_ W
_ZN4Sass10SharedImplINS_22Media_Query_ExpressionEEC1IS1_EEPT_ W
_ZN4Sass10SharedImplINS_22Media_Query_ExpressionEEC2EOS2_ W
_ZN4Sass10SharedImplINS_22Media_Query_ExpressionEEC2ERKS2_ W
_ZN4Sass10SharedImplINS_22Media_Query_ExpressionEEC2IS1_EEPT_ W
_ZN4Sass10SharedImplINS_22Media_Query_ExpressionEED1Ev W
_ZN4Sass10SharedImplINS_22Media_Query_ExpressionEED2Ev W
_ZN4Sass10SharedImplINS_22Media_Query_ExpressionEEaSEOS2_ W
_ZN4Sass10SharedImplINS_2IfEEC1IS1_EEPT_ W
_ZN4Sass10SharedImplINS_2IfEEC2IS1_EEPT_ W
_ZN4Sass10SharedImplINS_2IfEED1Ev W
_ZN4Sass10SharedImplINS_2IfEED2Ev W
_ZN4Sass10SharedImplINS_3MapEE6detachEv W
_ZN4Sass10SharedImplINS_3MapEEC1Ev W
_ZN4Sass10SharedImplINS_3MapEEC1IS1_EEPT_ W
_ZN4Sass10SharedImplINS_3MapEEC2Ev W
_ZN4Sass10SharedImplINS_3MapEEC2IS1_EEPT_ W
_ZN4Sass10SharedImplINS_3MapEED1Ev W
_ZN4Sass10SharedImplINS_3MapEED2Ev W
_ZN4Sass10SharedImplINS_3MapEEaSIS1_EERS2_PT_ W
_ZN4Sass10SharedImplINS_4ListEE6detachEv W
_ZN4Sass10SharedImplINS_4ListEEC1ERKS2_ W
_ZN4Sass10SharedImplINS_4ListEEC1Ev W
_ZN4Sass10SharedImplINS_4ListEEC1IS1_EEPT_ W
_ZN4Sass10SharedImplINS_4ListEEC2ERKS2_ W
_ZN4Sass10SharedImplINS_4ListEEC2Ev W
_ZN4Sass10SharedImplINS_4ListEEC2IS1_EEPT_ W
_ZN4Sass10SharedImplINS_4ListEED1Ev W
_ZN4Sass10SharedImplINS_4ListEED2Ev W
_ZN4Sass10SharedImplINS_4ListEEaSEOS2_ W
_ZN4Sass10SharedImplINS_4ListEEaSERKS2_ W
_ZN4Sass10SharedImplINS_4ListEEaSIS1_EERS2_PT_ W
_ZN4Sass10SharedImplINS_5BlockEE6detachEv W
_ZN4Sass10SharedImplINS_5BlockEEC1EOS2_ W
_ZN4Sass10SharedImplINS_5BlockEEC1ERKS2_ W
_ZN4Sass10SharedImplINS_5BlockEEC1Ev W
_ZN4Sass10SharedImplINS_5BlockEEC1IS1_EEPT_ W
_ZN4Sass10SharedImplINS_5BlockEEC2EOS2_ W
_ZN4Sass10SharedImplINS_5BlockEEC2ERKS2_ W
_ZN4Sass10SharedImplINS_5BlockEEC2Ev W
_ZN4Sass10SharedImplINS_5BlockEEC2IS1_EEPT_ W
_ZN4Sass10SharedImplINS_5BlockEED1Ev W
_ZN4Sass10SharedImplINS_5BlockEED2Ev W
_ZN4Sass10SharedImplINS_5BlockEEaSEOS2_ W
_ZN4Sass10SharedImplINS_5BlockEEaSERKS2_ W
_ZN4Sass10SharedImplINS_5BlockEEaSIS1_EERS2_PT_ W
_ZN4Sass10SharedImplINS_5ColorEE6detachEv W
_ZN4Sass10SharedImplINS_5ColorEEC1IS1_EEPT_ W
_ZN4Sass10SharedImplINS_5ColorEEC2IS1_EEPT_ W
_ZN4Sass10SharedImplINS_5ColorEED1Ev W
_ZN4Sass10SharedImplINS_5ColorEED2Ev W
_ZN4Sass10SharedImplINS_5TraceEE6detachEv W
_ZN4Sass10SharedImplINS_5TraceEEC1IS1_EEPT_ W
_ZN4Sass10SharedImplINS_5TraceEEC2IS1_EEPT_ W
_ZN4Sass10SharedImplINS_5TraceEED1Ev W
_ZN4Sass10SharedImplINS_5TraceEED2Ev W
_ZN4Sass10SharedImplINS_5ValueEE6detachEv W
_ZN4Sass10SharedImplINS_5ValueEEC1Ev W
_ZN4Sass10SharedImplINS_5ValueEEC1INS_10ExpressionEEEPT_ W
_ZN4Sass10SharedImplINS_5ValueEEC1INS_10ExpressionEEERKNS0_IT_EE W
_ZN4Sass10SharedImplINS_5ValueEEC1IS1_EEPT_ W
_ZN4Sass10SharedImplINS_5ValueEEC2Ev W
_ZN4Sass10SharedImplINS_5ValueEEC2INS_10ExpressionEEEPT_ W
_ZN4Sass10SharedImplINS_5ValueEEC2INS_10ExpressionEEERKNS0_IT_EE W
_ZN4Sass10SharedImplINS_5ValueEEC2IS1_EEPT_ W
_ZN4Sass10SharedImplINS_5ValueEED1Ev W
_ZN4Sass10SharedImplINS_5ValueEED2Ev W
_ZN4Sass10SharedImplINS_5ValueEEaSIS1_EERS2_PT_ W
_ZN4Sass10SharedImplINS_6AtRuleEEC1IS1_EEPT_ W
_ZN4Sass10SharedImplINS_6AtRuleEEC2IS1_EEPT_ W
_ZN4Sass10SharedImplINS_6AtRuleEED1Ev W
_ZN4Sass10SharedImplINS_6AtRuleEED2Ev W
_ZN4Sass10SharedImplINS_6BubbleEEC1IS1_EEPT_ W
_ZN4Sass10SharedImplINS_6BubbleEEC2IS1_EEPT_ W
_ZN4Sass10SharedImplINS_6BubbleEED1Ev W
_ZN4Sass10SharedImplINS_6BubbleEED2Ev W
_ZN4Sass10SharedImplINS_6ImportEE6detachEv W
_ZN4Sass10SharedImplINS_6ImportEEC1IS1_EEPT_ W
_ZN4Sass10SharedImplINS_6ImportEEC2IS1_EEPT_ W
_ZN4Sass10SharedImplINS_6ImportEED1Ev W
_ZN4Sass10SharedImplINS_6ImportEED2Ev W
_ZN4Sass10SharedImplINS_6NumberEE6detachEv W
_ZN4Sass10SharedImplINS_6NumberEEC1Ev W
_ZN4Sass10SharedImplINS_6NumberEEC1IS1_EEPT_ W
_ZN4Sass10SharedImplINS_6NumberEEC2Ev W
_ZN4Sass10SharedImplINS_6NumberEEC2IS1_EEPT_ W
_ZN4Sass10SharedImplINS_6NumberEED1Ev W
_ZN4Sass10SharedImplINS_6NumberEED2Ev W
_ZN4Sass10SharedImplINS_6NumberEEaSERKS2_ W
_ZN4Sass10SharedImplINS_6ReturnEEC1IS1_EEPT_ W
_ZN4Sass10SharedImplINS_6ReturnEEC2IS1_EEPT_ W
_ZN4Sass10SharedImplINS_6ReturnEED1Ev W
_ZN4Sass10SharedImplINS_6ReturnEED2Ev W
_ZN4Sass10SharedImplINS_6StringEEC1ERKS2_ W
_ZN4Sass10SharedImplINS_6StringEEC1Ev W
_ZN4Sass10SharedImplINS_6StringEEC1INS_13String_QuotedEEEPT_ W
_ZN4Sass10SharedImplINS_6StringEEC1INS_13String_SchemaEEEPT_ W
_ZN4Sass10SharedImplINS_6StringEEC1INS_13String_SchemaEEERKNS0_IT_EE W
_ZN4Sass10SharedImplINS_6StringEEC1INS_15String_ConstantEEEPT_ W
_ZN4Sass10SharedImplINS_6StringEEC1INS_15String_ConstantEEERKNS0_IT_EE W
_ZN4Sass10SharedImplINS_6StringEEC1IS1_EEPT_ W
_ZN4Sass10SharedImplINS_6StringEEC2ERKS2_ W
_ZN4Sass10SharedImplINS_6StringEEC2Ev W
_ZN4Sass10SharedImplINS_6StringEEC2INS_13String_QuotedEEEPT_ W
_ZN4Sass10SharedImplINS_6StringEEC2INS_13String_SchemaEEEPT_ W
_ZN4Sass10SharedImplINS_6StringEEC2INS_13String_SchemaEEERKNS0_IT_EE W
_ZN4Sass10SharedImplINS_6StringEEC2INS_15String_ConstantEEEPT_ W
_ZN4Sass10SharedImplINS_6StringEEC2INS_15String_ConstantEEERKNS0_IT_EE W
_ZN4Sass10SharedImplINS_6StringEEC2IS1_EEPT_ W
_ZN4Sass10SharedImplINS_6StringEED1Ev W
_ZN4Sass10SharedImplINS_6StringEED2Ev W
_ZN4Sass10SharedImplINS_6StringEEaSEOS2_ W
_ZN4Sass10SharedImplINS_6StringEEaSERKS2_ W
_ZN4Sass10SharedImplINS_6StringEEaSINS_15String_ConstantEEERS2_PT_ W
_ZN4Sass10SharedImplINS_6StringEEaSIS1_EERS2_PT_ W
_ZN4Sass10SharedImplINS_7BooleanEEC1Ev W
_ZN4Sass10SharedImplINS_7BooleanEEC1IS1_EEPT_ W
_ZN4Sass10SharedImplINS_7BooleanEEC2Ev W
_ZN4Sass10SharedImplINS_7BooleanEEC2IS1_EEPT_ W
_ZN4Sass10SharedImplINS_7BooleanEED1Ev W
_ZN4Sass10SharedImplINS_7BooleanEED2Ev W
_ZN4Sass10SharedImplINS_7BooleanEEaSIS1_EERS2_PT_ W
_ZN4Sass10SharedImplINS_7ContentEEC1IS1_EEPT_ W
_ZN4Sass10SharedImplINS_7ContentEEC2IS1_EEPT_ W
_ZN4Sass10SharedImplINS_7ContentEED1Ev W
_ZN4Sass10SharedImplINS_7ContentEED2Ev W
_ZN4Sass10SharedImplINS_7ForRuleEEC1IS1_EEPT_ W
_ZN4Sass10SharedImplINS_7ForRuleEEC2IS1_EEPT_ W
_ZN4Sass10SharedImplINS_7ForRuleEED1Ev W
_ZN4Sass10SharedImplINS_7ForRuleEED2Ev W
_ZN4Sass10SharedImplINS_8AST_NodeEEC1EOS2_ W
_ZN4Sass10SharedImplINS_8AST_NodeEEC1ERKS2_ W
_ZN4Sass10SharedImplINS_8AST_NodeEEC1Ev W
_ZN4Sass10SharedImplINS_8AST_NodeEEC1INS_10DefinitionEEEPT_ W
_ZN4Sass10SharedImplINS_8AST_NodeEEC1INS_10DefinitionEEERKNS0_IT_EE W
_ZN4Sass10SharedImplINS_8AST_NodeEEC1INS_10ExpressionEEEPT_ W
_ZN4Sass10SharedImplINS_8AST_NodeEEC1INS_10ExpressionEEERKNS0_IT_EE W
_ZN4Sass10SharedImplINS_8AST_NodeEEC1INS_2IfEEEPT_ W
_ZN4Sass10SharedImplINS_8AST_NodeEEC1INS_4ListEEEPT_ W
_ZN4Sass10SharedImplINS_8AST_NodeEEC1INS_4ListEEERKNS0_IT_EE W
_ZN4Sass10SharedImplINS_8AST_NodeEEC1INS_5BlockEEEPT_ W
_ZN4Sass10SharedImplINS_8AST_NodeEEC1INS_5ValueEEEPT_ W
_ZN4Sass10SharedImplINS_8AST_NodeEEC1INS_6NumberEEEPT_ W
_ZN4Sass10SharedImplINS_8AST_NodeEEC1INS_6NumberEEERKNS0_IT_EE W
_ZN4Sass10SharedImplINS_8AST_NodeEEC1INS_7BooleanEEEPT_ W
_ZN4Sass10SharedImplINS_8AST_NodeEEC1INS_7BooleanEEERKNS0_IT_EE W
_ZN4Sass10SharedImplINS_8AST_NodeEEC1INS_7ForRuleEEEPT_ W
_ZN4Sass10SharedImplINS_8AST_NodeEEC1INS_8EachRuleEEEPT_ W
_ZN4Sass10SharedImplINS_8AST_NodeEEC1INS_9WhileRuleEEEPT_ W
_ZN4Sass10SharedImplINS_8AST_NodeEEC1IS1_EEPT_ W
_ZN4Sass10SharedImplINS_8AST_NodeEEC2EOS2_ W
_ZN4Sass10SharedImplINS_8AST_NodeEEC2ERKS2_ W
_ZN4Sass10SharedImplINS_8AST_NodeEEC2Ev W
_ZN4Sass10SharedImplINS_8AST_NodeEEC2INS_10DefinitionEEEPT_ W
_ZN4Sass10SharedImplINS_8AST_NodeEEC2INS_10DefinitionEEERKNS0_IT_EE W
_ZN4Sass10SharedImplINS_8AST_NodeEEC2INS_10ExpressionEEEPT_ W
_ZN4Sass10SharedImplINS_8AST_NodeEEC2INS_10ExpressionEEERKNS0_IT_EE W
_ZN4Sass10SharedImplINS_8AST_NodeEEC2INS_2IfEEEPT_ W
_ZN4Sass10SharedImplINS_8AST_NodeEEC2INS_4ListEEEPT_ W
_ZN4Sass10SharedImplINS_8AST_NodeEEC2INS_4ListEEERKNS0_IT_EE W
_ZN4Sass10SharedImplINS_8AST_NodeEEC2INS_5BlockEEEPT_ W
_ZN4Sass10SharedImplINS_8AST_NodeEEC2INS_5ValueEEEPT_ W
_ZN4Sass10SharedImplINS_8AST_NodeEEC2INS_6NumberEEEPT_ W
_ZN4Sass10SharedImplINS_8AST_NodeEEC2INS_6NumberEEERKNS0_IT_EE W
_ZN4Sass10SharedImplINS_8AST_NodeEEC2INS_7BooleanEEEPT_ W
_ZN4Sass10SharedImplINS_8AST_NodeEEC2INS_7BooleanEEERKNS0_IT_EE W
_ZN4Sass10SharedImplINS_8AST_NodeEEC2INS_7ForRuleEEEPT_ W
_ZN4Sass10SharedImplINS_8AST_NodeEEC2INS_8EachRuleEEEPT_ W
_ZN4Sass10SharedImplINS_8AST_NodeEEC2INS_9WhileRuleEEEPT_ W
_ZN4Sass10SharedImplINS_8AST_NodeEEC2IS1_EEPT_ W
_ZN4Sass10SharedImplINS_8AST_NodeEED1Ev W
_ZN4Sass10SharedImplINS_8AST_NodeEED2Ev W
_ZN4Sass10SharedImplINS_8AST_NodeEEaSERKS2_ W
_ZN4Sass10SharedImplINS_8AST_NodeEEaSINS_10DefinitionEEERS2_PT_ W
_ZN4Sass10SharedImplINS_8AST_NodeEEaSINS_10DefinitionEEERS2_RKNS0_IT_EE W
_ZN4Sass10SharedImplINS_8AST_NodeEEaSINS_10ExpressionEEERS2_PT_ W
_ZN4Sass10SharedImplINS_8AST_NodeEEaSINS_10ExpressionEEERS2_RKNS0_IT_EE W
_ZN4Sass10SharedImplINS_8AST_NodeEEaSINS_4ListEEERS2_PT_ W
_ZN4Sass10SharedImplINS_8AST_NodeEEaSINS_4ListEEERS2_RKNS0_IT_EE W
_ZN4Sass10SharedImplINS_8AST_NodeEEaSINS_5ValueEEERS2_PT_ W
_ZN4Sass10SharedImplINS_8ArgumentEEC1EOS2_ W
_ZN4Sass10SharedImplINS_8ArgumentEEC1ERKS2_ W
_ZN4Sass10SharedImplINS_8ArgumentEEC1Ev W
_ZN4Sass10SharedImplINS_8ArgumentEEC1IS1_EEPT_ W
_ZN4Sass10SharedImplINS_8ArgumentEEC2EOS2_ W
_ZN4Sass10SharedImplINS_8ArgumentEEC2ERKS2_ W
_ZN4Sass10SharedImplINS_8ArgumentEEC2Ev W
_ZN4Sass10SharedImplINS_8ArgumentEEC2IS1_EEPT_ W
_ZN4Sass10SharedImplINS_8ArgumentEED1Ev W
_ZN4Sass10SharedImplINS_8ArgumentEED2Ev W
_ZN4Sass10SharedImplINS_8ArgumentEEaSEOS2_ W
_ZN4Sass10SharedImplINS_8ArgumentEEaSERKS2_ W
_ZN4Sass10SharedImplINS_8ArgumentEEaSIS1_EERS2_PT_ W
_ZN4Sass10SharedImplINS_8EachRuleEEC1IS1_EEPT_ W
_ZN4Sass10SharedImplINS_8EachRuleEEC2IS1_EEPT_ W
_ZN4Sass10SharedImplINS_8EachRuleEED1Ev W
_ZN4Sass10SharedImplINS_8EachRuleEED2Ev W
_ZN4Sass10SharedImplINS_8FunctionEEC1ERKS2_ W
_ZN4Sass10SharedImplINS_8FunctionEEC1Ev W
_ZN4Sass10SharedImplINS_8FunctionEEC1IS1_EEPT_ W
_ZN4Sass10SharedImplINS_8FunctionEEC2ERKS2_ W
_ZN4Sass10SharedImplINS_8FunctionEEC2Ev W
_ZN4Sass10SharedImplINS_8FunctionEEC2IS1_EEPT_ W
_ZN4Sass10SharedImplINS_8FunctionEED1Ev W
_ZN4Sass10SharedImplINS_8FunctionEED2Ev W
_ZN4Sass10SharedImplINS_8FunctionEEaSERKS2_ W
_ZN4Sass10SharedImplINS_8PreValueEEC1EOS2_ W
_ZN4Sass10SharedImplINS_8PreValueEEC1ERKS2_ W
_ZN4Sass10SharedImplINS_8PreValueEEC1INS_10ExpressionEEEPT_ W
_ZN4Sass10SharedImplINS_8PreValueEEC1INS_10ExpressionEEERKNS0_IT_EE W
_ZN4Sass10SharedImplINS_8PreValueEEC1INS_13Function_CallEEEPT_ W
_ZN4Sass10SharedImplINS_8PreValueEEC1INS_13Function_CallEEERKNS0_IT_EE W
_ZN4Sass10SharedImplINS_8PreValueEEC1INS_13String_QuotedEEEPT_ W
_ZN4Sass10SharedImplINS_8PreValueEEC1INS_13String_SchemaEEEPT_ W
_ZN4Sass10SharedImplINS_8PreValueEEC1INS_13String_SchemaEEERKNS0_IT_EE W
_ZN4Sass10SharedImplINS_8PreValueEEC1INS_15String_ConstantEEEPT_ W
_ZN4Sass10SharedImplINS_8PreValueEEC1INS_15String_ConstantEEERKNS0_IT_EE W
_ZN4Sass10SharedImplINS_8PreValueEEC1INS_5ValueEEEPT_ W
_ZN4Sass10SharedImplINS_8PreValueEEC1INS_6NumberEEEPT_ W
_ZN4Sass10SharedImplINS_8PreValueEEC1INS_6StringEEEPT_ W
_ZN4Sass10SharedImplINS_8PreValueEEC1INS_6StringEEERKNS0_IT_EE W
_ZN4Sass10SharedImplINS_8PreValueEEC1INS_8VariableEEEPT_ W
_ZN4Sass10SharedImplINS_8PreValueEEC2EOS2_ W
_ZN4Sass10SharedImplINS_8PreValueEEC2ERKS2_ W
_ZN4Sass10SharedImplINS_8PreValueEEC2INS_10ExpressionEEEPT_ W
_ZN4Sass10SharedImplINS_8PreValueEEC2INS_10ExpressionEEERKNS0_IT_EE W
_ZN4Sass10SharedImplINS_8PreValueEEC2INS_13Function_CallEEEPT_ W
_ZN4Sass10SharedImplINS_8PreValueEEC2INS_13Function_CallEEERKNS0_IT_EE W
_ZN4Sass10SharedImplINS_8PreValueEEC2INS_13String_QuotedEEEPT_ W
_ZN4Sass10SharedImplINS_8PreValueEEC2INS_13String_SchemaEEEPT_ W
_ZN4Sass10SharedImplINS_8PreValueEEC2INS_13String_SchemaEEERKNS0_IT_EE W
_ZN4Sass10SharedImplINS_8PreValueEEC2INS_15String_ConstantEEEPT_ W
_ZN4Sass10SharedImplINS_8PreValueEEC2INS_15String_ConstantEEERKNS0_IT_EE W
_ZN4Sass10SharedImplINS_8PreValueEEC2INS_5ValueEEEPT_ W
_ZN4Sass10SharedImplINS_8PreValueEEC2INS_6NumberEEEPT_ W
_ZN4Sass10SharedImplINS_8PreValueEEC2INS_6StringEEEPT_ W
_ZN4Sass10SharedImplINS_8PreValueEEC2INS_6StringEEERKNS0_IT_EE W
_ZN4Sass10SharedImplINS_8PreValueEEC2INS_8VariableEEEPT_ W
_ZN4Sass10SharedImplINS_8PreValueEED1Ev W
_ZN4Sass10SharedImplINS_8PreValueEED2Ev W
_ZN4Sass10SharedImplINS_8PreValueEEaSEOS2_ W
_ZN4Sass10SharedImplINS_8PreValueEEaSERKS2_ W
_ZN4Sass10SharedImplINS_8PreValueEEaSINS_10ExpressionEEERS2_RKNS0_IT_EE W
_ZN4Sass10SharedImplINS_8SelectorEEC1INS_12SelectorListEEEPT_ W
_ZN4Sass10SharedImplINS_8SelectorEEC1INS_12SelectorListEEERKNS0_IT_EE W
_ZN4Sass10SharedImplINS_8SelectorEEC2INS_12SelectorListEEEPT_ W
_ZN4Sass10SharedImplINS_8SelectorEEC2INS_12SelectorListEEERKNS0_IT_EE W
_ZN4Sass10SharedImplINS_8SelectorEED1Ev W
_ZN4Sass10SharedImplINS_8SelectorEED2Ev W
_ZN4Sass10SharedImplINS_9ArgumentsEE6detachEv W
_ZN4Sass10SharedImplINS_9ArgumentsEEC1ERKS2_ W
_ZN4Sass10SharedImplINS_9ArgumentsEEC1Ev W
_ZN4Sass10SharedImplINS_9ArgumentsEEC1IS1_EEPT_ W
_ZN4Sass10SharedImplINS_9ArgumentsEEC2ERKS2_ W
_ZN4Sass10SharedImplINS_9ArgumentsEEC2Ev W
_ZN4Sass10SharedImplINS_9ArgumentsEEC2IS1_EEPT_ W
_ZN4Sass10SharedImplINS_9ArgumentsEED1Ev W
_ZN4Sass10SharedImplINS_9ArgumentsEED2Ev W
_ZN4Sass10SharedImplINS_9ArgumentsEEaSERKS2_ W
_ZN4Sass10SharedImplINS_9ArgumentsEEaSIS1_EERS2_PT_ W
_ZN4Sass10SharedImplINS_9DebugRuleEEC1IS1_EEPT_ W
_ZN4Sass10SharedImplINS_9DebugRuleEEC2IS1_EEPT_ W
_ZN4Sass10SharedImplINS_9DebugRuleEED1Ev W
_ZN4Sass10SharedImplINS_9DebugRuleEED2Ev W
_ZN4Sass10SharedImplINS_9ErrorRuleEEC1IS1_EEPT_ W
_ZN4Sass10SharedImplINS_9ErrorRuleEEC2IS1_EEPT_ W
_ZN4Sass10SharedImplINS_9ErrorRuleEED1Ev W
_ZN4Sass10SharedImplINS_9ErrorRuleEED2Ev W
_ZN4Sass10SharedImplINS_9MediaRuleEEC1IS1_EEPT_ W
_ZN4Sass10SharedImplINS_9MediaRuleEEC2IS1_EEPT_ W
_ZN4Sass10SharedImplINS_9MediaRuleEED1Ev W
_ZN4Sass10SharedImplINS_9MediaRuleEED2Ev W
_ZN4Sass10SharedImplINS_9ParameterEEC1EOS2_ W
_ZN4Sass10SharedImplINS_9ParameterEEC1ERKS2_ W
_ZN4Sass10SharedImplINS_9ParameterEEC1Ev W
_ZN4Sass10SharedImplINS_9ParameterEEC1IS1_EEPT_ W
_ZN4Sass10SharedImplINS_9ParameterEEC2EOS2_ W
_ZN4Sass10SharedImplINS_9ParameterEEC2ERKS2_ W
_ZN4Sass10SharedImplINS_9ParameterEEC2Ev W
_ZN4Sass10SharedImplINS_9ParameterEEC2IS1_EEPT_ W
_ZN4Sass10SharedImplINS_9ParameterEED1Ev W
_ZN4Sass10SharedImplINS_9ParameterEED2Ev W
_ZN4Sass10SharedImplINS_9ParameterEEaSEOS2_ W
_ZN4Sass10SharedImplINS_9ParameterEEaSERKS2_ W
_ZN4Sass10SharedImplINS_9StatementEEC1EOS2_ W
_ZN4Sass10SharedImplINS_9StatementEEC1ERKS2_ W
_ZN4Sass10SharedImplINS_9StatementEEC1Ev W
_ZN4Sass10SharedImplINS_9StatementEEC1INS_10AssignmentEEEPT_ W
_ZN4Sass10SharedImplINS_9StatementEEC1INS_10AssignmentEEERKNS0_IT_EE W
_ZN4Sass10SharedImplINS_9StatementEEC1INS_10AtRootRuleEEEPT_ W
_ZN4Sass10SharedImplINS_9StatementEEC1INS_10AtRootRuleEEERKNS0_IT_EE W
_ZN4Sass10SharedImplINS_9StatementEEC1INS_10DefinitionEEEPT_ W
_ZN4Sass10SharedImplINS_9StatementEEC1INS_10DefinitionEEERKNS0_IT_EE W
_ZN4Sass10SharedImplINS_9StatementEEC1INS_10ExtendRuleEEEPT_ W
_ZN4Sass10SharedImplINS_9StatementEEC1INS_10Mixin_CallEEEPT_ W
_ZN4Sass10SharedImplINS_9StatementEEC1INS_10Mixin_CallEEERKNS0_IT_EE W
_ZN4Sass10SharedImplINS_9StatementEEC1INS_11DeclarationEEEPT_ W
_ZN4Sass10SharedImplINS_9StatementEEC1INS_11DeclarationEEERKNS0_IT_EE W
_ZN4Sass10SharedImplINS_9StatementEEC1INS_11Import_StubEEEPT_ W
_ZN4Sass10SharedImplINS_9StatementEEC1INS_11WarningRuleEEEPT_ W
_ZN4Sass10SharedImplINS_9StatementEEC1INS_11WarningRuleEEERKNS0_IT_EE W
_ZN4Sass10SharedImplINS_9StatementEEC1INS_12CssMediaRuleEEEPT_ W
_ZN4Sass10SharedImplINS_9StatementEEC1INS_12CssMediaRuleEEERKNS0_IT_EE W
_ZN4Sass10SharedImplINS_9StatementEEC1INS_12SupportsRuleEEEPT_ W
_ZN4Sass10SharedImplINS_9StatementEEC1INS_12SupportsRuleEEERKNS0_IT_EE W
_ZN4Sass10SharedImplINS_9StatementEEC1INS_15ParentStatementEEEPT_ W
_ZN4Sass10SharedImplINS_9StatementEEC1INS_15ParentStatementEEERKNS0_IT_EE W
_ZN4Sass10SharedImplINS_9StatementEEC1INS_2IfEEEPT_ W
_ZN4Sass10SharedImplINS_9StatementEEC1INS_2IfEEERKNS0_IT_EE W
_ZN4Sass10SharedImplINS_9StatementEEC1INS_5BlockEEEPT_ W
_ZN4Sass10SharedImplINS_9StatementEEC1INS_5BlockEEERKNS0_IT_EE W
_ZN4Sass10SharedImplINS_9StatementEEC1INS_5TraceEEEPT_ W
_ZN4Sass10SharedImplINS_9StatementEEC1INS_5TraceEEERKNS0_IT_EE W
_ZN4Sass10SharedImplINS_9StatementEEC1INS_6AtRuleEEEPT_ W
_ZN4Sass10SharedImplINS_9StatementEEC1INS_6AtRuleEEERKNS0_IT_EE W
_ZN4Sass10SharedImplINS_9StatementEEC1INS_6ImportEEEPT_ W
_ZN4Sass10SharedImplINS_9StatementEEC1INS_6ImportEEERKNS0_IT_EE W
_ZN4Sass10SharedImplINS_9StatementEEC1INS_6ReturnEEEPT_ W
_ZN4Sass10SharedImplINS_9StatementEEC1INS_6ReturnEEERKNS0_IT_EE W
_ZN4Sass10SharedImplINS_9StatementEEC1INS_7CommentEEEPT_ W
_ZN4Sass10SharedImplINS_9StatementEEC1INS_7ContentEEEPT_ W
_ZN4Sass10SharedImplINS_9StatementEEC1INS_7ContentEEERKNS0_IT_EE W
_ZN4Sass10SharedImplINS_9StatementEEC1INS_7ForRuleEEEPT_ W
_ZN4Sass10SharedImplINS_9StatementEEC1INS_7ForRuleEEERKNS0_IT_EE W
_ZN4Sass10SharedImplINS_9StatementEEC1INS_8EachRuleEEEPT_ W
_ZN4Sass10SharedImplINS_9StatementEEC1INS_8EachRuleEEERKNS0_IT_EE W
_ZN4Sass10SharedImplINS_9StatementEEC1INS_9DebugRuleEEEPT_ W
_ZN4Sass10SharedImplINS_9StatementEEC1INS_9DebugRuleEEERKNS0_IT_EE W
_ZN4Sass10SharedImplINS_9StatementEEC1INS_9ErrorRuleEEEPT_ W
_ZN4Sass10SharedImplINS_9StatementEEC1INS_9ErrorRuleEEERKNS0_IT_EE W
_ZN4Sass10SharedImplINS_9StatementEEC1INS_9MediaRuleEEEPT_ W
_ZN4Sass10SharedImplINS_9StatementEEC1INS_9MediaRuleEEERKNS0_IT_EE W
_ZN4Sass10SharedImplINS_9StatementEEC1INS_9StyleRuleEEEPT_ W
_ZN4Sass10SharedImplINS_9StatementEEC1INS_9StyleRuleEEERKNS0_IT_EE W
_ZN4Sass10SharedImplINS_9StatementEEC1INS_9WhileRuleEEEPT_ W
_ZN4Sass10SharedImplINS_9StatementEEC1INS_9WhileRuleEEERKNS0_IT_EE W
_ZN4Sass10SharedImplINS_9StatementEEC1IS1_EEPT_ W
_ZN4Sass10SharedImplINS_9StatementEEC2EOS2_ W
_ZN4Sass10SharedImplINS_9StatementEEC2ERKS2_ W
_ZN4Sass10SharedImplINS_9StatementEEC2Ev W
_ZN4Sass10SharedImplINS_9StatementEEC2INS_10AssignmentEEEPT_ W
_ZN4Sass10SharedImplINS_9StatementEEC2INS_10AssignmentEEERKNS0_IT_EE W
_ZN4Sass10SharedImplINS_9StatementEEC2INS_10AtRootRuleEEEPT_ W
_ZN4Sass10SharedImplINS_9StatementEEC2INS_10AtRootRuleEEERKNS0_IT_EE W
_ZN4Sass10SharedImplINS_9StatementEEC2INS_10DefinitionEEEPT_ W
_ZN4Sass10SharedImplINS_9StatementEEC2INS_10DefinitionEEERKNS0_IT_EE W
_ZN4Sass10SharedImplINS_9StatementEEC2INS_10ExtendRuleEEEPT_ W
_ZN4Sass10SharedImplINS_9StatementEEC2INS_10Mixin_CallEEEPT_ W
_ZN4Sass10SharedImplINS_9StatementEEC2INS_10Mixin_CallEEERKNS0_IT_EE W
_ZN4Sass10SharedImplINS_9StatementEEC2INS_11DeclarationEEEPT_ W
_ZN4Sass10SharedImplINS_9StatementEEC2INS_11DeclarationEEERKNS0_IT_EE W
_ZN4Sass10SharedImplINS_9StatementEEC2INS_11Import_StubEEEPT_ W
_ZN4Sass10SharedImplINS_9StatementEEC2INS_11WarningRuleEEEPT_ W
_ZN4Sass10SharedImplINS_9StatementEEC2INS_11WarningRuleEEERKNS0_IT_EE W
_ZN4Sass10SharedImplINS_9StatementEEC2INS_12CssMediaRuleEEEPT_ W
_ZN4Sass10SharedImplINS_9StatementEEC2INS_12CssMediaRuleEEERKNS0_IT_EE W
_ZN4Sass10SharedImplINS_9StatementEEC2INS_12SupportsRuleEEEPT_ W
_ZN4Sass10SharedImplINS_9StatementEEC2INS_12SupportsRuleEEERKNS0_IT_EE W
_ZN4Sass10SharedImplINS_9StatementEEC2INS_15ParentStatementEEEPT_ W
_ZN4Sass10SharedImplINS_9StatementEEC2INS_15ParentStatementEEERKNS0_IT_EE W
_ZN4Sass10SharedImplINS_9StatementEEC2INS_2IfEEEPT_ W
_ZN4Sass10SharedImplINS_9StatementEEC2INS_2IfEEERKNS0_IT_EE W
_ZN4Sass10SharedImplINS_9StatementEEC2INS_5BlockEEEPT_ W
_ZN4Sass10SharedImplINS_9StatementEEC2INS_5BlockEEERKNS0_IT_EE W
_ZN4Sass10SharedImplINS_9StatementEEC2INS_5TraceEEEPT_ W
_ZN4Sass10SharedImplINS_9StatementEEC2INS_5TraceEEERKNS0_IT_EE W
_ZN4Sass10SharedImplINS_9StatementEEC2INS_6AtRuleEEEPT_ W
_ZN4Sass10SharedImplINS_9StatementEEC2INS_6AtRuleEEERKNS0_IT_EE W
_ZN4Sass10SharedImplINS_9StatementEEC2INS_6ImportEEEPT_ W
_ZN4Sass10SharedImplINS_9StatementEEC2INS_6ImportEEERKNS0_IT_EE W
_ZN4Sass10SharedImplINS_9StatementEEC2INS_6ReturnEEEPT_ W
_ZN4Sass10SharedImplINS_9StatementEEC2INS_6ReturnEEERKNS0_IT_EE W
_ZN4Sass10SharedImplINS_9StatementEEC2INS_7CommentEEEPT_ W
_ZN4Sass10SharedImplINS_9StatementEEC2INS_7ContentEEEPT_ W
_ZN4Sass10SharedImplINS_9StatementEEC2INS_7ContentEEERKNS0_IT_EE W
_ZN4Sass10SharedImplINS_9StatementEEC2INS_7ForRuleEEEPT_ W
_ZN4Sass10SharedImplINS_9StatementEEC2INS_7ForRuleEEERKNS0_IT_EE W
_ZN4Sass10SharedImplINS_9StatementEEC2INS_8EachRuleEEEPT_ W
_ZN4Sass10SharedImplINS_9StatementEEC2INS_8EachRuleEEERKNS0_IT_EE W
_ZN4Sass10SharedImplINS_9StatementEEC2INS_9DebugRuleEEEPT_ W
_ZN4Sass10SharedImplINS_9StatementEEC2INS_9DebugRuleEEERKNS0_IT_EE W
_ZN4Sass10SharedImplINS_9StatementEEC2INS_9ErrorRuleEEEPT_ W
_ZN4Sass10SharedImplINS_9StatementEEC2INS_9ErrorRuleEEERKNS0_IT_EE W
_ZN4Sass10SharedImplINS_9StatementEEC2INS_9MediaRuleEEEPT_ W
_ZN4Sass10SharedImplINS_9StatementEEC2INS_9MediaRuleEEERKNS0_IT_EE W
_ZN4Sass10SharedImplINS_9StatementEEC2INS_9StyleRuleEEEPT_ W
_ZN4Sass10SharedImplINS_9StatementEEC2INS_9StyleRuleEEERKNS0_IT_EE W
_ZN4Sass10SharedImplINS_9StatementEEC2INS_9WhileRuleEEEPT_ W
_ZN4Sass10SharedImplINS_9StatementEEC2INS_9WhileRuleEEERKNS0_IT_EE W
_ZN4Sass10SharedImplINS_9StatementEEC2IS1_EEPT_ W
_ZN4Sass10SharedImplINS_9StatementEED1Ev W
_ZN4Sass10SharedImplINS_9StatementEED2Ev W
_ZN4Sass10SharedImplINS_9StatementEEaSEOS2_ W
_ZN4Sass10SharedImplINS_9StatementEEaSERKS2_ W
_ZN4Sass10SharedImplINS_9StyleRuleEEC1IS1_EEPT_ W
_ZN4Sass10SharedImplINS_9StyleRuleEEC2IS1_EEPT_ W
_ZN4Sass10SharedImplINS_9StyleRuleEED1Ev W
_ZN4Sass10SharedImplINS_9StyleRuleEED2Ev W
_ZN4Sass10SharedImplINS_9WhileRuleEE6detachEv W
_ZN4Sass10SharedImplINS_9WhileRuleEEC1IS1_EEPT_ W
_ZN4Sass10SharedImplINS_9WhileRuleEEC2IS1_EEPT_ W
_ZN4Sass10SharedImplINS_9WhileRuleEED1Ev W
_ZN4Sass10SharedImplINS_9WhileRuleEED2Ev W
_ZN4Sass10SourceDataC1Ev T
_ZN4Sass10SourceDataC2Ev T
_ZN4Sass10SourceDataD0Ev W
_ZN4Sass10SourceDataD1Ev W
_ZN4Sass10SourceDataD2Ev W
_ZN4Sass10SourceFile13getSourceSpanEv T
_ZN4Sass10SourceFileC1EPKcS2_m T
_ZN4Sass10SourceFileC2EPKcS2_m T
_ZN4Sass10SourceFileD0Ev T
_ZN4Sass10SourceFileD1Ev T
_ZN4Sass10SourceFileD2Ev T
_ZN4Sass10SourceSpanC1ENS_10SharedImplINS_10SourceDataEEERKNS_6OffsetES6_ T
_ZN4Sass10SourceSpanC1EOS0_ W
_ZN4Sass10SourceSpanC1EPKc T
_ZN4Sass10SourceSpanC1ERKS0_ W
_ZN4Sass10SourceSpanC2ENS_10SharedImplINS_10SourceDataEEERKNS_6OffsetES6_ T
_ZN4Sass10SourceSpanC2EOS0_ W
_ZN4Sass10SourceSpanC2EPKc T
_ZN4Sass10SourceSpanC2ERKS0_ W
_ZN4Sass10SourceSpanD1Ev W
_ZN4Sass10SourceSpanD2Ev W
_ZN4Sass10SourceSpanaSEOS0_ W
_ZN4Sass10SourceSpanaSERKS0_ W
_ZN4Sass10StyleSheetC1ERKNS_8ResourceENS_10SharedImplINS_5BlockEEE T
_ZN4Sass10StyleSheetC1ERKS0_ T
_ZN4Sass10StyleSheetC2ERKNS_8ResourceENS_10SharedImplINS_5BlockEEE T
_ZN4Sass10StyleSheetC2ERKS0_ T
_ZN4Sass10StyleSheetD1Ev W
_ZN4Sass10StyleSheetD2Ev W
_ZN4Sass10VectorizedINS_10SharedImplINS_10ExpressionEEEE10reset_hashEv W
_ZN4Sass10VectorizedINS_10SharedImplINS_10ExpressionEEEE20adjust_after_pushingES3_ W
_ZN4Sass10VectorizedINS_10SharedImplINS_10ExpressionEEEE2atEm W
_ZN4Sass10VectorizedINS_10SharedImplINS_10ExpressionEEEE3endEv W
_ZN4Sass10VectorizedINS_10SharedImplINS_10ExpressionEEEE5beginEv W
_ZN4Sass10VectorizedINS_10SharedImplINS_10ExpressionEEEE6appendES3_ W
_ZN4Sass10VectorizedINS_10SharedImplINS_10ExpressionEEEE6concatEPKS4_ W
_ZN4Sass10VectorizedINS_10SharedImplINS_10ExpressionEEEE6concatERKSt6vectorIS3_SaIS3_EE W
_ZN4Sass10VectorizedINS_10SharedImplINS_10ExpressionEEEE8elementsEv W
_ZN4Sass10VectorizedINS_10SharedImplINS_10ExpressionEEEEC1ERKS4_ W
_ZN4Sass10VectorizedINS_10SharedImplINS_10ExpressionEEEEC1Em W
_ZN4Sass10VectorizedINS_10SharedImplINS_10ExpressionEEEEC2ERKS4_ W
_ZN4Sass10VectorizedINS_10SharedImplINS_10ExpressionEEEEC2Em W
_ZN4Sass10VectorizedINS_10SharedImplINS_10ExpressionEEEED0Ev W
_ZN4Sass10VectorizedINS_10SharedImplINS_10ExpressionEEEED1Ev W
_ZN4Sass10VectorizedINS_10SharedImplINS_10ExpressionEEEED2Ev W
_ZN4Sass10VectorizedINS_10SharedImplINS_10ExpressionEEEEixEm W
_ZN4Sass10VectorizedINS_10SharedImplINS_13CssMediaQueryEEEE10reset_hashEv W
_ZN4Sass10VectorizedINS_10SharedImplINS_13CssMediaQueryEEEE20adjust_after_pushingES3_ W
_ZN4Sass10VectorizedINS_10SharedImplINS_13CssMediaQueryEEEE2atEm W
_ZN4Sass10VectorizedINS_10SharedImplINS_13CssMediaQueryEEEE3endEv W
_ZN4Sass10VectorizedINS_10SharedImplINS_13CssMediaQueryEEEE6concatERKSt6vectorIS3_SaIS3_EE W
_ZN4Sass10VectorizedINS_10SharedImplINS_13CssMediaQueryEEEE8elementsEv W
_ZN4Sass10VectorizedINS_10SharedImplINS_13CssMediaQueryEEEEC1ERKS4_ W
_ZN4Sass10VectorizedINS_10SharedImplINS_13CssMediaQueryEEEEC1Em W
_ZN4Sass10VectorizedINS_10SharedImplINS_13CssMediaQueryEEEEC2ERKS4_ W
_ZN4Sass10VectorizedINS_10SharedImplINS_13CssMediaQueryEEEEC2Em W
_ZN4Sass10VectorizedINS_10SharedImplINS_13CssMediaQueryEEEED0Ev W
_ZN4Sass10VectorizedINS_10SharedImplINS_13CssMediaQueryEEEED1Ev W
_ZN4Sass10VectorizedINS_10SharedImplINS_13CssMediaQueryEEEED2Ev W
_ZN4Sass10VectorizedINS_10SharedImplINS_14SimpleSelectorEEEE10reset_hashEv W
_ZN4Sass10VectorizedINS_10SharedImplINS_14SimpleSelectorEEEE20adjust_after_pushingES3_ W
_ZN4Sass10VectorizedINS_10SharedImplINS_14SimpleSelectorEEEE2atEm W
_ZN4Sass10VectorizedINS_10SharedImplINS_14SimpleSelectorEEEE3endEv W
_ZN4Sass10VectorizedINS_10SharedImplINS_14SimpleSelectorEEEE4lastEv W
_ZN4Sass10VectorizedINS_10SharedImplINS_14SimpleSelectorEEEE5beginEv W
_ZN4Sass10VectorizedINS_10SharedImplINS_14SimpleSelectorEEEE5firstEv W
_ZN4Sass10VectorizedINS_10SharedImplINS_14SimpleSelectorEEEE6appendES3_ W
_ZN4Sass10VectorizedINS_10SharedImplINS_14SimpleSelectorEEEE6concatEPKS4_ W
_ZN4Sass10VectorizedINS_10SharedImplINS_14SimpleSelectorEEEE6concatERKSt6vectorIS3_SaIS3_EE W
_ZN4Sass10VectorizedINS_10SharedImplINS_14SimpleSelectorEEEE6insertIN9__gnu_cxx17__normal_iteratorIPS3_St6vectorIS3_SaIS3_EEEEPNS_12TypeSelectorEEESC_T_RKT0_ W
_ZN4Sass10VectorizedINS_10SharedImplINS_14SimpleSelectorEEEE8elementsEv W
_ZN4Sass10VectorizedINS_10SharedImplINS_14SimpleSelectorEEEEC1ERKS4_ W
_ZN4Sass10VectorizedINS_10SharedImplINS_14SimpleSelectorEEEEC1Em W
_ZN4Sass10VectorizedINS_10SharedImplINS_14SimpleSelectorEEEEC2ERKS4_ W
_ZN4Sass10VectorizedINS_10SharedImplINS_14SimpleSelectorEEEEC2Em W
_ZN4Sass10VectorizedINS_10SharedImplINS_14SimpleSelectorEEEED0Ev W
_ZN4Sass10VectorizedINS_10SharedImplINS_14SimpleSelectorEEEED1Ev W
_ZN4Sass10VectorizedINS_10SharedImplINS_14SimpleSelectorEEEED2Ev W
_ZN4Sass10VectorizedINS_10SharedImplINS_14SimpleSelectorEEEEixEm W
_ZN4Sass10VectorizedINS_10SharedImplINS_15ComplexSelectorEEEE10reset_hashEv W
_ZN4Sass10VectorizedINS_10SharedImplINS_15ComplexSelectorEEEE20adjust_after_pushingES3_ W
_ZN4Sass10VectorizedINS_10SharedImplINS_15ComplexSelectorEEEE2atEm W
_ZN4Sass10VectorizedINS_10SharedImplINS_15ComplexSelectorEEEE3endEv W
_ZN4Sass10VectorizedINS_10SharedImplINS_15ComplexSelectorEEEE5beginEv W
_ZN4Sass10VectorizedINS_10SharedImplINS_15ComplexSelectorEEEE5firstEv W
_ZN4Sass10VectorizedINS_10SharedImplINS_15ComplexSelectorEEEE6appendES3_ W
_ZN4Sass10VectorizedINS_10SharedImplINS_15ComplexSelectorEEEE6concatEPKS4_ W
_ZN4Sass10VectorizedINS_10SharedImplINS_15ComplexSelectorEEEE6concatERKSt6vectorIS3_SaIS3_EE W
_ZN4Sass10VectorizedINS_10SharedImplINS_15ComplexSelectorEEEE8elementsESt6vectorIS3_SaIS3_EE W
_ZN4Sass10VectorizedINS_10SharedImplINS_15ComplexSelectorEEEE8elementsEv W
_ZN4Sass10VectorizedINS_10SharedImplINS_15ComplexSelectorEEEEC1ERKS4_ W
_ZN4Sass10VectorizedINS_10SharedImplINS_15ComplexSelectorEEEEC1Em W
_ZN4Sass10VectorizedINS_10SharedImplINS_15ComplexSelectorEEEEC2ERKS4_ W
_ZN4Sass10VectorizedINS_10SharedImplINS_15ComplexSelectorEEEEC2Em W
_ZN4Sass10VectorizedINS_10SharedImplINS_15ComplexSelectorEEEED0Ev W
_ZN4Sass10VectorizedINS_10SharedImplINS_15ComplexSelectorEEEED1Ev W
_ZN4Sass10VectorizedINS_10SharedImplINS_15ComplexSelectorEEEED2Ev W
_ZN4Sass10VectorizedINS_10SharedImplINS_15ComplexSelectorEEEEixEm W
_ZN4Sass10VectorizedINS_10SharedImplINS_17SelectorComponentEEEE10reset_hashEv W
_ZN4Sass10VectorizedINS_10SharedImplINS_17SelectorComponentEEEE20adjust_after_pushingES3_ W
_ZN4Sass10VectorizedINS_10SharedImplINS_17SelectorComponentEEEE2atEm W
_ZN4Sass10VectorizedINS_10SharedImplINS_17SelectorComponentEEEE3endEv W
_ZN4Sass10VectorizedINS_10SharedImplINS_17SelectorComponentEEEE4lastEv W
_ZN4Sass10VectorizedINS_10SharedImplINS_17SelectorComponentEEEE5clearEv W
_ZN4Sass10VectorizedINS_10SharedImplINS_17SelectorComponentEEEE5firstEv W
_ZN4Sass10VectorizedINS_10SharedImplINS_17SelectorComponentEEEE6appendES3_ W
_ZN4Sass10VectorizedINS_10SharedImplINS_17SelectorComponentEEEE6concatEPKS4_ W
_ZN4Sass10VectorizedINS_10SharedImplINS_17SelectorComponentEEEE6concatERKSt6vectorIS3_SaIS3_EE W
_ZN4Sass10VectorizedINS_10SharedImplINS_17SelectorComponentEEEE8elementsESt6vectorIS3_SaIS3_EE W
_ZN4Sass10VectorizedINS_10SharedImplINS_17SelectorComponentEEEE8elementsEv W
_ZN4Sass10VectorizedINS_10SharedImplINS_17SelectorComponentEEEEC1ESt6vectorIS3_SaIS3_EE W
_ZN4Sass10VectorizedINS_10SharedImplINS_17SelectorComponentEEEEC1Em W
_ZN4Sass10VectorizedINS_10SharedImplINS_17SelectorComponentEEEEC2ESt6vectorIS3_SaIS3_EE W
_ZN4Sass10VectorizedINS_10SharedImplINS_17SelectorComponentEEEEC2Em W
_ZN4Sass10VectorizedINS_10SharedImplINS_17SelectorComponentEEEED0Ev W
_ZN4Sass10VectorizedINS_10SharedImplINS_17SelectorComponentEEEED1Ev W
_ZN4Sass10VectorizedINS_10SharedImplINS_17SelectorComponentEEEED2Ev W
_ZN4Sass10VectorizedINS_10SharedImplINS_22Media_Query_ExpressionEEEE10reset_hashEv W
_ZN4Sass10VectorizedINS_10SharedImplINS_22Media_Query_ExpressionEEEE20adjust_after_pushingES3_ W
_ZN4Sass10VectorizedINS_10SharedImplINS_22Media_Query_ExpressionEEEE2atEm W
_ZN4Sass10VectorizedINS_10SharedImplINS_22Media_Query_ExpressionEEEE3endEv W
_ZN4Sass10VectorizedINS_10SharedImplINS_22Media_Query_ExpressionEEEE6appendES3_ W
_ZN4Sass10VectorizedINS_10SharedImplINS_22Media_Query_ExpressionEEEEC1ERKS4_ W
_ZN4Sass10VectorizedINS_10SharedImplINS_22Media_Query_ExpressionEEEEC1Em W
_ZN4Sass10VectorizedINS_10SharedImplINS_22Media_Query_ExpressionEEEEC2ERKS4_ W
_ZN4Sass10VectorizedINS_10SharedImplINS_22Media_Query_ExpressionEEEEC2Em W
_ZN4Sass10VectorizedINS_10SharedImplINS_22Media_Query_ExpressionEEEED0Ev W
_ZN4Sass10VectorizedINS_10SharedImplINS_22Media_Query_ExpressionEEEED1Ev W
_ZN4Sass10VectorizedINS_10SharedImplINS_22Media_Query_ExpressionEEEED2Ev W
_ZN4Sass10VectorizedINS_10SharedImplINS_22Media_Query_ExpressionEEEEixEm W
_ZN4Sass10VectorizedINS_10SharedImplINS_8ArgumentEEEE10reset_hashEv W
_ZN4Sass10VectorizedINS_10SharedImplINS_8ArgumentEEEE20adjust_after_pushingES3_ W
_ZN4Sass10VectorizedINS_10SharedImplINS_8ArgumentEEEE2atEm W
_ZN4Sass10VectorizedINS_10SharedImplINS_8ArgumentEEEE3endEv W
_ZN4Sass10VectorizedINS_10SharedImplINS_8ArgumentEEEE4lastEv W
_ZN4Sass10VectorizedINS_10SharedImplINS_8ArgumentEEEE6appendES3_ W
_ZN4Sass10VectorizedINS_10SharedImplINS_8ArgumentEEEE6concatEPKS4_ W
_ZN4Sass10VectorizedINS_10SharedImplINS_8ArgumentEEEE6concatERKSt6vectorIS3_SaIS3_EE W
_ZN4Sass10VectorizedINS_10SharedImplINS_8ArgumentEEEE8elementsEv W
_ZN4Sass10VectorizedINS_10SharedImplINS_8ArgumentEEEEC1ERKS4_ W
_ZN4Sass10VectorizedINS_10SharedImplINS_8ArgumentEEEEC1Em W
_ZN4Sass10VectorizedINS_10SharedImplINS_8ArgumentEEEEC2ERKS4_ W
_ZN4Sass10VectorizedINS_10SharedImplINS_8ArgumentEEEEC2Em W
_ZN4Sass10VectorizedINS_10SharedImplINS_8ArgumentEEEED0Ev W
_ZN4Sass10VectorizedINS_10SharedImplINS_8ArgumentEEEED1Ev W
_ZN4Sass10VectorizedINS_10SharedImplINS_8ArgumentEEEED2Ev W
_ZN4Sass10VectorizedINS_10SharedImplINS_8ArgumentEEEEixEm W
_ZN4Sass10VectorizedINS_10SharedImplINS_8PreValueEEEE10reset_hashEv W
_ZN4Sass10VectorizedINS_10SharedImplINS_8PreValueEEEE20adjust_after_pushingES3_ W
_ZN4Sass10VectorizedINS_10SharedImplINS_8PreValueEEEE2atEm W
_ZN4Sass10VectorizedINS_10SharedImplINS_8PreValueEEEE3endEv W
_ZN4Sass10VectorizedINS_10SharedImplINS_8PreValueEEEE4lastEv W
_ZN4Sass10VectorizedINS_10SharedImplINS_8PreValueEEEE5firstEv W
_ZN4Sass10VectorizedINS_10SharedImplINS_8PreValueEEEE6appendES3_ W
_ZN4Sass10VectorizedINS_10SharedImplINS_8PreValueEEEE6concatEPKS4_ W
_ZN4Sass10VectorizedINS_10SharedImplINS_8PreValueEEEE6concatERKSt6vectorIS3_SaIS3_EE W
_ZN4Sass10VectorizedINS_10SharedImplINS_8PreValueEEEE8elementsEv W
_ZN4Sass10VectorizedINS_10SharedImplINS_8PreValueEEEEC1ERKS4_ W
_ZN4Sass10VectorizedINS_10SharedImplINS_8PreValueEEEEC1Em W
_ZN4Sass10VectorizedINS_10SharedImplINS_8PreValueEEEEC2ERKS4_ W
_ZN4Sass10VectorizedINS_10SharedImplINS_8PreValueEEEEC2Em W
_ZN4Sass10VectorizedINS_10SharedImplINS_8PreValueEEEED0Ev W
_ZN4Sass10VectorizedINS_10SharedImplINS_8PreValueEEEED1Ev W
_ZN4Sass10VectorizedINS_10SharedImplINS_8PreValueEEEED2Ev W
_ZN4Sass10VectorizedINS_10SharedImplINS_8PreValueEEEEixEm W
_ZN4Sass10VectorizedINS_10SharedImplINS_9ParameterEEEE10reset_hashEv W
_ZN4Sass10VectorizedINS_10SharedImplINS_9ParameterEEEE20adjust_after_pushingES3_ W
_ZN4Sass10VectorizedINS_10SharedImplINS_9ParameterEEEE2atEm W
_ZN4Sass10VectorizedINS_10SharedImplINS_9ParameterEEEE3endEv W
_ZN4Sass10VectorizedINS_10SharedImplINS_9ParameterEEEE6appendES3_ W
_ZN4Sass10VectorizedINS_10SharedImplINS_9ParameterEEEEC1ERKS4_ W
_ZN4Sass10VectorizedINS_10SharedImplINS_9ParameterEEEEC1Em W
_ZN4Sass10VectorizedINS_10SharedImplINS_9ParameterEEEEC2ERKS4_ W
_ZN4Sass10VectorizedINS_10SharedImplINS_9ParameterEEEEC2Em W
_ZN4Sass10VectorizedINS_10SharedImplINS_9ParameterEEEED0Ev W
_ZN4Sass10VectorizedINS_10SharedImplINS_9ParameterEEEED1Ev W
_ZN4Sass10VectorizedINS_10SharedImplINS_9ParameterEEEED2Ev W
_ZN4Sass10VectorizedINS_10SharedImplINS_9ParameterEEEEixEm W
_ZN4Sass10VectorizedINS_10SharedImplINS_9StatementEEEE10reset_hashEv W
_ZN4Sass10VectorizedINS_10SharedImplINS_9StatementEEEE20adjust_after_pushingES3_ W
_ZN4Sass10VectorizedINS_10SharedImplINS_9StatementEEEE2atEm W
_ZN4Sass10VectorizedINS_10SharedImplINS_9StatementEEEE3endEv W
_ZN4Sass10VectorizedINS_10SharedImplINS_9StatementEEEE4lastEv W
_ZN4Sass10VectorizedINS_10SharedImplINS_9StatementEEEE5beginEv W
_ZN4Sass10VectorizedINS_10SharedImplINS_9StatementEEEE6appendES3_ W
_ZN4Sass10VectorizedINS_10SharedImplINS_9StatementEEEE6concatEPKS4_ W
_ZN4Sass10VectorizedINS_10SharedImplINS_9StatementEEEE6concatERKSt6vectorIS3_SaIS3_EE W
_ZN4Sass10VectorizedINS_10SharedImplINS_9StatementEEEE7unshiftES3_ W
_ZN4Sass10VectorizedINS_10SharedImplINS_9StatementEEEE8elementsEv W
_ZN4Sass10VectorizedINS_10SharedImplINS_9StatementEEEEC1ERKS4_ W
_ZN4Sass10VectorizedINS_10SharedImplINS_9StatementEEEEC1Em W
_ZN4Sass10VectorizedINS_10SharedImplINS_9StatementEEEEC2ERKS4_ W
_ZN4Sass10VectorizedINS_10SharedImplINS_9StatementEEEEC2Em W
_ZN4Sass10VectorizedINS_10SharedImplINS_9StatementEEEED0Ev W
_ZN4Sass10VectorizedINS_10SharedImplINS_9StatementEEEED1Ev W
_ZN4Sass10VectorizedINS_10SharedImplINS_9StatementEEEED2Ev W
_ZN4Sass10VectorizedINS_10SharedImplINS_9StatementEEEEixEm W
_ZN4Sass10deprecatedENSt7__cxx1112basic_stringIcSt11char_traitsIcESaIcEEES5_bNS_10SourceSpanE T
_ZN4Sass11Declaration11is_indentedEb W
_ZN4Sass11Declaration7performEPNS_9OperationINSt7__cxx1112basic_stringIcSt11char_traitsIcESaIcEEEEE W
_ZN4Sass11Declaration7performEPNS_9OperationIP10Sass_ValueEE W
_ZN4Sass11Declaration7performEPNS_9OperationIPNS_10ExpressionEEE W
_ZN4Sass11Declaration7performEPNS_9OperationIPNS_17SupportsConditionEEE W
_ZN4Sass11Declaration7performEPNS_9OperationIPNS_5ValueEEE W
_ZN4Sass11Declaration7performEPNS_9OperationIPNS_8AST_NodeEEE W
_ZN4Sass11Declaration7performEPNS_9OperationIPNS_8SelectorEEE W
_ZN4Sass11Declaration7performEPNS_9OperationIPNS_9StatementEEE W
_ZN4Sass11Declaration7performEPNS_9OperationIvEE W
_ZN4Sass11DeclarationC1ENS_10SourceSpanENS_10SharedImplINS_6StringEEENS2_INS_10ExpressionEEEbbNS2_INS_5BlockEEE T
_ZN4Sass11DeclarationC1EPKS0_ T
_ZN4Sass11DeclarationC2ENS_10SourceSpanENS_10SharedImplINS_6StringEEENS2_INS_10ExpressionEEEbbNS2_INS_5BlockEEE T
_ZN4Sass11DeclarationC2EPKS0_ T
_ZN4Sass11DeclarationD0Ev W
_ZN4Sass11DeclarationD1Ev W
_ZN4Sass11DeclarationD2Ev W
_ZN4Sass11EnvironmentINS_10SharedImplINS_8AST_NodeEEEE10del_globalERKNSt7__cxx1112basic_stringIcSt11char_traitsIcESaIcEEE W
_ZN4Sass11EnvironmentINS_10SharedImplINS_8AST_NodeEEEE10find_localERKNSt7__cxx1112basic_stringIcSt11char_traitsIcESaIcEEE W
_ZN4Sass11EnvironmentINS_10SharedImplINS_8AST_NodeEEEE10get_globalERKNSt7__cxx1112basic_stringIcSt11char_traitsIcESaIcEEE W
_ZN4Sass11EnvironmentINS_10SharedImplINS_8AST_NodeEEEE10global_envEv W
_ZN4Sass11EnvironmentINS_10SharedImplINS_8AST_NodeEEEE10has_globalERKNSt7__cxx1112basic_stringIcSt11char_traitsIcESaIcEEE W
_ZN4Sass11EnvironmentINS_10SharedImplINS_8AST_NodeEEEE10set_globalERKNSt7__cxx1112basic_stringIcSt11char_traitsIcESaIcEEEOS3_ W
_ZN4Sass11EnvironmentINS_10SharedImplINS_8AST_NodeEEEE10set_globalERKNSt7__cxx1112basic_stringIcSt11char_traitsIcESaIcEEERKS3_ W
_ZN4Sass11EnvironmentINS_10SharedImplINS_8AST_NodeEEEE11lexical_envERKNSt7__cxx1112basic_stringIcSt11char_traitsIcESaIcEEE W
_ZN4Sass11EnvironmentINS_10SharedImplINS_8AST_NodeEEEE11local_frameB5cxx11Ev W
_ZN4Sass11EnvironmentINS_10SharedImplINS_8AST_NodeEEEE11set_lexicalERKNSt7__cxx1112basic_stringIcSt11char_traitsIcESaIcEEEOS3_ W
_ZN4Sass11EnvironmentINS_10SharedImplINS_8AST_NodeEEEE11set_lexicalERKNSt7__cxx1112basic_stringIcSt11char_traitsIcESaIcEEERKS3_ W
_ZN4Sass11EnvironmentINS_10SharedImplINS_8AST_NodeEEEE3getERKNSt7__cxx1112basic_stringIcSt11char_traitsIcESaIcEEE W
_ZN4Sass11EnvironmentINS_10SharedImplINS_8AST_NodeEEEE4findERKNSt7__cxx1112basic_stringIcSt11char_traitsIcESaIcEEE W
_ZN4Sass11EnvironmentINS_10SharedImplINS_8AST_NodeEEEE4linkEPS4_ W
_ZN4Sass11EnvironmentINS_10SharedImplINS_8AST_NodeEEEE4linkERS4_ W
_ZN4Sass11EnvironmentINS_10SharedImplINS_8AST_NodeEEEE6parentEPS4_ W
_ZN4Sass11EnvironmentINS_10SharedImplINS_8AST_NodeEEEE9del_localERKNSt7__cxx1112basic_stringIcSt11char_traitsIcESaIcEEE W
_ZN4Sass11EnvironmentINS_10SharedImplINS_8AST_NodeEEEE9get_localERKNSt7__cxx1112basic_stringIcSt11char_traitsIcESaIcEEE W
_ZN4Sass11EnvironmentINS_10SharedImplINS_8AST_NodeEEEE9is_shadowEb W
_ZN4Sass11EnvironmentINS_10SharedImplINS_8AST_NodeEEEE9set_localERKNSt7__cxx1112basic_stringIcSt11char_traitsIcESaIcEEEOS3_ W
_ZN4Sass11EnvironmentINS_10SharedImplINS_8AST_NodeEEEE9set_localERKNSt7__cxx1112basic_stringIcSt11char_traitsIcESaIcEEERKS3_ W
_ZN4Sass11EnvironmentINS_10SharedImplINS_8AST_NodeEEEEC1EPS4_b W
_ZN4Sass11EnvironmentINS_10SharedImplINS_8AST_NodeEEEEC1ERS4_b W
_ZN4Sass11EnvironmentINS_10SharedImplINS_8AST_NodeEEEEC1Eb W
_ZN4Sass11EnvironmentINS_10SharedImplINS_8AST_NodeEEEEC2EPS4_b W
_ZN4Sass11EnvironmentINS_10SharedImplINS_8AST_NodeEEEEC2ERS4_b W
_ZN4Sass11EnvironmentINS_10SharedImplINS_8AST_NodeEEEEC2Eb W
_ZN4Sass11EnvironmentINS_10SharedImplINS_8AST_NodeEEEED1Ev W
_ZN4Sass11EnvironmentINS_10SharedImplINS_8AST_NodeEEEED2Ev W
_ZN4Sass11EnvironmentINS_10SharedImplINS_8AST_NodeEEEEixERKNSt7__cxx1112basic_stringIcSt11char_traitsIcESaIcEEE W
_ZN4Sass11Import_Stub7performEPNS_9OperationINSt7__cxx1112basic_stringIcSt11char_traitsIcESaIcEEEEE W
_ZN4Sass11Import_Stub7performEPNS_9OperationIP10Sass_ValueEE W
_ZN4Sass11Import_Stub7performEPNS_9OperationIPNS_10ExpressionEEE W
_ZN4Sass11Import_Stub7performEPNS_9OperationIPNS_17SupportsConditionEEE W
_ZN4Sass11Import_Stub7performEPNS_9OperationIPNS_5ValueEEE W
_ZN4Sass11Import_Stub7performEPNS_9OperationIPNS_8AST_NodeEEE W
_ZN4Sass11Import_Stub7performEPNS_9OperationIPNS_8SelectorEEE W
_ZN4Sass11Import_Stub7performEPNS_9OperationIPNS_9StatementEEE W
_ZN4Sass11Import_Stub7performEPNS_9OperationIvEE W
_ZN4Sass11Import_Stub8abs_pathB5cxx11Ev T
_ZN4Sass11Import_Stub8imp_pathB5cxx11Ev T
_ZN4Sass11Import_Stub8resourceEv T
_ZN4Sass11Import_StubC1ENS_10SourceSpanENS_7IncludeE T
_ZN4Sass11Import_StubC1EPKS0_ T
_ZN4Sass11Import_StubC2ENS_10SourceSpanENS_7IncludeE T
_ZN4Sass11Import_StubC2EPKS0_ T
_ZN4Sass11Import_StubD0Ev W
_ZN4Sass11Import_StubD1Ev W
_ZN4Sass11Import_StubD2Ev W
_ZN4Sass11Media_Query10is_negatedEb W
_ZN4Sass11Media_Query10media_typeENS_10SharedImplINS_6StringEEE W
_ZN4Sass11Media_Query13is_restrictedEb W
_ZN4Sass11Media_Query7performEPNS_9OperationINSt7__cxx1112basic_stringIcSt11char_traitsIcESaIcEEEEE W
_ZN4Sass11Media_Query7performEPNS_9OperationIP10Sass_ValueEE W
_ZN4Sass11Media_Query7performEPNS_9OperationIPNS_10ExpressionEEE W
_ZN4Sass11Media_Query7performEPNS_9OperationIPNS_17SupportsConditionEEE W
_ZN4Sass11Media_Query7performEPNS_9OperationIPNS_5ValueEEE W
_ZN4Sass11Media_Query7performEPNS_9OperationIPNS_8AST_NodeEEE W
_ZN4Sass11Media_Query7performEPNS_9OperationIPNS_8SelectorEEE W
_ZN4Sass11Media_Query7performEPNS_9OperationIPNS_9StatementEEE W
_ZN4Sass11Media_Query7performEPNS_9OperationIvEE W
_ZN4Sass11Media_QueryC1ENS_10SourceSpanENS_10SharedImplINS_6StringEEEmbb T
_ZN4Sass11Media_QueryC1EPKS0_ T
_ZN4Sass11Media_QueryC2ENS_10SourceSpanENS_10SharedImplINS_6StringEEEmbb T
_ZN4Sass11Media_QueryC2EPKS0_ T
_ZN4Sass11Media_QueryD0Ev W
_ZN4Sass11Media_QueryD1Ev W
_ZN4Sass11Media_QueryD2Ev W
_ZN4Sass11WarningRule7performEPNS_9OperationINSt7__cxx1112basic_stringIcSt11char_traitsIcESaIcEEEEE W
_ZN4Sass11WarningRule7performEPNS_9OperationIP10Sass_ValueEE W
_ZN4Sass11WarningRule7performEPNS_9OperationIPNS_10ExpressionEEE W
_ZN4Sass11WarningRule7performEPNS_9OperationIPNS_17SupportsConditionEEE W
_ZN4Sass11WarningRule7performEPNS_9OperationIPNS_5ValueEEE W
_ZN4Sass11WarningRule7performEPNS_9OperationIPNS_8AST_NodeEEE W
_ZN4Sass11WarningRule7performEPNS_9OperationIPNS_8SelectorEEE W
_ZN4Sass11WarningRule7performEPNS_9OperationIPNS_9StatementEEE W
_ZN4Sass11WarningRule7performEPNS_9OperationIvEE W
_ZN4Sass11WarningRuleC1ENS_10SourceSpanENS_10SharedImplINS_10ExpressionEEE T
_ZN4Sass11WarningRuleC1EPKS0_ T
_ZN4Sass11WarningRuleC2ENS_10SourceSpanENS_10SharedImplINS_10ExpressionEEE T
_ZN4Sass11WarningRuleC2EPKS0_ T
_ZN4Sass11WarningRuleD0Ev W
_ZN4Sass11WarningRuleD1Ev W
_ZN4Sass11WarningRuleD2Ev W
_ZN4Sass11listIsEmptyINS_14SimpleSelectorEEEbPT_ W
_ZN4Sass11listIsEmptyINS_15ComplexSelectorEEEbPT_ W
_ZN4Sass11listIsEmptyINS_17SelectorComponentEEEbPT_ W
_ZN4Sass11ordered_mapINS_10SharedImplINS_12SelectorListEEENS1_INS_12CssMediaRuleEEENS_10ObjPtrHashENS_14ObjPtrEqualityESaISt4pairIKS3_S5_EEE3getERS9_ W
_ZN4Sass11ordered_mapINS_10SharedImplINS_12SelectorListEEENS1_INS_12CssMediaRuleEEENS_10ObjPtrHashENS_14ObjPtrEqualityESaISt4pairIKS3_S5_EEE6insertERS9_RKS5_ W
_ZN4Sass11ordered_mapINS_10SharedImplINS_12SelectorListEEENS1_INS_12CssMediaRuleEEENS_10ObjPtrHashENS_14ObjPtrEqualityESaISt4pairIKS3_S5_EEEC1Ev W
_ZN4Sass11ordered_mapINS_10SharedImplINS_12SelectorListEEENS1_INS_12CssMediaRuleEEENS_10ObjPtrHashENS_14ObjPtrEqualityESaISt4pairIKS3_S5_EEEC2Ev W
_ZN4Sass11ordered_mapINS_10SharedImplINS_12SelectorListEEENS1_INS_12CssMediaRuleEEENS_10ObjPtrHashENS_14ObjPtrEqualityESaISt4pairIKS3_S5_EEED1Ev W
_ZN4Sass11ordered_mapINS_10SharedImplINS_12SelectorListEEENS1_INS_12CssMediaRuleEEENS_10ObjPtrHashENS_14ObjPtrEqualityESaISt4pairIKS3_S5_EEED2Ev W
_ZN4Sass11ordered_mapINS_10SharedImplINS_15ComplexSelectorEEENS_9ExtensionENS_7ObjHashENS_11ObjEqualityESaISt4pairIKS3_S4_EEE3getERS8_ W
_ZN4Sass11ordered_mapINS_10SharedImplINS_15ComplexSelectorEEENS_9ExtensionENS_7ObjHashENS_11ObjEqualityESaISt4pairIKS3_S4_EEE5frontEv W
_ZN4Sass11ordered_mapINS_10SharedImplINS_15ComplexSelectorEEENS_9ExtensionENS_7ObjHashENS_11ObjEqualityESaISt4pairIKS3_S4_EEE6insertERS8_RKS4_ W
_ZN4Sass11ordered_mapINS_10SharedImplINS_15ComplexSelectorEEENS_9ExtensionENS_7ObjHashENS_11ObjEqualityESaISt4pairIKS3_S4_EEEC1ERKSB_ W
_ZN4Sass11ordered_mapINS_10SharedImplINS_15ComplexSelectorEEENS_9ExtensionENS_7ObjHashENS_11ObjEqualityESaISt4pairIKS3_S4_EEEC1Ev W
_ZN4Sass11ordered_mapINS_10SharedImplINS_15ComplexSelectorEEENS_9ExtensionENS_7ObjHashENS_11ObjEqualityESaISt4pairIKS3_S4_EEEC2ERKSB_ W
_ZN4Sass11ordered_mapINS_10SharedImplINS_15ComplexSelectorEEENS_9ExtensionENS_7ObjHashENS_11ObjEqualityESaISt4pairIKS3_S4_EEEC2Ev W
_ZN4Sass11ordered_mapINS_10SharedImplINS_15ComplexSelectorEEENS_9ExtensionENS_7ObjHashENS_11ObjEqualityESaISt4pairIKS3_S4_EEED1Ev W
_ZN4Sass11ordered_mapINS_10SharedImplINS_15ComplexSelectorEEENS_9ExtensionENS_7ObjHashENS_11ObjEqualityESaISt4pairIKS3_S4_EEED2Ev W
_ZN4Sass11sass_strtodEPKc T
_ZN4Sass11starts_withERKNSt7__cxx1112basic_stringIcSt11char_traitsIcESaIcEEEPKc W
_ZN4Sass11starts_withERKNSt7__cxx1112basic_stringIcSt11char_traitsIcESaIcEEEPKcm W
_ZN4Sass12CheckNesting10is_charsetEPNS_9StatementE T
_ZN4Sass12CheckNesting11is_functionEPNS_9StatementE T
_ZN4Sass12CheckNesting12is_root_nodeEPNS_9StatementE T
_ZN4Sass12CheckNesting12should_visitEPNS_9StatementE T
_ZN4Sass12CheckNesting14visit_childrenEPNS_9StatementE T
_ZN4Sass12CheckNesting15is_at_root_nodeEPNS_9StatementE T
_ZN4Sass12CheckNesting17is_directive_nodeEPNS_9StatementE T
_ZN4Sass12CheckNesting18invalid_prop_childEPNS_9StatementE T
_ZN4Sass12CheckNesting19invalid_prop_parentEPNS_9StatementEPNS_8AST_NodeE T
_ZN4Sass12CheckNesting19invalid_value_childEPNS_8AST_NodeE T
_ZN4Sass12CheckNesting21invalid_extend_parentEPNS_9StatementEPNS_8AST_NodeE T
_ZN4Sass12CheckNesting21invalid_return_parentEPNS_9StatementEPNS_8AST_NodeE T
_ZN4Sass12CheckNesting21is_transparent_parentEPNS_9StatementES2_ T
_ZN4Sass12CheckNesting22invalid_charset_parentEPNS_9StatementEPNS_8AST_NodeE T
_ZN4Sass12CheckNesting22invalid_content_parentEPNS_9StatementEPNS_8AST_NodeE T
_ZN4Sass12CheckNesting22invalid_function_childEPNS_9StatementE T
_ZN4Sass12CheckNesting23invalid_function_parentEPNS_9StatementEPNS_8AST_NodeE T
_ZN4Sass12CheckNesting31invalid_mixin_definition_parentEPNS_9StatementEPNS_8AST_NodeE T
_ZN4Sass12CheckNesting8fallbackIPNS_10AssignmentEEEPNS_9StatementET_ W
_ZN4Sass12CheckNesting8fallbackIPNS_10AtRootRuleEEEPNS_9StatementET_ W
_ZN4Sass12CheckNesting8fallbackIPNS_10Color_HSLAEEEPNS_9StatementET_ W
_ZN4Sass12CheckNesting8fallbackIPNS_10Color_RGBAEEEPNS_9StatementET_ W
_ZN4Sass12CheckNesting8fallbackIPNS_10DefinitionEEEPNS_9StatementET_ W
_ZN4Sass12CheckNesting8fallbackIPNS_10ExtendRuleEEEPNS_9StatementET_ W
_ZN4Sass12CheckNesting8fallbackIPNS_10IDSelectorEEEPNS_9StatementET_ W
_ZN4Sass12CheckNesting8fallbackIPNS_10Mixin_CallEEEPNS_9StatementET_ W
_ZN4Sass12CheckNesting8fallbackIPNS_10ParametersEEEPNS_9StatementET_ W
_ZN4Sass12CheckNesting8fallbackIPNS_11DeclarationEEEPNS_9StatementET_ W
_ZN4Sass12CheckNesting8fallbackIPNS_11Import_StubEEEPNS_9StatementET_ W
_ZN4Sass12CheckNesting8fallbackIPNS_11Media_QueryEEEPNS_9StatementET_ W
_ZN4Sass12CheckNesting8fallbackIPNS_11WarningRuleEEEPNS_9StatementET_ W
_ZN4Sass12CheckNesting8fallbackIPNS_12CssMediaRuleEEEPNS_9StatementET_ W
_ZN4Sass12CheckNesting8fallbackIPNS_12Custom_ErrorEEEPNS_9StatementET_ W
_ZN4Sass12CheckNesting8fallbackIPNS_12SelectorListEEEPNS_9StatementET_ W
_ZN4Sass12CheckNesting8fallbackIPNS_12SupportsRuleEEEPNS_9StatementET_ W
_ZN4Sass12CheckNesting8fallbackIPNS_12TypeSelectorEEEPNS_9StatementET_ W
_ZN4Sass12CheckNesting8fallbackIPNS_13At_Root_QueryEEEPNS_9StatementET_ W
_ZN4Sass12CheckNesting8fallbackIPNS_13ClassSelectorEEEPNS_9StatementET_ W
_ZN4Sass12CheckNesting8fallbackIPNS_13CssMediaQueryEEEPNS_9StatementET_ W
_ZN4Sass12CheckNesting8fallbackIPNS_13Function_CallEEEPNS_9StatementET_ W
_ZN4Sass12CheckNesting8fallbackIPNS_13Keyframe_RuleEEEPNS_9StatementET_ W
_ZN4Sass12CheckNesting8fallbackIPNS_13String_QuotedEEEPNS_9StatementET_ W
_ZN4Sass12CheckNesting8fallbackIPNS_13String_SchemaEEEPNS_9StatementET_ W
_ZN4Sass12CheckNesting8fallbackIPNS_14Custom_WarningEEEPNS_9StatementET_ W
_ZN4Sass12CheckNesting8fallbackIPNS_14PseudoSelectorEEEPNS_9StatementET_ W
_ZN4Sass12CheckNesting8fallbackIPNS_15ComplexSelectorEEEPNS_9StatementET_ W
_ZN4Sass12CheckNesting8fallbackIPNS_15Selector_SchemaEEEPNS_9StatementET_ W
_ZN4Sass12CheckNesting8fallbackIPNS_15String_ConstantEEEPNS_9StatementET_ W
_ZN4Sass12CheckNesting8fallbackIPNS_16CompoundSelectorEEEPNS_9StatementET_ W
_ZN4Sass12CheckNesting8fallbackIPNS_16Parent_ReferenceEEEPNS_9StatementET_ W
_ZN4Sass12CheckNesting8fallbackIPNS_16SupportsNegationEEEPNS_9StatementET_ W
_ZN4Sass12CheckNesting8fallbackIPNS_16Unary_ExpressionEEEPNS_9StatementET_ W
_ZN4Sass12CheckNesting8fallbackIPNS_17AttributeSelectorEEEPNS_9StatementET_ W
_ZN4Sass12CheckNesting8fallbackIPNS_17Binary_ExpressionEEEPNS_9StatementET_ W
_ZN4Sass12CheckNesting8fallbackIPNS_17SelectorComponentEEEPNS_9StatementET_ W
_ZN4Sass12CheckNesting8fallbackIPNS_17SupportsConditionEEEPNS_9StatementET_ W
_ZN4Sass12CheckNesting8fallbackIPNS_17SupportsOperationEEEPNS_9StatementET_ W
_ZN4Sass12CheckNesting8fallbackIPNS_18SelectorCombinatorEEEPNS_9StatementET_ W
_ZN4Sass12CheckNesting8fallbackIPNS_19PlaceholderSelectorEEEPNS_9StatementET_ W
_ZN4Sass12CheckNesting8fallbackIPNS_19SupportsDeclarationEEEPNS_9StatementET_ W
_ZN4Sass12CheckNesting8fallbackIPNS_22Media_Query_ExpressionEEEPNS_9StatementET_ W
_ZN4Sass12CheckNesting8fallbackIPNS_22Supports_InterpolationEEEPNS_9StatementET_ W
_ZN4Sass12CheckNesting8fallbackIPNS_2IfEEEPNS_9StatementET_ W
_ZN4Sass12CheckNesting8fallbackIPNS_3MapEEEPNS_9StatementET_ W
_ZN4Sass12CheckNesting8fallbackIPNS_4ListEEEPNS_9StatementET_ W
_ZN4Sass12CheckNesting8fallbackIPNS_4NullEEEPNS_9StatementET_ W
_ZN4Sass12CheckNesting8fallbackIPNS_5BlockEEEPNS_9StatementET_ W
_ZN4Sass12CheckNesting8fallbackIPNS_5ColorEEEPNS_9StatementET_ W
_ZN4Sass12CheckNesting8fallbackIPNS_5TraceEEEPNS_9StatementET_ W
_ZN4Sass12CheckNesting8fallbackIPNS_6AtRuleEEEPNS_9StatementET_ W
_ZN4Sass12CheckNesting8fallbackIPNS_6BubbleEEEPNS_9StatementET_ W
_ZN4Sass12CheckNesting8fallbackIPNS_6ImportEEEPNS_9StatementET_ W
_ZN4Sass12CheckNesting8fallbackIPNS_6NumberEEEPNS_9StatementET_ W
_ZN4Sass12CheckNesting8fallbackIPNS_6ReturnEEEPNS_9StatementET_ W
_ZN4Sass12CheckNesting8fallbackIPNS_7BooleanEEEPNS_9StatementET_ W
_ZN4Sass12CheckNesting8fallbackIPNS_7CommentEEEPNS_9StatementET_ W
_ZN4Sass12CheckNesting8fallbackIPNS_7ContentEEEPNS_9StatementET_ W
_ZN4Sass12CheckNesting8fallbackIPNS_7ForRuleEEEPNS_9StatementET_ W
_ZN4Sass12CheckNesting8fallbackIPNS_8AST_NodeEEEPNS_9StatementET_ W
_ZN4Sass12CheckNesting8fallbackIPNS_8ArgumentEEEPNS_9StatementET_ W
_ZN4Sass12CheckNesting8fallbackIPNS_8EachRuleEEEPNS_9StatementET_ W
_ZN4Sass12CheckNesting8fallbackIPNS_8FunctionEEEPNS_9StatementET_ W
_ZN4Sass12CheckNesting8fallbackIPNS_8VariableEEEPNS_9StatementET_ W
_ZN4Sass12CheckNesting8fallbackIPNS_9ArgumentsEEEPNS_9StatementET_ W
_ZN4Sass12CheckNesting8fallbackIPNS_9DebugRuleEEEPNS_9StatementET_ W
_ZN4Sass12CheckNesting8fallbackIPNS_9ErrorRuleEEEPNS_9StatementET_ W
_ZN4Sass12CheckNesting8fallbackIPNS_9MediaRuleEEEPNS_9StatementET_ W
_ZN4Sass12CheckNesting8fallbackIPNS_9ParameterEEEPNS_9StatementET_ W
_ZN4Sass12CheckNesting8fallbackIPNS_9StyleRuleEEEPNS_9StatementET_ W
_ZN4Sass12CheckNesting8fallbackIPNS_9WhileRuleEEEPNS_9StatementET_ W
_ZN4Sass12CheckNesting8is_mixinEPNS_9StatementE T
_ZN4Sass12CheckNestingC1Ev T
_ZN4Sass12CheckNestingC2Ev T
_ZN4Sass12CheckNestingD1Ev W
_ZN4Sass12CheckNestingD2Ev W
_ZN4Sass12CheckNestingclEPNS_10DefinitionE T
_ZN4Sass12CheckNestingclEPNS_2IfE T
_ZN4Sass12CheckNestingclEPNS_5BlockE T
_ZN4Sass12CssMediaRule7bubblesEv W
_ZN4Sass12CssMediaRule7performEPNS_9OperationINSt7__cxx1112basic_stringIcSt11char_traitsIcESaIcEEEEE W
_ZN4Sass12CssMediaRule7performEPNS_9OperationIP10Sass_ValueEE W
_ZN4Sass12CssMediaRule7performEPNS_9OperationIPNS_10ExpressionEEE W
_ZN4Sass12CssMediaRule7performEPNS_9OperationIPNS_17SupportsConditionEEE W
_ZN4Sass12CssMediaRule7performEPNS_9OperationIPNS_5ValueEEE W
_ZN4Sass12CssMediaRule7performEPNS_9OperationIPNS_8AST_NodeEEE W
_ZN4Sass12CssMediaRule7performEPNS_9OperationIPNS_8SelectorEEE W
_ZN4Sass12CssMediaRule7performEPNS_9OperationIPNS_9StatementEEE W
_ZN4Sass12CssMediaRule7performEPNS_9OperationIvEE W
_ZN4Sass12CssMediaRuleC1ENS_10SourceSpanENS_10SharedImplINS_5BlockEEE T
_ZN4Sass12CssMediaRuleC1EPKS0_ T
_ZN4Sass12CssMediaRuleC2ENS_10SourceSpanENS_10SharedImplINS_5BlockEEE T
_ZN4Sass12CssMediaRuleC2EPKS0_ T
_ZN4Sass12CssMediaRuleD0Ev W
_ZN4Sass12CssMediaRuleD1Ev W
_ZN4Sass12CssMediaRuleD2Ev W
_ZN4Sass12Custom_Error7performEPNS_9OperationINSt7__cxx1112basic_stringIcSt11char_traitsIcESaIcEEEEE W
_ZN4Sass12Custom_Error7performEPNS_9OperationIP10Sass_ValueEE W
_ZN4Sass12Custom_Error7performEPNS_9OperationIPNS_10ExpressionEEE W
_ZN4Sass12Custom_Error7performEPNS_9OperationIPNS_17SupportsConditionEEE W
_ZN4Sass12Custom_Error7performEPNS_9OperationIPNS_5ValueEEE W
_ZN4Sass12Custom_Error7performEPNS_9OperationIPNS_8AST_NodeEEE W
_ZN4Sass12Custom_Error7performEPNS_9OperationIPNS_8SelectorEEE W
_ZN4Sass12Custom_Error7performEPNS_9OperationIPNS_9StatementEEE W
_ZN4Sass12Custom_Error7performEPNS_9OperationIvEE W
_ZN4Sass12Custom_ErrorC1ENS_10SourceSpanENSt7__cxx1112basic_stringIcSt11char_traitsIcESaIcEEE T
_ZN4Sass12Custom_ErrorC1EPKS0_ T
_ZN4Sass12Custom_ErrorC2ENS_10SourceSpanENSt7__cxx1112basic_stringIcSt11char_traitsIcESaIcEEE T
_ZN4Sass12Custom_ErrorC2EPKS0_ T
_ZN4Sass12Custom_ErrorD0Ev W
_ZN4Sass12Custom_ErrorD1Ev W
_ZN4Sass12Custom_ErrorD2Ev W
_ZN4Sass12Data_Context5parseEv T
_ZN4Sass12Data_ContextC1ER17Sass_Data_Context W
_ZN4Sass12Data_ContextC2ER17Sass_Data_Context W
_ZN4Sass12Data_ContextD0Ev T
_ZN4Sass12Data_ContextD1Ev T
_ZN4Sass12Data_ContextD2Ev T
_ZN4Sass12File_Context5parseEv T
_ZN4Sass12File_ContextC1ER17Sass_File_Context W
_ZN4Sass12File_ContextC2ER17Sass_File_Context W
_ZN4Sass12File_ContextD0Ev T
_ZN4Sass12File_ContextD1Ev T
_ZN4Sass12File_ContextD2Ev T
_ZN4Sass12ListEqualityISt6vectorINS_10SharedImplINS_17SelectorComponentEEESaIS4_EES6_S3_S3_EEbRKT_RKT0_PFbPKT1_PKT2_E W
_ZN4Sass12ObjPtrHashFnINS_10SharedImplINS_12SelectorListEEEEEmRKT_ W
_ZN4Sass12ObjPtrHashFnINS_10SharedImplINS_14SimpleSelectorEEEEEmRKT_ W
_ZN4Sass12ObjPtrHashFnINS_10SharedImplINS_15ComplexSelectorEEEEEmRKT_ W
_ZN4Sass12OutputBufferC1ERKS0_ W
_ZN4Sass12OutputBufferC1Ev W
_ZN4Sass12OutputBufferC2ERKS0_ W
_ZN4Sass12OutputBufferC2Ev W
_ZN4Sass12OutputBufferD1Ev W
_ZN4Sass12OutputBufferD2Ev W
_ZN4Sass12PtrObjHashFnINS_14SimpleSelectorEEEmPKT_ W
_ZN4Sass12PtrObjHashFnINS_15ComplexSelectorEEEmPKT_ W
_ZN4Sass12SelectorList11is_optionalEb W
_ZN4Sass12SelectorList13cloneChildrenEv T
_ZN4Sass12SelectorList19resolve_parent_refsESt6vectorINS_10SharedImplIS0_EESaIS3_EERS1_INS_9BacktraceESaIS6_EEb T
_ZN4Sass12SelectorList7performEPNS_9OperationINSt7__cxx1112basic_stringIcSt11char_traitsIcESaIcEEEEE W
_ZN4Sass12SelectorList7performEPNS_9OperationIP10Sass_ValueEE W
_ZN4Sass12SelectorList7performEPNS_9OperationIPNS_10ExpressionEEE W
_ZN4Sass12SelectorList7performEPNS_9OperationIPNS_17SupportsConditionEEE W
_ZN4Sass12SelectorList7performEPNS_9OperationIPNS_5ValueEEE W
_ZN4Sass12SelectorList7performEPNS_9OperationIPNS_8AST_NodeEEE W
_ZN4Sass12SelectorList7performEPNS_9OperationIPNS_8SelectorEEE W
_ZN4Sass12SelectorList7performEPNS_9OperationIPNS_9StatementEEE W
_ZN4Sass12SelectorList7performEPNS_9OperationIvEE W
_ZN4Sass12SelectorList9unifyWithEPS0_ T
_ZN4Sass12SelectorListC1ENS_10SourceSpanEm T
_ZN4Sass12SelectorListC1EPKS0_ T
_ZN4Sass12SelectorListC2ENS_10SourceSpanEm T
_ZN4Sass12SelectorListC2EPKS0_ T
_ZN4Sass12SelectorListD0Ev W
_ZN4Sass12SelectorListD1Ev W
_ZN4Sass12SelectorListD2Ev W
_ZN4Sass12SupportsRule7bubblesEv T
_ZN4Sass12SupportsRule7performEPNS_9OperationINSt7__cxx1112basic_stringIcSt11char_traitsIcESaIcEEEEE W
_ZN4Sass12SupportsRule7performEPNS_9OperationIP10Sass_ValueEE W
_ZN4Sass12SupportsRule7performEPNS_9OperationIPNS_10ExpressionEEE W
_ZN4Sass12SupportsRule7performEPNS_9OperationIPNS_17SupportsConditionEEE W
_ZN4Sass12SupportsRule7performEPNS_9OperationIPNS_5ValueEEE W
_ZN4Sass12SupportsRule7performEPNS_9OperationIPNS_8AST_NodeEEE W
_ZN4Sass12SupportsRule7performEPNS_9OperationIPNS_8SelectorEEE W
_ZN4Sass12SupportsRule7performEPNS_9OperationIPNS_9StatementEEE W
_ZN4Sass12SupportsRule7performEPNS_9OperationIvEE W
_ZN4Sass12SupportsRuleC1ENS_10SourceSpanENS_10SharedImplINS_17SupportsConditionEEENS2_INS_5BlockEEE T
_ZN4Sass12SupportsRuleC1EPKS0_ T
_ZN4Sass12SupportsRuleC2ENS_10SourceSpanENS_10SharedImplINS_17SupportsConditionEEENS2_INS_5BlockEEE T
_ZN4Sass12SupportsRuleC2EPKS0_ T
_ZN4Sass12SupportsRuleD0Ev W
_ZN4Sass12SupportsRuleD1Ev W
_ZN4Sass12SupportsRuleD2Ev W
_ZN4Sass12TypeSelector15getTypeSelectorEv W
_ZN4Sass12TypeSelector7performEPNS_9OperationINSt7__cxx1112basic_stringIcSt11char_traitsIcESaIcEEEEE W
_ZN4Sass12TypeSelector7performEPNS_9OperationIP10Sass_ValueEE W
_ZN4Sass12TypeSelector7performEPNS_9OperationIPNS_10ExpressionEEE W
_ZN4Sass12TypeSelector7performEPNS_9OperationIPNS_17SupportsConditionEEE W
_ZN4Sass12TypeSelector7performEPNS_9OperationIPNS_5ValueEEE W
_ZN4Sass12TypeSelector7performEPNS_9OperationIPNS_8AST_NodeEEE W
_ZN4Sass12TypeSelector7performEPNS_9OperationIPNS_8SelectorEEE W
_ZN4Sass12TypeSelector7performEPNS_9OperationIPNS_9StatementEEE W
_ZN4Sass12TypeSelector7performEPNS_9OperationIvEE W
_ZN4Sass12TypeSelector9unifyWithEPKNS_14SimpleSelectorE T
_ZN4Sass12TypeSelector9unifyWithEPNS_16CompoundSelectorE T
_ZN4Sass12TypeSelectorC1ENS_10SourceSpanENSt7__cxx1112basic_stringIcSt11char_traitsIcESaIcEEE T
_ZN4Sass12TypeSelectorC1EPKS0_ T
_ZN4Sass12TypeSelectorC2ENS_10SourceSpanENSt7__cxx1112basic_stringIcSt11char_traitsIcESaIcEEE T
_ZN4Sass12TypeSelectorC2EPKS0_ T
_ZN4Sass12TypeSelectorD0Ev W
_ZN4Sass12TypeSelectorD1Ev W
_ZN4Sass12TypeSelectorD2Ev W
_ZN4Sass12copy_stringsERKSt6vectorINSt7__cxx1112basic_stringIcSt11char_traitsIcESaIcEEESaIS6_EEPPPci T
_ZN4Sass12flattenInnerISt6vectorIS1_INS_10SharedImplINS_17SelectorComponentEEESaIS4_EESaIS6_EEEET_RKS1_IS9_SaIS9_EE W
_ZN4Sass12hash_combineINSt7__cxx1112basic_stringIcSt11char_traitsIcESaIcEEEEEvRmRKT_ W
_ZN4Sass12hash_combineIbEEvRmRKT_ W
_ZN4Sass12hash_combineIiEEvRmRKT_ W
_ZN4Sass12hash_combineImEEvRmRKT_ W
_ZN4Sass12permutateAltINS_10SharedImplINS_15ComplexSelectorEEEEESt6vectorIS4_IT_SaIS5_EESaIS7_EERKS9_ W
_ZN4Sass12unifyComplexERKSt6vectorIS0_INS_10SharedImplINS_17SelectorComponentEEESaIS3_EESaIS5_EE T
_ZN4Sass12weaveParentsESt6vectorINS_10SharedImplINS_17SelectorComponentEEESaIS3_EES5_ T
_ZN4Sass13At_Root_Query7excludeENSt7__cxx1112basic_stringIcSt11char_traitsIcESaIcEEE T
_ZN4Sass13At_Root_Query7performEPNS_9OperationINSt7__cxx1112basic_stringIcSt11char_traitsIcESaIcEEEEE W
_ZN4Sass13At_Root_Query7performEPNS_9OperationIP10Sass_ValueEE W
_ZN4Sass13At_Root_Query7performEPNS_9OperationIPNS_10ExpressionEEE W
_ZN4Sass13At_Root_Query7performEPNS_9OperationIPNS_17SupportsConditionEEE W
_ZN4Sass13At_Root_Query7performEPNS_9OperationIPNS_5ValueEEE W
_ZN4Sass13At_Root_Query7performEPNS_9OperationIPNS_8AST_NodeEEE W
_ZN4Sass13At_Root_Query7performEPNS_9OperationIPNS_8SelectorEEE W
_ZN4Sass13At_Root_Query7performEPNS_9OperationIPNS_9StatementEEE W
_ZN4Sass13At_Root_Query7performEPNS_9OperationIvEE W
_ZN4Sass13At_Root_QueryC1ENS_10SourceSpanENS_10SharedImplINS_10ExpressionEEES4_b T
_ZN4Sass13At_Root_QueryC1EPKS0_ T
_ZN4Sass13At_Root_QueryC2ENS_10SourceSpanENS_10SharedImplINS_10ExpressionEEES4_b T
_ZN4Sass13At_Root_QueryC2EPKS0_ T
_ZN4Sass13At_Root_QueryD0Ev W
_ZN4Sass13At_Root_QueryD1Ev W
_ZN4Sass13At_Root_QueryD2Ev W
_ZN4Sass13BothAreSpacesEcc T
_ZN4Sass13ClassSelector7performEPNS_9OperationINSt7__cxx1112basic_stringIcSt11char_traitsIcESaIcEEEEE W
_ZN4Sass13ClassSelector7performEPNS_9OperationIP10Sass_ValueEE W
_ZN4Sass13ClassSelector7performEPNS_9OperationIPNS_10ExpressionEEE W
_ZN4Sass13ClassSelector7performEPNS_9OperationIPNS_17SupportsConditionEEE W
_ZN4Sass13ClassSelector7performEPNS_9OperationIPNS_5ValueEEE W
_ZN4Sass13ClassSelector7performEPNS_9OperationIPNS_8AST_NodeEEE W
_ZN4Sass13ClassSelector7performEPNS_9OperationIPNS_8SelectorEEE W
_ZN4Sass13ClassSelector7performEPNS_9OperationIPNS_9StatementEEE W
_ZN4Sass13ClassSelector7performEPNS_9OperationIvEE W
_ZN4Sass13ClassSelectorC1ENS_10SourceSpanENSt7__cxx1112basic_stringIcSt11char_traitsIcESaIcEEE T
_ZN4Sass13ClassSelectorC1EPKS0_ T
_ZN4Sass13ClassSelectorC2ENS_10SourceSpanENSt7__cxx1112basic_stringIcSt11char_traitsIcESaIcEEE T
_ZN4Sass13ClassSelectorC2EPKS0_ T
_ZN4Sass13ClassSelectorD0Ev W
_ZN4Sass13ClassSelectorD1Ev W
_ZN4Sass13ClassSelectorD2Ev W
_ZN4Sass13CssMediaQuery4typeENSt7__cxx1112basic_stringIcSt11char_traitsIcESaIcEEE W
_ZN4Sass13CssMediaQuery5mergeERNS_10SharedImplIS0_EE T
_ZN4Sass13CssMediaQuery7performEPNS_9OperationINSt7__cxx1112basic_stringIcSt11char_traitsIcESaIcEEEEE W
_ZN4Sass13CssMediaQuery7performEPNS_9OperationIP10Sass_ValueEE W
_ZN4Sass13CssMediaQuery7performEPNS_9OperationIPNS_10ExpressionEEE W
_ZN4Sass13CssMediaQuery7performEPNS_9OperationIPNS_17SupportsConditionEEE W
_ZN4Sass13CssMediaQuery7performEPNS_9OperationIPNS_5ValueEEE W
_ZN4Sass13CssMediaQuery7performEPNS_9OperationIPNS_8AST_NodeEEE W
_ZN4Sass13CssMediaQuery7performEPNS_9OperationIPNS_8SelectorEEE W
_ZN4Sass13CssMediaQuery7performEPNS_9OperationIPNS_9StatementEEE W
_ZN4Sass13CssMediaQuery7performEPNS_9OperationIvEE W
_ZN4Sass13CssMediaQuery8featuresESt6vectorINSt7__cxx1112basic_stringIcSt11char_traitsIcESaIcEEESaIS7_EE W
_ZN4Sass13CssMediaQuery8modifierENSt7__cxx1112basic_stringIcSt11char_traitsIcESaIcEEE W
_ZN4Sass13CssMediaQueryC1ENS_10SourceSpanE T
_ZN4Sass13CssMediaQueryC1EPKS0_ T
_ZN4Sass13CssMediaQueryC2ENS_10SourceSpanE T
_ZN4Sass13CssMediaQueryC2EPKS0_ T
_ZN4Sass13CssMediaQueryD0Ev W
_ZN4Sass13CssMediaQueryD1Ev W
_ZN4Sass13CssMediaQueryD2Ev W
_ZN4Sass13Function_Call4funcENS_10SharedImplINS_8FunctionEEE W
_ZN4Sass13Function_Call6is_cssEv T
_ZN4Sass13Function_Call7performEPNS_9OperationINSt7__cxx1112basic_stringIcSt11char_traitsIcESaIcEEEEE W
_ZN4Sass13Function_Call7performEPNS_9OperationIP10Sass_ValueEE W
_ZN4Sass13Function_Call7performEPNS_9OperationIPNS_10ExpressionEEE W
_ZN4Sass13Function_Call7performEPNS_9OperationIPNS_17SupportsConditionEEE W
_ZN4Sass13Function_Call7performEPNS_9OperationIPNS_5ValueEEE W
_ZN4Sass13Function_Call7performEPNS_9OperationIPNS_8AST_NodeEEE W
_ZN4Sass13Function_Call7performEPNS_9OperationIPNS_8SelectorEEE W
_ZN4Sass13Function_Call7performEPNS_9OperationIPNS_9StatementEEE W
_ZN4Sass13Function_Call7performEPNS_9OperationIvEE W
_ZN4Sass13Function_Call8via_callEb W
_ZN4Sass13Function_CallC1ENS_10SourceSpanENS_10SharedImplINS_6StringEEENS2_INS_9ArgumentsEEE T
_ZN4Sass13Function_CallC1ENS_10SourceSpanENS_10SharedImplINS_6StringEEENS2_INS_9ArgumentsEEENS2_INS_8FunctionEEE T
_ZN4Sass13Function_CallC1ENS_10SourceSpanENS_10SharedImplINS_6StringEEENS2_INS_9ArgumentsEEEPv T
_ZN4Sass13Function_CallC1ENS_10SourceSpanENSt7__cxx1112basic_stringIcSt11char_traitsIcESaIcEEENS_10SharedImplINS_9ArgumentsEEE T
_ZN4Sass13Function_CallC1ENS_10SourceSpanENSt7__cxx1112basic_stringIcSt11char_traitsIcESaIcEEENS_10SharedImplINS_9ArgumentsEEENS8_INS_8FunctionEEE T
_ZN4Sass13Function_CallC1ENS_10SourceSpanENSt7__cxx1112basic_stringIcSt11char_traitsIcESaIcEEENS_10SharedImplINS_9ArgumentsEEEPv T
_ZN4Sass13Function_CallC1EPKS0_ T
_ZN4Sass13Function_CallC2ENS_10SourceSpanENS_10SharedImplINS_6StringEEENS2_INS_9ArgumentsEEE T
_ZN4Sass13Function_CallC2ENS_10SourceSpanENS_10SharedImplINS_6StringEEENS2_INS_9ArgumentsEEENS2_INS_8FunctionEEE T
_ZN4Sass13Function_CallC2ENS_10SourceSpanENS_10SharedImplINS_6StringEEENS2_INS_9ArgumentsEEEPv T
_ZN4Sass13Function_CallC2ENS_10SourceSpanENSt7__cxx1112basic_stringIcSt11char_traitsIcESaIcEEENS_10SharedImplINS_9ArgumentsEEE T
_ZN4Sass13Function_CallC2ENS_10SourceSpanENSt7__cxx1112basic_stringIcSt11char_traitsIcESaIcEEENS_10SharedImplINS_9ArgumentsEEENS8_INS_8FunctionEEE T
_ZN4Sass13Function_CallC2ENS_10SourceSpanENSt7__cxx1112basic_stringIcSt11char_traitsIcESaIcEEENS_10SharedImplINS_9ArgumentsEEEPv T
_ZN4Sass13Function_CallC2EPKS0_ T
_ZN4Sass13Function_CallD0Ev W
_ZN4Sass13Function_CallD1Ev W
_ZN4Sass13Function_CallD2Ev W
_ZN4Sass13Keyframe_Rule4nameENS_10SharedImplINS_12SelectorListEEE W
_ZN4Sass13Keyframe_Rule7performEPNS_9OperationINSt7__cxx1112basic_stringIcSt11char_traitsIcESaIcEEEEE W
_ZN4Sass13Keyframe_Rule7performEPNS_9OperationIP10Sass_ValueEE W
_ZN4Sass13Keyframe_Rule7performEPNS_9OperationIPNS_10ExpressionEEE W
_ZN4Sass13Keyframe_Rule7performEPNS_9OperationIPNS_17SupportsConditionEEE W
_ZN4Sass13Keyframe_Rule7performEPNS_9OperationIPNS_5ValueEEE W
_ZN4Sass13Keyframe_Rule7performEPNS_9OperationIPNS_8AST_NodeEEE W
_ZN4Sass13Keyframe_Rule7performEPNS_9OperationIPNS_8SelectorEEE W
_ZN4Sass13Keyframe_Rule7performEPNS_9OperationIPNS_9StatementEEE W
_ZN4Sass13Keyframe_Rule7performEPNS_9OperationIvEE W
_ZN4Sass13Keyframe_RuleC1ENS_10SourceSpanENS_10SharedImplINS_5BlockEEE T
_ZN4Sass13Keyframe_RuleC1EPKS0_ T
_ZN4Sass13Keyframe_RuleC2ENS_10SourceSpanENS_10SharedImplINS_5BlockEEE T
_ZN4Sass13Keyframe_RuleC2EPKS0_ T
_ZN4Sass13Keyframe_RuleD0Ev W
_ZN4Sass13Keyframe_RuleD1Ev W
_ZN4Sass13Keyframe_RuleD2Ev W
_ZN4Sass13ObjEqualityFnINS_10SharedImplINS_10ExpressionEEEEEbRKT_S6_ W
_ZN4Sass13ObjEqualityFnINS_10SharedImplINS_12CssMediaRuleEEEEEbRKT_S6_ W
_ZN4Sass13ObjEqualityFnINS_10SharedImplINS_12SelectorListEEEEEbRKT_S6_ W
_ZN4Sass13ObjEqualityFnINS_10SharedImplINS_13CssMediaQueryEEEEEbRKT_S6_ W
_ZN4Sass13ObjEqualityFnINS_10SharedImplINS_14PseudoSelectorEEEEEbRKT_S6_ W
_ZN4Sass13ObjEqualityFnINS_10SharedImplINS_14SimpleSelectorEEEEEbRKT_S6_ W
_ZN4Sass13ObjEqualityFnINS_10SharedImplINS_15ComplexSelectorEEEEEbRKT_S6_ W
_ZN4Sass13ObjEqualityFnINS_10SharedImplINS_17SelectorComponentEEEEEbRKT_S6_ W
_ZN4Sass13ObjEqualityFnINS_10SharedImplINS_6StringEEEEEbRKT_S6_ W
_ZN4Sass13PtrEqualityFnINS_12SelectorListEEEbPKT_S4_ W
_ZN4Sass13PtrEqualityFnINS_14SimpleSelectorEEEbPKT_S4_ W
_ZN4Sass13PtrEqualityFnINS_15ComplexSelectorEEEbPKT_S4_ W
_ZN4Sass13PtrEqualityFnINS_5BlockEEEbPKT_S4_ W
_ZN4Sass13String_Quoted7performEPNS_9OperationINSt7__cxx1112basic_stringIcSt11char_traitsIcESaIcEEEEE W
_ZN4Sass13String_Quoted7performEPNS_9OperationIP10Sass_ValueEE W
_ZN4Sass13String_Quoted7performEPNS_9OperationIPNS_10ExpressionEEE W
_ZN4Sass13String_Quoted7performEPNS_9OperationIPNS_17SupportsConditionEEE W
_ZN4Sass13String_Quoted7performEPNS_9OperationIPNS_5ValueEEE W
_ZN4Sass13String_Quoted7performEPNS_9OperationIPNS_8AST_NodeEEE W
_ZN4Sass13String_Quoted7performEPNS_9OperationIPNS_8SelectorEEE W
_ZN4Sass13String_Quoted7performEPNS_9OperationIPNS_9StatementEEE W
_ZN4Sass13String_Quoted7performEPNS_9OperationIvEE W
_ZN4Sass13String_QuotedC1ENS_10SourceSpanENSt7__cxx1112basic_stringIcSt11char_traitsIcESaIcEEEcbbbb T
_ZN4Sass13String_QuotedC1EPKS0_ T
_ZN4Sass13String_QuotedC2ENS_10SourceSpanENSt7__cxx1112basic_stringIcSt11char_traitsIcESaIcEEEcbbbb T
_ZN4Sass13String_QuotedC2EPKS0_ T
_ZN4Sass13String_QuotedD0Ev W
_ZN4Sass13String_QuotedD1Ev W
_ZN4Sass13String_QuotedD2Ev W
_ZN4Sass13String_Schema11set_delayedEb T
_ZN4Sass13String_Schema16has_interpolantsEv T
_ZN4Sass13String_Schema5rtrimEv T
_ZN4Sass13String_Schema7performEPNS_9OperationINSt7__cxx1112basic_stringIcSt11char_traitsIcESaIcEEEEE W
_ZN4Sass13String_Schema7performEPNS_9OperationIP10Sass_ValueEE W
_ZN4Sass13String_Schema7performEPNS_9OperationIPNS_10ExpressionEEE W
_ZN4Sass13String_Schema7performEPNS_9OperationIPNS_17SupportsConditionEEE W
_ZN4Sass13String_Schema7performEPNS_9OperationIPNS_5ValueEEE W
_ZN4Sass13String_Schema7performEPNS_9OperationIPNS_8AST_NodeEEE W
_ZN4Sass13String_Schema7performEPNS_9OperationIPNS_8SelectorEEE W
_ZN4Sass13String_Schema7performEPNS_9OperationIPNS_9StatementEEE W
_ZN4Sass13String_Schema7performEPNS_9OperationIvEE W
_ZN4Sass13String_SchemaC1ENS_10SourceSpanEmb T
_ZN4Sass13String_SchemaC1EPKS0_ T
_ZN4Sass13String_SchemaC2ENS_10SourceSpanEmb T
_ZN4Sass13String_SchemaC2EPKS0_ T
_ZN4Sass13String_SchemaD0Ev W
_ZN4Sass13String_SchemaD1Ev W
_ZN4Sass13String_SchemaD2Ev W
_ZN4Sass13color_to_nameERKNS_10Color_RGBAE T
_ZN4Sass13color_to_nameEd T
_ZN4Sass13color_to_nameEi T
_ZN4Sass13compatibilityEPKc W
_ZN4Sass13convert_unitsERKNSt7__cxx1112basic_stringIcSt11char_traitsIcESaIcEEES7_RiS8_ T
_ZN4Sass13escape_stringERKNSt7__cxx1112basic_stringIcSt11char_traitsIcESaIcEEE T
_ZN4Sass13get_main_unitENS_9UnitClassE T
_ZN4Sass13get_unit_typeENS_8UnitTypeE T
_ZN4Sass13name_to_colorEPKc T
_ZN4Sass13name_to_colorERKNSt7__cxx1112basic_stringIcSt11char_traitsIcESaIcEEE T
_ZN4Sass13peek_linefeedEPKc T
_ZN4Sass13unit_to_classERKNSt7__cxx1112basic_stringIcSt11char_traitsIcESaIcEEE T
_ZN4Sass14Custom_Warning7performEPNS_9OperationINSt7__cxx1112basic_stringIcSt11char_traitsIcESaIcEEEEE W
_ZN4Sass14Custom_Warning7performEPNS_9OperationIP10Sass_ValueEE W
_ZN4Sass14Custom_Warning7performEPNS_9OperationIPNS_10ExpressionEEE W
_ZN4Sass14Custom_Warning7performEPNS_9OperationIPNS_17SupportsConditionEEE W
_ZN4Sass14Custom_Warning7performEPNS_9OperationIPNS_5ValueEEE W
_ZN4Sass14Custom_Warning7performEPNS_9OperationIPNS_8AST_NodeEEE W
_ZN4Sass14Custom_Warning7performEPNS_9OperationIPNS_8SelectorEEE W
_ZN4Sass14Custom_Warning7performEPNS_9OperationIPNS_9StatementEEE W
_ZN4Sass14Custom_Warning7performEPNS_9OperationIvEE W
_ZN4Sass14Custom_WarningC1ENS_10SourceSpanENSt7__cxx1112basic_stringIcSt11char_traitsIcESaIcEEE T
_ZN4Sass14Custom_WarningC1EPKS0_ T
_ZN4Sass14Custom_WarningC2ENS_10SourceSpanENSt7__cxx1112basic_stringIcSt11char_traitsIcESaIcEEE T
_ZN4Sass14Custom_WarningC2EPKS0_ T
_ZN4Sass14Custom_WarningD0Ev W
_ZN4Sass14Custom_WarningD1Ev W
_ZN4Sass14Custom_WarningD2Ev W
_ZN4Sass14Operation_CRTPIP10Sass_ValueNS_5AST2CEEC1Ev W
_ZN4Sass14Operation_CRTPIP10Sass_ValueNS_5AST2CEEC2Ev W
_ZN4Sass14Operation_CRTPIP10Sass_ValueNS_5AST2CEEclEPNS_10AssignmentE W
_ZN4Sass14Operation_CRTPIP10Sass_ValueNS_5AST2CEEclEPNS_10AtRootRuleE W
_ZN4Sass14Operation_CRTPIP10Sass_ValueNS_5AST2CEEclEPNS_10Color_HSLAE W
_ZN4Sass14Operation_CRTPIP10Sass_ValueNS_5AST2CEEclEPNS_10Color_RGBAE W
_ZN4Sass14Operation_CRTPIP10Sass_ValueNS_5AST2CEEclEPNS_10DefinitionE W
_ZN4Sass14Operation_CRTPIP10Sass_ValueNS_5AST2CEEclEPNS_10ExtendRuleE W
_ZN4Sass14Operation_CRTPIP10Sass_ValueNS_5AST2CEEclEPNS_10IDSelectorE W
_ZN4Sass14Operation_CRTPIP10Sass_ValueNS_5AST2CEEclEPNS_10Mixin_CallE W
_ZN4Sass14Operation_CRTPIP10Sass_ValueNS_5AST2CEEclEPNS_10ParametersE W
_ZN4Sass14Operation_CRTPIP10Sass_ValueNS_5AST2CEEclEPNS_11DeclarationE W
_ZN4Sass14Operation_CRTPIP10Sass_ValueNS_5AST2CEEclEPNS_11Import_StubE W
_ZN4Sass14Operation_CRTPIP10Sass_ValueNS_5AST2CEEclEPNS_11Media_QueryE W
_ZN4Sass14Operation_CRTPIP10Sass_ValueNS_5AST2CEEclEPNS_11WarningRuleE W
_ZN4Sass14Operation_CRTPIP10Sass_ValueNS_5AST2CEEclEPNS_12CssMediaRuleE W
_ZN4Sass14Operation_CRTPIP10Sass_ValueNS_5AST2CEEclEPNS_12Custom_ErrorE W
_ZN4Sass14Operation_CRTPIP10Sass_ValueNS_5AST2CEEclEPNS_12SelectorListE W
_ZN4Sass14Operation_CRTPIP10Sass_ValueNS_5AST2CEEclEPNS_12SupportsRuleE W
_ZN4Sass14Operation_CRTPIP10Sass_ValueNS_5AST2CEEclEPNS_12TypeSelectorE W
_ZN4Sass14Operation_CRTPIP10Sass_ValueNS_5AST2CEEclEPNS_13At_Root_QueryE W
_ZN4Sass14Operation_CRTPIP10Sass_ValueNS_5AST2CEEclEPNS_13ClassSelectorE W
_ZN4Sass14Operation_CRTPIP10Sass_ValueNS_5AST2CEEclEPNS_13CssMediaQueryE W
_ZN4Sass14Operation_CRTPIP10Sass_ValueNS_5AST2CEEclEPNS_13Function_CallE W
_ZN4Sass14Operation_CRTPIP10Sass_ValueNS_5AST2CEEclEPNS_13Keyframe_RuleE W
_ZN4Sass14Operation_CRTPIP10Sass_ValueNS_5AST2CEEclEPNS_13String_QuotedE W
_ZN4Sass14Operation_CRTPIP10Sass_ValueNS_5AST2CEEclEPNS_13String_SchemaE W
_ZN4Sass14Operation_CRTPIP10Sass_ValueNS_5AST2CEEclEPNS_14Custom_WarningE W
_ZN4Sass14Operation_CRTPIP10Sass_ValueNS_5AST2CEEclEPNS_14PseudoSelectorE W
_ZN4Sass14Operation_CRTPIP10Sass_ValueNS_5AST2CEEclEPNS_15ComplexSelectorE W
_ZN4Sass14Operation_CRTPIP10Sass_ValueNS_5AST2CEEclEPNS_15Selector_SchemaE W
_ZN4Sass14Operation_CRTPIP10Sass_ValueNS_5AST2CEEclEPNS_15String_ConstantE W
_ZN4Sass14Operation_CRTPIP10Sass_ValueNS_5AST2CEEclEPNS_16CompoundSelectorE W
_ZN4Sass14Operation_CRTPIP10Sass_ValueNS_5AST2CEEclEPNS_16Parent_ReferenceE W
_ZN4Sass14Operation_CRTPIP10Sass_ValueNS_5AST2CEEclEPNS_16SupportsNegationE W
_ZN4Sass14Operation_CRTPIP10Sass_ValueNS_5AST2CEEclEPNS_16Unary_ExpressionE W
_ZN4Sass14Operation_CRTPIP10Sass_ValueNS_5AST2CEEclEPNS_17AttributeSelectorE W
_ZN4Sass14Operation_CRTPIP10Sass_ValueNS_5AST2CEEclEPNS_17Binary_ExpressionE W
_ZN4Sass14Operation_CRTPIP10Sass_ValueNS_5AST2CEEclEPNS_17SelectorComponentE W
_ZN4Sass14Operation_CRTPIP10Sass_ValueNS_5AST2CEEclEPNS_17SupportsConditionE W
_ZN4Sass14Operation_CRTPIP10Sass_ValueNS_5AST2CEEclEPNS_17SupportsOperationE W
_ZN4Sass14Operation_CRTPIP10Sass_ValueNS_5AST2CEEclEPNS_18SelectorCombinatorE W
_ZN4Sass14Operation_CRTPIP10Sass_ValueNS_5AST2CEEclEPNS_19PlaceholderSelectorE W
_ZN4Sass14Operation_CRTPIP10Sass_ValueNS_5AST2CEEclEPNS_19SupportsDeclarationE W
_ZN4Sass14Operation_CRTPIP10Sass_ValueNS_5AST2CEEclEPNS_22Media_Query_ExpressionE W
_ZN4Sass14Operation_CRTPIP10Sass_ValueNS_5AST2CEEclEPNS_22Supports_InterpolationE W
_ZN4Sass14Operation_CRTPIP10Sass_ValueNS_5AST2CEEclEPNS_2IfE W
_ZN4Sass14Operation_CRTPIP10Sass_ValueNS_5AST2CEEclEPNS_3MapE W
_ZN4Sass14Operation_CRTPIP10Sass_ValueNS_5AST2CEEclEPNS_4ListE W
_ZN4Sass14Operation_CRTPIP10Sass_ValueNS_5AST2CEEclEPNS_4NullE W
_ZN4Sass14Operation_CRTPIP10Sass_ValueNS_5AST2CEEclEPNS_5BlockE W
_ZN4Sass14Operation_CRTPIP10Sass_ValueNS_5AST2CEEclEPNS_5ColorE W
_ZN4Sass14Operation_CRTPIP10Sass_ValueNS_5AST2CEEclEPNS_5TraceE W
_ZN4Sass14Operation_CRTPIP10Sass_ValueNS_5AST2CEEclEPNS_6AtRuleE W
_ZN4Sass14Operation_CRTPIP10Sass_ValueNS_5AST2CEEclEPNS_6BubbleE W
_ZN4Sass14Operation_CRTPIP10Sass_ValueNS_5AST2CEEclEPNS_6ImportE W
_ZN4Sass14Operation_CRTPIP10Sass_ValueNS_5AST2CEEclEPNS_6NumberE W
_ZN4Sass14Operation_CRTPIP10Sass_ValueNS_5AST2CEEclEPNS_6ReturnE W
_ZN4Sass14Operation_CRTPIP10Sass_ValueNS_5AST2CEEclEPNS_7BooleanE W
_ZN4Sass14Operation_CRTPIP10Sass_ValueNS_5AST2CEEclEPNS_7CommentE W
_ZN4Sass14Operation_CRTPIP10Sass_ValueNS_5AST2CEEclEPNS_7ContentE W
_ZN4Sass14Operation_CRTPIP10Sass_ValueNS_5AST2CEEclEPNS_7ForRuleE W
_ZN4Sass14Operation_CRTPIP10Sass_ValueNS_5AST2CEEclEPNS_8AST_NodeE W
_ZN4Sass14Operation_CRTPIP10Sass_ValueNS_5AST2CEEclEPNS_8ArgumentE W
_ZN4Sass14Operation_CRTPIP10Sass_ValueNS_5AST2CEEclEPNS_8EachRuleE W
_ZN4Sass14Operation_CRTPIP10Sass_ValueNS_5AST2CEEclEPNS_8FunctionE W
_ZN4Sass14Operation_CRTPIP10Sass_ValueNS_5AST2CEEclEPNS_8VariableE W
_ZN4Sass14Operation_CRTPIP10Sass_ValueNS_5AST2CEEclEPNS_9ArgumentsE W
_ZN4Sass14Operation_CRTPIP10Sass_ValueNS_5AST2CEEclEPNS_9DebugRuleE W
_ZN4Sass14Operation_CRTPIP10Sass_ValueNS_5AST2CEEclEPNS_9ErrorRuleE W
_ZN4Sass14Operation_CRTPIP10Sass_ValueNS_5AST2CEEclEPNS_9MediaRuleE W
_ZN4Sass14Operation_CRTPIP10Sass_ValueNS_5AST2CEEclEPNS_9ParameterE W
_ZN4Sass14Operation_CRTPIP10Sass_ValueNS_5AST2CEEclEPNS_9StyleRuleE W
_ZN4Sass14Operation_CRTPIP10Sass_ValueNS_5AST2CEEclEPNS_9WhileRuleE W
_ZN4Sass14Operation_CRTPIPNS_10ExpressionENS_4EvalEEC1Ev W
_ZN4Sass14Operation_CRTPIPNS_10ExpressionENS_4EvalEEC2Ev W
_ZN4Sass14Operation_CRTPIPNS_10ExpressionENS_4EvalEEclEPNS_10AssignmentE W
_ZN4Sass14Operation_CRTPIPNS_10ExpressionENS_4EvalEEclEPNS_10AtRootRuleE W
_ZN4Sass14Operation_CRTPIPNS_10ExpressionENS_4EvalEEclEPNS_10Color_HSLAE W
_ZN4Sass14Operation_CRTPIPNS_10ExpressionENS_4EvalEEclEPNS_10Color_RGBAE W
_ZN4Sass14Operation_CRTPIPNS_10ExpressionENS_4EvalEEclEPNS_10DefinitionE W
_ZN4Sass14Operation_CRTPIPNS_10ExpressionENS_4EvalEEclEPNS_10ExtendRuleE W
_ZN4Sass14Operation_CRTPIPNS_10ExpressionENS_4EvalEEclEPNS_10IDSelectorE W
_ZN4Sass14Operation_CRTPIPNS_10ExpressionENS_4EvalEEclEPNS_10Mixin_CallE W
_ZN4Sass14Operation_CRTPIPNS_10ExpressionENS_4EvalEEclEPNS_10ParametersE W
_ZN4Sass14Operation_CRTPIPNS_10ExpressionENS_4EvalEEclEPNS_11DeclarationE W
_ZN4Sass14Operation_CRTPIPNS_10ExpressionENS_4EvalEEclEPNS_11Import_StubE W
_ZN4Sass14Operation_CRTPIPNS_10ExpressionENS_4EvalEEclEPNS_11Media_QueryE W
_ZN4Sass14Operation_CRTPIPNS_10ExpressionENS_4EvalEEclEPNS_11WarningRuleE W
_ZN4Sass14Operation_CRTPIPNS_10ExpressionENS_4EvalEEclEPNS_12CssMediaRuleE W
_ZN4Sass14Operation_CRTPIPNS_10ExpressionENS_4EvalEEclEPNS_12Custom_ErrorE W
_ZN4Sass14Operation_CRTPIPNS_10ExpressionENS_4EvalEEclEPNS_12SelectorListE W
_ZN4Sass14Operation_CRTPIPNS_10ExpressionENS_4EvalEEclEPNS_12SupportsRuleE W
_ZN4Sass14Operation_CRTPIPNS_10ExpressionENS_4EvalEEclEPNS_12TypeSelectorE W
_ZN4Sass14Operation_CRTPIPNS_10ExpressionENS_4EvalEEclEPNS_13At_Root_QueryE W
_ZN4Sass14Operation_CRTPIPNS_10ExpressionENS_4EvalEEclEPNS_13ClassSelectorE W
_ZN4Sass14Operation_CRTPIPNS_10ExpressionENS_4EvalEEclEPNS_13CssMediaQueryE W
_ZN4Sass14Operation_CRTPIPNS_10ExpressionENS_4EvalEEclEPNS_13Function_CallE W
_ZN4Sass14Operation_CRTPIPNS_10ExpressionENS_4EvalEEclEPNS_13Keyframe_RuleE W
_ZN4Sass14Operation_CRTPIPNS_10ExpressionENS_4EvalEEclEPNS_13String_QuotedE W
_ZN4Sass14Operation_CRTPIPNS_10ExpressionENS_4EvalEEclEPNS_13String_SchemaE W
_ZN4Sass14Operation_CRTPIPNS_10ExpressionENS_4EvalEEclEPNS_14Custom_WarningE W
_ZN4Sass14Operation_CRTPIPNS_10ExpressionENS_4EvalEEclEPNS_14PseudoSelectorE W
_ZN4Sass14Operation_CRTPIPNS_10ExpressionENS_4EvalEEclEPNS_15ComplexSelectorE W
_ZN4Sass14Operation_CRTPIPNS_10ExpressionENS_4EvalEEclEPNS_15Selector_SchemaE W
_ZN4Sass14Operation_CRTPIPNS_10ExpressionENS_4EvalEEclEPNS_15String_ConstantE W
_ZN4Sass14Operation_CRTPIPNS_10ExpressionENS_4EvalEEclEPNS_16CompoundSelectorE W
_ZN4Sass14Operation_CRTPIPNS_10ExpressionENS_4EvalEEclEPNS_16Parent_ReferenceE W
_ZN4Sass14Operation_CRTPIPNS_10ExpressionENS_4EvalEEclEPNS_16SupportsNegationE W
_ZN4Sass14Operation_CRTPIPNS_10ExpressionENS_4EvalEEclEPNS_16Unary_ExpressionE W
_ZN4Sass14Operation_CRTPIPNS_10ExpressionENS_4EvalEEclEPNS_17AttributeSelectorE W
_ZN4Sass14Operation_CRTPIPNS_10ExpressionENS_4EvalEEclEPNS_17Binary_ExpressionE W
_ZN4Sass14Operation_CRTPIPNS_10ExpressionENS_4EvalEEclEPNS_17SelectorComponentE W
_ZN4Sass14Operation_CRTPIPNS_10ExpressionENS_4EvalEEclEPNS_17SupportsConditionE W
_ZN4Sass14Operation_CRTPIPNS_10ExpressionENS_4EvalEEclEPNS_17SupportsOperationE W
_ZN4Sass14Operation_CRTPIPNS_10ExpressionENS_4EvalEEclEPNS_18SelectorCombinatorE W
_ZN4Sass14Operation_CRTPIPNS_10ExpressionENS_4EvalEEclEPNS_19PlaceholderSelectorE W
_ZN4Sass14Operation_CRTPIPNS_10ExpressionENS_4EvalEEclEPNS_19SupportsDeclarationE W
_ZN4Sass14Operation_CRTPIPNS_10ExpressionENS_4EvalEEclEPNS_22Media_Query_ExpressionE W
_ZN4Sass14Operation_CRTPIPNS_10ExpressionENS_4EvalEEclEPNS_22Supports_InterpolationE W
_ZN4Sass14Operation_CRTPIPNS_10ExpressionENS_4EvalEEclEPNS_2IfE W
_ZN4Sass14Operation_CRTPIPNS_10ExpressionENS_4EvalEEclEPNS_3MapE W
_ZN4Sass14Operation_CRTPIPNS_10ExpressionENS_4EvalEEclEPNS_4ListE W
_ZN4Sass14Operation_CRTPIPNS_10ExpressionENS_4EvalEEclEPNS_4NullE W
_ZN4Sass14Operation_CRTPIPNS_10ExpressionENS_4EvalEEclEPNS_5BlockE W
_ZN4Sass14Operation_CRTPIPNS_10ExpressionENS_4EvalEEclEPNS_5ColorE W
_ZN4Sass14Operation_CRTPIPNS_10ExpressionENS_4EvalEEclEPNS_5TraceE W
_ZN4Sass14Operation_CRTPIPNS_10ExpressionENS_4EvalEEclEPNS_6AtRuleE W
_ZN4Sass14Operation_CRTPIPNS_10ExpressionENS_4EvalEEclEPNS_6BubbleE W
_ZN4Sass14Operation_CRTPIPNS_10ExpressionENS_4EvalEEclEPNS_6ImportE W
_ZN4Sass14Operation_CRTPIPNS_10ExpressionENS_4EvalEEclEPNS_6NumberE W
_ZN4Sass14Operation_CRTPIPNS_10ExpressionENS_4EvalEEclEPNS_6ReturnE W
_ZN4Sass14Operation_CRTPIPNS_10ExpressionENS_4EvalEEclEPNS_7BooleanE W
_ZN4Sass14Operation_CRTPIPNS_10ExpressionENS_4EvalEEclEPNS_7CommentE W
_ZN4Sass14Operation_CRTPIPNS_10ExpressionENS_4EvalEEclEPNS_7ContentE W
_ZN4Sass14Operation_CRTPIPNS_10ExpressionENS_4EvalEEclEPNS_7ForRuleE W
_ZN4Sass14Operation_CRTPIPNS_10ExpressionENS_4EvalEEclEPNS_8AST_NodeE W
_ZN4Sass14Operation_CRTPIPNS_10ExpressionENS_4EvalEEclEPNS_8ArgumentE W
_ZN4Sass14Operation_CRTPIPNS_10ExpressionENS_4EvalEEclEPNS_8EachRuleE W
_ZN4Sass14Operation_CRTPIPNS_10ExpressionENS_4EvalEEclEPNS_8FunctionE W
_ZN4Sass14Operation_CRTPIPNS_10ExpressionENS_4EvalEEclEPNS_8VariableE W
_ZN4Sass14Operation_CRTPIPNS_10ExpressionENS_4EvalEEclEPNS_9ArgumentsE W
_ZN4Sass14Operation_CRTPIPNS_10ExpressionENS_4EvalEEclEPNS_9DebugRuleE W
_ZN4Sass14Operation_CRTPIPNS_10ExpressionENS_4EvalEEclEPNS_9ErrorRuleE W
_ZN4Sass14Operation_CRTPIPNS_10ExpressionENS_4EvalEEclEPNS_9MediaRuleE W
_ZN4Sass14Operation_CRTPIPNS_10ExpressionENS_4EvalEEclEPNS_9ParameterE W
_ZN4Sass14Operation_CRTPIPNS_10ExpressionENS_4EvalEEclEPNS_9StyleRuleE W
_ZN4Sass14Operation_CRTPIPNS_10ExpressionENS_4EvalEEclEPNS_9WhileRuleE W
_ZN4Sass14Operation_CRTPIPNS_10ExpressionENS_7ListizeEEC1Ev W
_ZN4Sass14Operation_CRTPIPNS_10ExpressionENS_7ListizeEEC2Ev W
_ZN4Sass14Operation_CRTPIPNS_10ExpressionENS_7ListizeEEclEPNS_10AssignmentE W
_ZN4Sass14Operation_CRTPIPNS_10ExpressionENS_7ListizeEEclEPNS_10AtRootRuleE W
_ZN4Sass14Operation_CRTPIPNS_10ExpressionENS_7ListizeEEclEPNS_10Color_HSLAE W
_ZN4Sass14Operation_CRTPIPNS_10ExpressionENS_7ListizeEEclEPNS_10Color_RGBAE W
_ZN4Sass14Operation_CRTPIPNS_10ExpressionENS_7ListizeEEclEPNS_10DefinitionE W
_ZN4Sass14Operation_CRTPIPNS_10ExpressionENS_7ListizeEEclEPNS_10ExtendRuleE W
_ZN4Sass14Operation_CRTPIPNS_10ExpressionENS_7ListizeEEclEPNS_10IDSelectorE W
_ZN4Sass14Operation_CRTPIPNS_10ExpressionENS_7ListizeEEclEPNS_10Mixin_CallE W
_ZN4Sass14Operation_CRTPIPNS_10ExpressionENS_7ListizeEEclEPNS_10ParametersE W
_ZN4Sass14Operation_CRTPIPNS_10ExpressionENS_7ListizeEEclEPNS_11DeclarationE W
_ZN4Sass14Operation_CRTPIPNS_10ExpressionENS_7ListizeEEclEPNS_11Import_StubE W
_ZN4Sass14Operation_CRTPIPNS_10ExpressionENS_7ListizeEEclEPNS_11Media_QueryE W
_ZN4Sass14Operation_CRTPIPNS_10ExpressionENS_7ListizeEEclEPNS_11WarningRuleE W
_ZN4Sass14Operation_CRTPIPNS_10ExpressionENS_7ListizeEEclEPNS_12CssMediaRuleE W
_ZN4Sass14Operation_CRTPIPNS_10ExpressionENS_7ListizeEEclEPNS_12Custom_ErrorE W
_ZN4Sass14Operation_CRTPIPNS_10ExpressionENS_7ListizeEEclEPNS_12SelectorListE W
_ZN4Sass14Operation_CRTPIPNS_10ExpressionENS_7ListizeEEclEPNS_12SupportsRuleE W
_ZN4Sass14Operation_CRTPIPNS_10ExpressionENS_7ListizeEEclEPNS_12TypeSelectorE W
_ZN4Sass14Operation_CRTPIPNS_10ExpressionENS_7ListizeEEclEPNS_13At_Root_QueryE W
_ZN4Sass14Operation_CRTPIPNS_10ExpressionENS_7ListizeEEclEPNS_13ClassSelectorE W
_ZN4Sass14Operation_CRTPIPNS_10ExpressionENS_7ListizeEEclEPNS_13CssMediaQueryE W
_ZN4Sass14Operation_CRTPIPNS_10ExpressionENS_7ListizeEEclEPNS_13Function_CallE W
_ZN4Sass14Operation_CRTPIPNS_10ExpressionENS_7ListizeEEclEPNS_13Keyframe_RuleE W
_ZN4Sass14Operation_CRTPIPNS_10ExpressionENS_7ListizeEEclEPNS_13String_QuotedE W
_ZN4Sass14Operation_CRTPIPNS_10ExpressionENS_7ListizeEEclEPNS_13String_SchemaE W
_ZN4Sass14Operation_CRTPIPNS_10ExpressionENS_7ListizeEEclEPNS_14Custom_WarningE W
_ZN4Sass14Operation_CRTPIPNS_10ExpressionENS_7ListizeEEclEPNS_14PseudoSelectorE W
_ZN4Sass14Operation_CRTPIPNS_10ExpressionENS_7ListizeEEclEPNS_15ComplexSelectorE W
_ZN4Sass14Operation_CRTPIPNS_10ExpressionENS_7ListizeEEclEPNS_15Selector_SchemaE W
_ZN4Sass14Operation_CRTPIPNS_10ExpressionENS_7ListizeEEclEPNS_15String_ConstantE W
_ZN4Sass14Operation_CRTPIPNS_10ExpressionENS_7ListizeEEclEPNS_16CompoundSelectorE W
_ZN4Sass14Operation_CRTPIPNS_10ExpressionENS_7ListizeEEclEPNS_16Parent_ReferenceE W
_ZN4Sass14Operation_CRTPIPNS_10ExpressionENS_7ListizeEEclEPNS_16SupportsNegationE W
_ZN4Sass14Operation_CRTPIPNS_10ExpressionENS_7ListizeEEclEPNS_16Unary_ExpressionE W
_ZN4Sass14Operation_CRTPIPNS_10ExpressionENS_7ListizeEEclEPNS_17AttributeSelectorE W
_ZN4Sass14Operation_CRTPIPNS_10ExpressionENS_7ListizeEEclEPNS_17Binary_ExpressionE W
_ZN4Sass14Operation_CRTPIPNS_10ExpressionENS_7ListizeEEclEPNS_17SelectorComponentE W
_ZN4Sass14Operation_CRTPIPNS_10ExpressionENS_7ListizeEEclEPNS_17SupportsConditionE W
_ZN4Sass14Operation_CRTPIPNS_10ExpressionENS_7ListizeEEclEPNS_17SupportsOperationE W
_ZN4Sass14Operation_CRTPIPNS_10ExpressionENS_7ListizeEEclEPNS_18SelectorCombinatorE W
_ZN4Sass14Operation_CRTPIPNS_10ExpressionENS_7ListizeEEclEPNS_19PlaceholderSelectorE W
_ZN4Sass14Operation_CRTPIPNS_10ExpressionENS_7ListizeEEclEPNS_19SupportsDeclarationE W
_ZN4Sass14Operation_CRTPIPNS_10ExpressionENS_7ListizeEEclEPNS_22Media_Query_ExpressionE W
_ZN4Sass14Operation_CRTPIPNS_10ExpressionENS_7ListizeEEclEPNS_22Supports_InterpolationE W
_ZN4Sass14Operation_CRTPIPNS_10ExpressionENS_7ListizeEEclEPNS_2IfE W
_ZN4Sass14Operation_CRTPIPNS_10ExpressionENS_7ListizeEEclEPNS_3MapE W
_ZN4Sass14Operation_CRTPIPNS_10ExpressionENS_7ListizeEEclEPNS_4ListE W
_ZN4Sass14Operation_CRTPIPNS_10ExpressionENS_7ListizeEEclEPNS_4NullE W
_ZN4Sass14Operation_CRTPIPNS_10ExpressionENS_7ListizeEEclEPNS_5BlockE W
_ZN4Sass14Operation_CRTPIPNS_10ExpressionENS_7ListizeEEclEPNS_5ColorE W
_ZN4Sass14Operation_CRTPIPNS_10ExpressionENS_7ListizeEEclEPNS_5TraceE W
_ZN4Sass14Operation_CRTPIPNS_10ExpressionENS_7ListizeEEclEPNS_6AtRuleE W
_ZN4Sass14Operation_CRTPIPNS_10ExpressionENS_7ListizeEEclEPNS_6BubbleE W
_ZN4Sass14Operation_CRTPIPNS_10ExpressionENS_7ListizeEEclEPNS_6ImportE W
_ZN4Sass14Operation_CRTPIPNS_10ExpressionENS_7ListizeEEclEPNS_6NumberE W
_ZN4Sass14Operation_CRTPIPNS_10ExpressionENS_7ListizeEEclEPNS_6ReturnE W
_ZN4Sass14Operation_CRTPIPNS_10ExpressionENS_7ListizeEEclEPNS_7BooleanE W
_ZN4Sass14Operation_CRTPIPNS_10ExpressionENS_7ListizeEEclEPNS_7CommentE W
_ZN4Sass14Operation_CRTPIPNS_10ExpressionENS_7ListizeEEclEPNS_7ContentE W
_ZN4Sass14Operation_CRTPIPNS_10ExpressionENS_7ListizeEEclEPNS_7ForRuleE W
_ZN4Sass14Operation_CRTPIPNS_10ExpressionENS_7ListizeEEclEPNS_8AST_NodeE W
_ZN4Sass14Operation_CRTPIPNS_10ExpressionENS_7ListizeEEclEPNS_8ArgumentE W
_ZN4Sass14Operation_CRTPIPNS_10ExpressionENS_7ListizeEEclEPNS_8EachRuleE W
_ZN4Sass14Operation_CRTPIPNS_10ExpressionENS_7ListizeEEclEPNS_8FunctionE W
_ZN4Sass14Operation_CRTPIPNS_10ExpressionENS_7ListizeEEclEPNS_8VariableE W
_ZN4Sass14Operation_CRTPIPNS_10ExpressionENS_7ListizeEEclEPNS_9ArgumentsE W
_ZN4Sass14Operation_CRTPIPNS_10ExpressionENS_7ListizeEEclEPNS_9DebugRuleE W
_ZN4Sass14Operation_CRTPIPNS_10ExpressionENS_7ListizeEEclEPNS_9ErrorRuleE W
_ZN4Sass14Operation_CRTPIPNS_10ExpressionENS_7ListizeEEclEPNS_9MediaRuleE W
_ZN4Sass14Operation_CRTPIPNS_10ExpressionENS_7ListizeEEclEPNS_9ParameterE W
_ZN4Sass14Operation_CRTPIPNS_10ExpressionENS_7ListizeEEclEPNS_9StyleRuleE W
_ZN4Sass14Operation_CRTPIPNS_10ExpressionENS_7ListizeEEclEPNS_9WhileRuleE W
_ZN4Sass14Operation_CRTPIPNS_5ValueENS_8To_ValueEE8fallbackIPNS_10AssignmentEEES2_T_ W
_ZN4Sass14Operation_CRTPIPNS_5ValueENS_8To_ValueEE8fallbackIPNS_10AtRootRuleEEES2_T_ W
_ZN4Sass14Operation_CRTPIPNS_5ValueENS_8To_ValueEE8fallbackIPNS_10Color_HSLAEEES2_T_ W
_ZN4Sass14Operation_CRTPIPNS_5ValueENS_8To_ValueEE8fallbackIPNS_10Color_RGBAEEES2_T_ W
_ZN4Sass14Operation_CRTPIPNS_5ValueENS_8To_ValueEE8fallbackIPNS_10DefinitionEEES2_T_ W
_ZN4Sass14Operation_CRTPIPNS_5ValueENS_8To_ValueEE8fallbackIPNS_10ExtendRuleEEES2_T_ W
_ZN4Sass14Operation_CRTPIPNS_5ValueENS_8To_ValueEE8fallbackIPNS_10IDSelectorEEES2_T_ W
_ZN4Sass14Operation_CRTPIPNS_5ValueENS_8To_ValueEE8fallbackIPNS_10Mixin_CallEEES2_T_ W
_ZN4Sass14Operation_CRTPIPNS_5ValueENS_8To_ValueEE8fallbackIPNS_10ParametersEEES2_T_ W
_ZN4Sass14Operation_CRTPIPNS_5ValueENS_8To_ValueEE8fallbackIPNS_11DeclarationEEES2_T_ W
_ZN4Sass14Operation_CRTPIPNS_5ValueENS_8To_ValueEE8fallbackIPNS_11Import_StubEEES2_T_ W
_ZN4Sass14Operation_CRTPIPNS_5ValueENS_8To_ValueEE8fallbackIPNS_11Media_QueryEEES2_T_ W
_ZN4Sass14Operation_CRTPIPNS_5ValueENS_8To_ValueEE8fallbackIPNS_11WarningRuleEEES2_T_ W
_ZN4Sass14Operation_CRTPIPNS_5ValueENS_8To_ValueEE8fallbackIPNS_12CssMediaRuleEEES2_T_ W
_ZN4Sass14Operation_CRTPIPNS_5ValueENS_8To_ValueEE8fallbackIPNS_12Custom_ErrorEEES2_T_ W
_ZN4Sass14Operation_CRTPIPNS_5ValueENS_8To_ValueEE8fallbackIPNS_12SelectorListEEES2_T_ W
_ZN4Sass14Operation_CRTPIPNS_5ValueENS_8To_ValueEE8fallbackIPNS_12SupportsRuleEEES2_T_ W
_ZN4Sass14Operation_CRTPIPNS_5ValueENS_8To_ValueEE8fallbackIPNS_12TypeSelectorEEES2_T_ W
_ZN4Sass14Operation_CRTPIPNS_5ValueENS_8To_ValueEE8fallbackIPNS_13At_Root_QueryEEES2_T_ W
_ZN4Sass14Operation_CRTPIPNS_5ValueENS_8To_ValueEE8fallbackIPNS_13ClassSelectorEEES2_T_ W
_ZN4Sass14Operation_CRTPIPNS_5ValueENS_8To_ValueEE8fallbackIPNS_13CssMediaQueryEEES2_T_ W
_ZN4Sass14Operation_CRTPIPNS_5ValueENS_8To_ValueEE8fallbackIPNS_13Function_CallEEES2_T_ W
_ZN4Sass14Operation_CRTPIPNS_5ValueENS_8To_ValueEE8fallbackIPNS_13Keyframe_RuleEEES2_T_ W
_ZN4Sass14Operation_CRTPIPNS_5ValueENS_8To_ValueEE8fallbackIPNS_13String_QuotedEEES2_T_ W
_ZN4Sass14Operation_CRTPIPNS_5ValueENS_8To_ValueEE8fallbackIPNS_13String_SchemaEEES2_T_ W
_ZN4Sass14Operation_CRTPIPNS_5ValueENS_8To_ValueEE8fallbackIPNS_14Custom_WarningEEES2_T_ W
_ZN4Sass14Operation_CRTPIPNS_5ValueENS_8To_ValueEE8fallbackIPNS_14PseudoSelectorEEES2_T_ W
_ZN4Sass14Operation_CRTPIPNS_5ValueENS_8To_ValueEE8fallbackIPNS_15ComplexSelectorEEES2_T_ W
_ZN4Sass14Operation_CRTPIPNS_5ValueENS_8To_ValueEE8fallbackIPNS_15Selector_SchemaEEES2_T_ W
_ZN4Sass14Operation_CRTPIPNS_5ValueENS_8To_ValueEE8fallbackIPNS_15String_ConstantEEES2_T_ W
_ZN4Sass14Operation_CRTPIPNS_5ValueENS_8To_ValueEE8fallbackIPNS_16CompoundSelectorEEES2_T_ W
_ZN4Sass14Operation_CRTPIPNS_5ValueENS_8To_ValueEE8fallbackIPNS_16Parent_ReferenceEEES2_T_ W
_ZN4Sass14Operation_CRTPIPNS_5ValueENS_8To_ValueEE8fallbackIPNS_16SupportsNegationEEES2_T_ W
_ZN4Sass14Operation_CRTPIPNS_5ValueENS_8To_ValueEE8fallbackIPNS_16Unary_ExpressionEEES2_T_ W
_ZN4Sass14Operation_CRTPIPNS_5ValueENS_8To_ValueEE8fallbackIPNS_17AttributeSelectorEEES2_T_ W
_ZN4Sass14Operation_CRTPIPNS_5ValueENS_8To_ValueEE8fallbackIPNS_17Binary_ExpressionEEES2_T_ W
_ZN4Sass14Operation_CRTPIPNS_5ValueENS_8To_ValueEE8fallbackIPNS_17SelectorComponentEEES2_T_ W
_ZN4Sass14Operation_CRTPIPNS_5ValueENS_8To_ValueEE8fallbackIPNS_17SupportsConditionEEES2_T_ W
_ZN4Sass14Operation_CRTPIPNS_5ValueENS_8To_ValueEE8fallbackIPNS_17SupportsOperationEEES2_T_ W
_ZN4Sass14Operation_CRTPIPNS_5ValueENS_8To_ValueEE8fallbackIPNS_18SelectorCombinatorEEES2_T_ W
_ZN4Sass14Operation_CRTPIPNS_5ValueENS_8To_ValueEE8fallbackIPNS_19PlaceholderSelectorEEES2_T_ W
_ZN4Sass14Operation_CRTPIPNS_5ValueENS_8To_ValueEE8fallbackIPNS_19SupportsDeclarationEEES2_T_ W
_ZN4Sass14Operation_CRTPIPNS_5ValueENS_8To_ValueEE8fallbackIPNS_22Media_Query_ExpressionEEES2_T_ W
_ZN4Sass14Operation_CRTPIPNS_5ValueENS_8To_ValueEE8fallbackIPNS_22Supports_InterpolationEEES2_T_ W
_ZN4Sass14Operation_CRTPIPNS_5ValueENS_8To_ValueEE8fallbackIPNS_2IfEEES2_T_ W
_ZN4Sass14Operation_CRTPIPNS_5ValueENS_8To_ValueEE8fallbackIPNS_3MapEEES2_T_ W
_ZN4Sass14Operation_CRTPIPNS_5ValueENS_8To_ValueEE8fallbackIPNS_4ListEEES2_T_ W
_ZN4Sass14Operation_CRTPIPNS_5ValueENS_8To_ValueEE8fallbackIPNS_4NullEEES2_T_ W
_ZN4Sass14Operation_CRTPIPNS_5ValueENS_8To_ValueEE8fallbackIPNS_5BlockEEES2_T_ W
_ZN4Sass14Operation_CRTPIPNS_5ValueENS_8To_ValueEE8fallbackIPNS_5ColorEEES2_T_ W
_ZN4Sass14Operation_CRTPIPNS_5ValueENS_8To_ValueEE8fallbackIPNS_5TraceEEES2_T_ W
_ZN4Sass14Operation_CRTPIPNS_5ValueENS_8To_ValueEE8fallbackIPNS_6AtRuleEEES2_T_ W
_ZN4Sass14Operation_CRTPIPNS_5ValueENS_8To_ValueEE8fallbackIPNS_6BubbleEEES2_T_ W
_ZN4Sass14Operation_CRTPIPNS_5ValueENS_8To_ValueEE8fallbackIPNS_6ImportEEES2_T_ W
_ZN4Sass14Operation_CRTPIPNS_5ValueENS_8To_ValueEE8fallbackIPNS_6NumberEEES2_T_ W
_ZN4Sass14Operation_CRTPIPNS_5ValueENS_8To_ValueEE8fallbackIPNS_6ReturnEEES2_T_ W
_ZN4Sass14Operation_CRTPIPNS_5ValueENS_8To_ValueEE8fallbackIPNS_7BooleanEEES2_T_ W
_ZN4Sass14Operation_CRTPIPNS_5ValueENS_8To_ValueEE8fallbackIPNS_7CommentEEES2_T_ W
_ZN4Sass14Operation_CRTPIPNS_5ValueENS_8To_ValueEE8fallbackIPNS_7ContentEEES2_T_ W
_ZN4Sass14Operation_CRTPIPNS_5ValueENS_8To_ValueEE8fallbackIPNS_7ForRuleEEES2_T_ W
_ZN4Sass14Operation_CRTPIPNS_5ValueENS_8To_ValueEE8fallbackIPNS_8AST_NodeEEES2_T_ W
_ZN4Sass14Operation_CRTPIPNS_5ValueENS_8To_ValueEE8fallbackIPNS_8ArgumentEEES2_T_ W
_ZN4Sass14Operation_CRTPIPNS_5ValueENS_8To_ValueEE8fallbackIPNS_8EachRuleEEES2_T_ W
_ZN4Sass14Operation_CRTPIPNS_5ValueENS_8To_ValueEE8fallbackIPNS_8FunctionEEES2_T_ W
_ZN4Sass14Operation_CRTPIPNS_5ValueENS_8To_ValueEE8fallbackIPNS_8VariableEEES2_T_ W
_ZN4Sass14Operation_CRTPIPNS_5ValueENS_8To_ValueEE8fallbackIPNS_9ArgumentsEEES2_T_ W
_ZN4Sass14Operation_CRTPIPNS_5ValueENS_8To_ValueEE8fallbackIPNS_9DebugRuleEEES2_T_ W
_ZN4Sass14Operation_CRTPIPNS_5ValueENS_8To_ValueEE8fallbackIPNS_9ErrorRuleEEES2_T_ W
_ZN4Sass14Operation_CRTPIPNS_5ValueENS_8To_ValueEE8fallbackIPNS_9MediaRuleEEES2_T_ W
_ZN4Sass14Operation_CRTPIPNS_5ValueENS_8To_ValueEE8fallbackIPNS_9ParameterEEES2_T_ W
_ZN4Sass14Operation_CRTPIPNS_5ValueENS_8To_ValueEE8fallbackIPNS_9StyleRuleEEES2_T_ W
_ZN4Sass14Operation_CRTPIPNS_5ValueENS_8To_ValueEE8fallbackIPNS_9WhileRuleEEES2_T_ W
_ZN4Sass14Operation_CRTPIPNS_5ValueENS_8To_ValueEEC1Ev W
_ZN4Sass14Operation_CRTPIPNS_5ValueENS_8To_ValueEEC2Ev W
_ZN4Sass14Operation_CRTPIPNS_5ValueENS_8To_ValueEEclEPNS_10AssignmentE W
_ZN4Sass14Operation_CRTPIPNS_5ValueENS_8To_ValueEEclEPNS_10AtRootRuleE W
_ZN4Sass14Operation_CRTPIPNS_5ValueENS_8To_ValueEEclEPNS_10Color_HSLAE W
_ZN4Sass14Operation_CRTPIPNS_5ValueENS_8To_ValueEEclEPNS_10Color_RGBAE W
_ZN4Sass14Operation_CRTPIPNS_5ValueENS_8To_ValueEEclEPNS_10DefinitionE W
_ZN4Sass14Operation_CRTPIPNS_5ValueENS_8To_ValueEEclEPNS_10ExtendRuleE W
_ZN4Sass14Operation_CRTPIPNS_5ValueENS_8To_ValueEEclEPNS_10IDSelectorE W
_ZN4Sass14Operation_CRTPIPNS_5ValueENS_8To_ValueEEclEPNS_10Mixin_CallE W
_ZN4Sass14Operation_CRTPIPNS_5ValueENS_8To_ValueEEclEPNS_10ParametersE W
_ZN4Sass14Operation_CRTPIPNS_5ValueENS_8To_ValueEEclEPNS_11DeclarationE W
_ZN4Sass14Operation_CRTPIPNS_5ValueENS_8To_ValueEEclEPNS_11Import_StubE W
_ZN4Sass14Operation_CRTPIPNS_5ValueENS_8To_ValueEEclEPNS_11Media_QueryE W
_ZN4Sass14Operation_CRTPIPNS_5ValueENS_8To_ValueEEclEPNS_11WarningRuleE W
_ZN4Sass14Operation_CRTPIPNS_5ValueENS_8To_ValueEEclEPNS_12CssMediaRuleE W
_ZN4Sass14Operation_CRTPIPNS_5ValueENS_8To_ValueEEclEPNS_12Custom_ErrorE W
_ZN4Sass14Operation_CRTPIPNS_5ValueENS_8To_ValueEEclEPNS_12SelectorListE W
_ZN4Sass14Operation_CRTPIPNS_5ValueENS_8To_ValueEEclEPNS_12SupportsRuleE W
_ZN4Sass14Operation_CRTPIPNS_5ValueENS_8To_ValueEEclEPNS_12TypeSelectorE W
_ZN4Sass14Operation_CRTPIPNS_5ValueENS_8To_ValueEEclEPNS_13At_Root_QueryE W
_ZN4Sass14Operation_CRTPIPNS_5ValueENS_8To_ValueEEclEPNS_13ClassSelectorE W
_ZN4Sass14Operation_CRTPIPNS_5ValueENS_8To_ValueEEclEPNS_13CssMediaQueryE W
_ZN4Sass14Operation_CRTPIPNS_5ValueENS_8To_ValueEEclEPNS_13Function_CallE W
_ZN4Sass14Operation_CRTPIPNS_5ValueENS_8To_ValueEEclEPNS_13Keyframe_RuleE W
_ZN4Sass14Operation_CRTPIPNS_5ValueENS_8To_ValueEEclEPNS_13String_QuotedE W
_ZN4Sass14Operation_CRTPIPNS_5ValueENS_8To_ValueEEclEPNS_13String_SchemaE W
_ZN4Sass14Operation_CRTPIPNS_5ValueENS_8To_ValueEEclEPNS_14Custom_WarningE W
_ZN4Sass14Operation_CRTPIPNS_5ValueENS_8To_ValueEEclEPNS_14PseudoSelectorE W
_ZN4Sass14Operation_CRTPIPNS_5ValueENS_8To_ValueEEclEPNS_15ComplexSelectorE W
_ZN4Sass14Operation_CRTPIPNS_5ValueENS_8To_ValueEEclEPNS_15Selector_SchemaE W
_ZN4Sass14Operation_CRTPIPNS_5ValueENS_8To_ValueEEclEPNS_15String_ConstantE W
_ZN4Sass14Operation_CRTPIPNS_5ValueENS_8To_ValueEEclEPNS_16CompoundSelectorE W
_ZN4Sass14Operation_CRTPIPNS_5ValueENS_8To_ValueEEclEPNS_16Parent_ReferenceE W
_ZN4Sass14Operation_CRTPIPNS_5ValueENS_8To_ValueEEclEPNS_16SupportsNegationE W
_ZN4Sass14Operation_CRTPIPNS_5ValueENS_8To_ValueEEclEPNS_16Unary_ExpressionE W
_ZN4Sass14Operation_CRTPIPNS_5ValueENS_8To_ValueEEclEPNS_17AttributeSelectorE W
_ZN4Sass14Operation_CRTPIPNS_5ValueENS_8To_ValueEEclEPNS_17Binary_ExpressionE W
_ZN4Sass14Operation_CRTPIPNS_5ValueENS_8To_ValueEEclEPNS_17SelectorComponentE W
_ZN4Sass14Operation_CRTPIPNS_5ValueENS_8To_ValueEEclEPNS_17SupportsConditionE W
_ZN4Sass14Operation_CRTPIPNS_5ValueENS_8To_ValueEEclEPNS_17SupportsOperationE W
_ZN4Sass14Operation_CRTPIPNS_5ValueENS_8To_ValueEEclEPNS_18SelectorCombinatorE W
_ZN4Sass14Operation_CRTPIPNS_5ValueENS_8To_ValueEEclEPNS_19PlaceholderSelectorE W
_ZN4Sass14Operation_CRTPIPNS_5ValueENS_8To_ValueEEclEPNS_19SupportsDeclarationE W
_ZN4Sass14Operation_CRTPIPNS_5ValueENS_8To_ValueEEclEPNS_22Media_Query_ExpressionE W
_ZN4Sass14Operation_CRTPIPNS_5ValueENS_8To_ValueEEclEPNS_22Supports_InterpolationE W
_ZN4Sass14Operation_CRTPIPNS_5ValueENS_8To_ValueEEclEPNS_2IfE W
_ZN4Sass14Operation_CRTPIPNS_5ValueENS_8To_ValueEEclEPNS_3MapE W
_ZN4Sass14Operation_CRTPIPNS_5ValueENS_8To_ValueEEclEPNS_4ListE W
_ZN4Sass14Operation_CRTPIPNS_5ValueENS_8To_ValueEEclEPNS_4NullE W
_ZN4Sass14Operation_CRTPIPNS_5ValueENS_8To_ValueEEclEPNS_5BlockE W
_ZN4Sass14Operation_CRTPIPNS_5ValueENS_8To_ValueEEclEPNS_5ColorE W
_ZN4Sass14Operation_CRTPIPNS_5ValueENS_8To_ValueEEclEPNS_5TraceE W
_ZN4Sass14Operation_CRTPIPNS_5ValueENS_8To_ValueEEclEPNS_6AtRuleE W
_ZN4Sass14Operation_CRTPIPNS_5ValueENS_8To_ValueEEclEPNS_6BubbleE W
_ZN4Sass14Operation_CRTPIPNS_5ValueENS_8To_ValueEEclEPNS_6ImportE W
_ZN4Sass14Operation_CRTPIPNS_5ValueENS_8To_ValueEEclEPNS_6NumberE W
_ZN4Sass14Operation_CRTPIPNS_5ValueENS_8To_ValueEEclEPNS_6ReturnE W
_ZN4Sass14Operation_CRTPIPNS_5ValueENS_8To_ValueEEclEPNS_7BooleanE W
_ZN4Sass14Operation_CRTPIPNS_5ValueENS_8To_ValueEEclEPNS_7CommentE W
_ZN4Sass14Operation_CRTPIPNS_5ValueENS_8To_ValueEEclEPNS_7ContentE W
_ZN4Sass14Operation_CRTPIPNS_5ValueENS_8To_ValueEEclEPNS_7ForRuleE W
_ZN4Sass14Operation_CRTPIPNS_5ValueENS_8To_ValueEEclEPNS_8AST_NodeE W
_ZN4Sass14Operation_CRTPIPNS_5ValueENS_8To_ValueEEclEPNS_8ArgumentE W
_ZN4Sass14Operation_CRTPIPNS_5ValueENS_8To_ValueEEclEPNS_8EachRuleE W
_ZN4Sass14Operation_CRTPIPNS_5ValueENS_8To_ValueEEclEPNS_8FunctionE W
_ZN4Sass14Operation_CRTPIPNS_5ValueENS_8To_ValueEEclEPNS_8VariableE W
_ZN4Sass14Operation_CRTPIPNS_5ValueENS_8To_ValueEEclEPNS_9ArgumentsE W
_ZN4Sass14Operation_CRTPIPNS_5ValueENS_8To_ValueEEclEPNS_9DebugRuleE W
_ZN4Sass14Operation_CRTPIPNS_5ValueENS_8To_ValueEEclEPNS_9ErrorRuleE W
_ZN4Sass14Operation_CRTPIPNS_5ValueENS_8To_ValueEEclEPNS_9MediaRuleE W
_ZN4Sass14Operation_CRTPIPNS_5ValueENS_8To_ValueEEclEPNS_9ParameterE W
_ZN4Sass14Operation_CRTPIPNS_5ValueENS_8To_ValueEEclEPNS_9StyleRuleE W
_ZN4Sass14Operation_CRTPIPNS_5ValueENS_8To_ValueEEclEPNS_9WhileRuleE W
_ZN4Sass14Operation_CRTPIPNS_9StatementENS_12CheckNestingEEC1Ev W
_ZN4Sass14Operation_CRTPIPNS_9StatementENS_12CheckNestingEEC2Ev W
_ZN4Sass14Operation_CRTPIPNS_9StatementENS_12CheckNestingEEclEPNS_10AssignmentE W
_ZN4Sass14Operation_CRTPIPNS_9StatementENS_12CheckNestingEEclEPNS_10AtRootRuleE W
_ZN4Sass14Operation_CRTPIPNS_9StatementENS_12CheckNestingEEclEPNS_10Color_HSLAE W
_ZN4Sass14Operation_CRTPIPNS_9StatementENS_12CheckNestingEEclEPNS_10Color_RGBAE W
_ZN4Sass14Operation_CRTPIPNS_9StatementENS_12CheckNestingEEclEPNS_10DefinitionE W
_ZN4Sass14Operation_CRTPIPNS_9StatementENS_12CheckNestingEEclEPNS_10ExtendRuleE W
_ZN4Sass14Operation_CRTPIPNS_9StatementENS_12CheckNestingEEclEPNS_10IDSelectorE W
_ZN4Sass14Operation_CRTPIPNS_9StatementENS_12CheckNestingEEclEPNS_10Mixin_CallE W
_ZN4Sass14Operation_CRTPIPNS_9StatementENS_12CheckNestingEEclEPNS_10ParametersE W
_ZN4Sass14Operation_CRTPIPNS_9StatementENS_12CheckNestingEEclEPNS_11DeclarationE W
_ZN4Sass14Operation_CRTPIPNS_9StatementENS_12CheckNestingEEclEPNS_11Import_StubE W
_ZN4Sass14Operation_CRTPIPNS_9StatementENS_12CheckNestingEEclEPNS_11Media_QueryE W
_ZN4Sass14Operation_CRTPIPNS_9StatementENS_12CheckNestingEEclEPNS_11WarningRuleE W
_ZN4Sass14Operation_CRTPIPNS_9StatementENS_12CheckNestingEEclEPNS_12CssMediaRuleE W
_ZN4Sass14Operation_CRTPIPNS_9StatementENS_12CheckNestingEEclEPNS_12Custom_ErrorE W
_ZN4Sass14Operation_CRTPIPNS_9StatementENS_12CheckNestingEEclEPNS_12SelectorListE W
_ZN4Sass14Operation_CRTPIPNS_9StatementENS_12CheckNestingEEclEPNS_12SupportsRuleE W
_ZN4Sass14Operation_CRTPIPNS_9StatementENS_12CheckNestingEEclEPNS_12TypeSelectorE W
_ZN4Sass14Operation_CRTPIPNS_9StatementENS_12CheckNestingEEclEPNS_13At_Root_QueryE W
_ZN4Sass14Operation_CRTPIPNS_9StatementENS_12CheckNestingEEclEPNS_13ClassSelectorE W
_ZN4Sass14Operation_CRTPIPNS_9StatementENS_12CheckNestingEEclEPNS_13CssMediaQueryE W
_ZN4Sass14Operation_CRTPIPNS_9StatementENS_12CheckNestingEEclEPNS_13Function_CallE W
_ZN4Sass14Operation_CRTPIPNS_9StatementENS_12CheckNestingEEclEPNS_13Keyframe_RuleE W
_ZN4Sass14Operation_CRTPIPNS_9StatementENS_12CheckNestingEEclEPNS_13String_QuotedE W
_ZN4Sass14Operation_CRTPIPNS_9StatementENS_12CheckNestingEEclEPNS_13String_SchemaE W
_ZN4Sass14Operation_CRTPIPNS_9StatementENS_12CheckNestingEEclEPNS_14Custom_WarningE W
_ZN4Sass14Operation_CRTPIPNS_9StatementENS_12CheckNestingEEclEPNS_14PseudoSelectorE W
_ZN4Sass14Operation_CRTPIPNS_9StatementENS_12CheckNestingEEclEPNS_15ComplexSelectorE W
_ZN4Sass14Operation_CRTPIPNS_9StatementENS_12CheckNestingEEclEPNS_15Selector_SchemaE W
_ZN4Sass14Operation_CRTPIPNS_9StatementENS_12CheckNestingEEclEPNS_15String_ConstantE W
_ZN4Sass14Operation_CRTPIPNS_9StatementENS_12CheckNestingEEclEPNS_16CompoundSelectorE W
_ZN4Sass14Operation_CRTPIPNS_9StatementENS_12CheckNestingEEclEPNS_16Parent_ReferenceE W
_ZN4Sass14Operation_CRTPIPNS_9StatementENS_12CheckNestingEEclEPNS_16SupportsNegationE W
_ZN4Sass14Operation_CRTPIPNS_9StatementENS_12CheckNestingEEclEPNS_16Unary_ExpressionE W
_ZN4Sass14Operation_CRTPIPNS_9StatementENS_12CheckNestingEEclEPNS_17AttributeSelectorE W
_ZN4Sass14Operation_CRTPIPNS_9StatementENS_12CheckNestingEEclEPNS_17Binary_ExpressionE W
_ZN4Sass14Operation_CRTPIPNS_9StatementENS_12CheckNestingEEclEPNS_17SelectorComponentE W
_ZN4Sass14Operation_CRTPIPNS_9StatementENS_12CheckNestingEEclEPNS_17SupportsConditionE W
_ZN4Sass14Operation_CRTPIPNS_9StatementENS_12CheckNestingEEclEPNS_17SupportsOperationE W
_ZN4Sass14Operation_CRTPIPNS_9StatementENS_12CheckNestingEEclEPNS_18SelectorCombinatorE W
_ZN4Sass14Operation_CRTPIPNS_9StatementENS_12CheckNestingEEclEPNS_19PlaceholderSelectorE W
_ZN4Sass14Operation_CRTPIPNS_9StatementENS_12CheckNestingEEclEPNS_19SupportsDeclarationE W
_ZN4Sass14Operation_CRTPIPNS_9StatementENS_12CheckNestingEEclEPNS_22Media_Query_ExpressionE W
_ZN4Sass14Operation_CRTPIPNS_9StatementENS_12CheckNestingEEclEPNS_22Supports_InterpolationE W
_ZN4Sass14Operation_CRTPIPNS_9StatementENS_12CheckNestingEEclEPNS_2IfE W
_ZN4Sass14Operation_CRTPIPNS_9StatementENS_12CheckNestingEEclEPNS_3MapE W
_ZN4Sass14Operation_CRTPIPNS_9StatementENS_12CheckNestingEEclEPNS_4ListE W
_ZN4Sass14Operation_CRTPIPNS_9StatementENS_12CheckNestingEEclEPNS_4NullE W
_ZN4Sass14Operation_CRTPIPNS_9StatementENS_12CheckNestingEEclEPNS_5BlockE W
_ZN4Sass14Operation_CRTPIPNS_9StatementENS_12CheckNestingEEclEPNS_5ColorE W
_ZN4Sass14Operation_CRTPIPNS_9StatementENS_12CheckNestingEEclEPNS_5TraceE W
_ZN4Sass14Operation_CRTPIPNS_9StatementENS_12CheckNestingEEclEPNS_6AtRuleE W
_ZN4Sass14Operation_CRTPIPNS_9StatementENS_12CheckNestingEEclEPNS_6BubbleE W
_ZN4Sass14Operation_CRTPIPNS_9StatementENS_12CheckNestingEEclEPNS_6ImportE W
_ZN4Sass14Operation_CRTPIPNS_9StatementENS_12CheckNestingEEclEPNS_6NumberE W
_ZN4Sass14Operation_CRTPIPNS_9StatementENS_12CheckNestingEEclEPNS_6ReturnE W
_ZN4Sass14Operation_CRTPIPNS_9StatementENS_12CheckNestingEEclEPNS_7BooleanE W
_ZN4Sass14Operation_CRTPIPNS_9StatementENS_12CheckNestingEEclEPNS_7CommentE W
_ZN4Sass14Operation_CRTPIPNS_9StatementENS_12CheckNestingEEclEPNS_7ContentE W
_ZN4Sass14Operation_CRTPIPNS_9StatementENS_12CheckNestingEEclEPNS_7ForRuleE W
_ZN4Sass14Operation_CRTPIPNS_9StatementENS_12CheckNestingEEclEPNS_8AST_NodeE W
_ZN4Sass14Operation_CRTPIPNS_9StatementENS_12CheckNestingEEclEPNS_8ArgumentE W
_ZN4Sass14Operation_CRTPIPNS_9StatementENS_12CheckNestingEEclEPNS_8EachRuleE W
_ZN4Sass14Operation_CRTPIPNS_9StatementENS_12CheckNestingEEclEPNS_8FunctionE W
_ZN4Sass14Operation_CRTPIPNS_9StatementENS_12CheckNestingEEclEPNS_8VariableE W
_ZN4Sass14Operation_CRTPIPNS_9StatementENS_12CheckNestingEEclEPNS_9ArgumentsE W
_ZN4Sass14Operation_CRTPIPNS_9StatementENS_12CheckNestingEEclEPNS_9DebugRuleE W
_ZN4Sass14Operation_CRTPIPNS_9StatementENS_12CheckNestingEEclEPNS_9ErrorRuleE W
_ZN4Sass14Operation_CRTPIPNS_9StatementENS_12CheckNestingEEclEPNS_9MediaRuleE W
_ZN4Sass14Operation_CRTPIPNS_9StatementENS_12CheckNestingEEclEPNS_9ParameterE W
_ZN4Sass14Operation_CRTPIPNS_9StatementENS_12CheckNestingEEclEPNS_9StyleRuleE W
_ZN4Sass14Operation_CRTPIPNS_9StatementENS_12CheckNestingEEclEPNS_9WhileRuleE W
_ZN4Sass14Operation_CRTPIPNS_9StatementENS_6CssizeEEC1Ev W
_ZN4Sass14Operation_CRTPIPNS_9StatementENS_6CssizeEEC2Ev W
_ZN4Sass14Operation_CRTPIPNS_9StatementENS_6CssizeEEclEPNS_10AssignmentE W
_ZN4Sass14Operation_CRTPIPNS_9StatementENS_6CssizeEEclEPNS_10AtRootRuleE W
_ZN4Sass14Operation_CRTPIPNS_9StatementENS_6CssizeEEclEPNS_10Color_HSLAE W
_ZN4Sass14Operation_CRTPIPNS_9StatementENS_6CssizeEEclEPNS_10Color_RGBAE W
_ZN4Sass14Operation_CRTPIPNS_9StatementENS_6CssizeEEclEPNS_10DefinitionE W
_ZN4Sass14Operation_CRTPIPNS_9StatementENS_6CssizeEEclEPNS_10ExtendRuleE W
_ZN4Sass14Operation_CRTPIPNS_9StatementENS_6CssizeEEclEPNS_10IDSelectorE W
_ZN4Sass14Operation_CRTPIPNS_9StatementENS_6CssizeEEclEPNS_10Mixin_CallE W
_ZN4Sass14Operation_CRTPIPNS_9StatementENS_6CssizeEEclEPNS_10ParametersE W
_ZN4Sass14Operation_CRTPIPNS_9StatementENS_6CssizeEEclEPNS_11DeclarationE W
_ZN4Sass14Operation_CRTPIPNS_9StatementENS_6CssizeEEclEPNS_11Import_StubE W
_ZN4Sass14Operation_CRTPIPNS_9StatementENS_6CssizeEEclEPNS_11Media_QueryE W
_ZN4Sass14Operation_CRTPIPNS_9StatementENS_6CssizeEEclEPNS_11WarningRuleE W
_ZN4Sass14Operation_CRTPIPNS_9StatementENS_6CssizeEEclEPNS_12CssMediaRuleE W
_ZN4Sass14Operation_CRTPIPNS_9StatementENS_6CssizeEEclEPNS_12Custom_ErrorE W
_ZN4Sass14Operation_CRTPIPNS_9StatementENS_6CssizeEEclEPNS_12SelectorListE W
_ZN4Sass14Operation_CRTPIPNS_9StatementENS_6CssizeEEclEPNS_12SupportsRuleE W
_ZN4Sass14Operation_CRTPIPNS_9StatementENS_6CssizeEEclEPNS_12TypeSelectorE W
_ZN4Sass14Operation_CRTPIPNS_9StatementENS_6CssizeEEclEPNS_13At_Root_QueryE W
_ZN4Sass14Operation_CRTPIPNS_9StatementENS_6CssizeEEclEPNS_13ClassSelectorE W
_ZN4Sass14Operation_CRTPIPNS_9StatementENS_6CssizeEEclEPNS_13CssMediaQueryE W
_ZN4Sass14Operation_CRTPIPNS_9StatementENS_6CssizeEEclEPNS_13Function_CallE W
_ZN4Sass14Operation_CRTPIPNS_9StatementENS_6CssizeEEclEPNS_13Keyframe_RuleE W
_ZN4Sass14Operation_CRTPIPNS_9StatementENS_6CssizeEEclEPNS_13String_QuotedE W
_ZN4Sass14Operation_CRTPIPNS_9StatementENS_6CssizeEEclEPNS_13String_SchemaE W
_ZN4Sass14Operation_CRTPIPNS_9StatementENS_6CssizeEEclEPNS_14Custom_WarningE W
_ZN4Sass14Operation_CRTPIPNS_9StatementENS_6CssizeEEclEPNS_14PseudoSelectorE W
_ZN4Sass14Operation_CRTPIPNS_9StatementENS_6CssizeEEclEPNS_15ComplexSelectorE W
_ZN4Sass14Operation_CRTPIPNS_9StatementENS_6CssizeEEclEPNS_15Selector_SchemaE W
_ZN4Sass14Operation_CRTPIPNS_9StatementENS_6CssizeEEclEPNS_15String_ConstantE W
_ZN4Sass14Operation_CRTPIPNS_9StatementENS_6CssizeEEclEPNS_16CompoundSelectorE W
_ZN4Sass14Operation_CRTPIPNS_9StatementENS_6CssizeEEclEPNS_16Parent_ReferenceE W
_ZN4Sass14Operation_CRTPIPNS_9StatementENS_6CssizeEEclEPNS_16SupportsNegationE W
_ZN4Sass14Operation_CRTPIPNS_9StatementENS_6CssizeEEclEPNS_16Unary_ExpressionE W
_ZN4Sass14Operation_CRTPIPNS_9StatementENS_6CssizeEEclEPNS_17AttributeSelectorE W
_ZN4Sass14Operation_CRTPIPNS_9StatementENS_6CssizeEEclEPNS_17Binary_ExpressionE W
_ZN4Sass14Operation_CRTPIPNS_9StatementENS_6CssizeEEclEPNS_17SelectorComponentE W
_ZN4Sass14Operation_CRTPIPNS_9StatementENS_6CssizeEEclEPNS_17SupportsConditionE W
_ZN4Sass14Operation_CRTPIPNS_9StatementENS_6CssizeEEclEPNS_17SupportsOperationE W
_ZN4Sass14Operation_CRTPIPNS_9StatementENS_6CssizeEEclEPNS_18SelectorCombinatorE W
_ZN4Sass14Operation_CRTPIPNS_9StatementENS_6CssizeEEclEPNS_19PlaceholderSelectorE W
_ZN4Sass14Operation_CRTPIPNS_9StatementENS_6CssizeEEclEPNS_19SupportsDeclarationE W
_ZN4Sass14Operation_CRTPIPNS_9StatementENS_6CssizeEEclEPNS_22Media_Query_ExpressionE W
_ZN4Sass14Operation_CRTPIPNS_9StatementENS_6CssizeEEclEPNS_22Supports_InterpolationE W
_ZN4Sass14Operation_CRTPIPNS_9StatementENS_6CssizeEEclEPNS_2IfE W
_ZN4Sass14Operation_CRTPIPNS_9StatementENS_6CssizeEEclEPNS_3MapE W
_ZN4Sass14Operation_CRTPIPNS_9StatementENS_6CssizeEEclEPNS_4ListE W
_ZN4Sass14Operation_CRTPIPNS_9StatementENS_6CssizeEEclEPNS_4NullE W
_ZN4Sass14Operation_CRTPIPNS_9StatementENS_6CssizeEEclEPNS_5BlockE W
_ZN4Sass14Operation_CRTPIPNS_9StatementENS_6CssizeEEclEPNS_5ColorE W
_ZN4Sass14Operation_CRTPIPNS_9StatementENS_6CssizeEEclEPNS_5TraceE W
_ZN4Sass14Operation_CRTPIPNS_9StatementENS_6CssizeEEclEPNS_6AtRuleE W
_ZN4Sass14Operation_CRTPIPNS_9StatementENS_6CssizeEEclEPNS_6BubbleE W
_ZN4Sass14Operation_CRTPIPNS_9StatementENS_6CssizeEEclEPNS_6ImportE W
_ZN4Sass14Operation_CRTPIPNS_9StatementENS_6CssizeEEclEPNS_6NumberE W
_ZN4Sass14Operation_CRTPIPNS_9StatementENS_6CssizeEEclEPNS_6ReturnE W
_ZN4Sass14Operation_CRTPIPNS_9StatementENS_6CssizeEEclEPNS_7BooleanE W
_ZN4Sass14Operation_CRTPIPNS_9StatementENS_6CssizeEEclEPNS_7CommentE W
_ZN4Sass14Operation_CRTPIPNS_9StatementENS_6CssizeEEclEPNS_7ContentE W
_ZN4Sass14Operation_CRTPIPNS_9StatementENS_6CssizeEEclEPNS_7ForRuleE W
_ZN4Sass14Operation_CRTPIPNS_9StatementENS_6CssizeEEclEPNS_8AST_NodeE W
_ZN4Sass14Operation_CRTPIPNS_9StatementENS_6CssizeEEclEPNS_8ArgumentE W
_ZN4Sass14Operation_CRTPIPNS_9StatementENS_6CssizeEEclEPNS_8EachRuleE W
_ZN4Sass14Operation_CRTPIPNS_9StatementENS_6CssizeEEclEPNS_8FunctionE W
_ZN4Sass14Operation_CRTPIPNS_9StatementENS_6CssizeEEclEPNS_8VariableE W
_ZN4Sass14Operation_CRTPIPNS_9StatementENS_6CssizeEEclEPNS_9ArgumentsE W
_ZN4Sass14Operation_CRTPIPNS_9StatementENS_6CssizeEEclEPNS_9DebugRuleE W
_ZN4Sass14Operation_CRTPIPNS_9StatementENS_6CssizeEEclEPNS_9ErrorRuleE W
_ZN4Sass14Operation_CRTPIPNS_9StatementENS_6CssizeEEclEPNS_9MediaRuleE W
_ZN4Sass14Operation_CRTPIPNS_9StatementENS_6CssizeEEclEPNS_9ParameterE W
_ZN4Sass14Operation_CRTPIPNS_9StatementENS_6CssizeEEclEPNS_9StyleRuleE W
_ZN4Sass14Operation_CRTPIPNS_9StatementENS_6CssizeEEclEPNS_9WhileRuleE W
_ZN4Sass14Operation_CRTPIPNS_9StatementENS_6ExpandEE8fallbackIPNS_10AssignmentEEES2_T_ W
_ZN4Sass14Operation_CRTPIPNS_9StatementENS_6ExpandEE8fallbackIPNS_10AtRootRuleEEES2_T_ W
_ZN4Sass14Operation_CRTPIPNS_9StatementENS_6ExpandEE8fallbackIPNS_10Color_HSLAEEES2_T_ W
_ZN4Sass14Operation_CRTPIPNS_9StatementENS_6ExpandEE8fallbackIPNS_10Color_RGBAEEES2_T_ W
_ZN4Sass14Operation_CRTPIPNS_9StatementENS_6ExpandEE8fallbackIPNS_10DefinitionEEES2_T_ W
_ZN4Sass14Operation_CRTPIPNS_9StatementENS_6ExpandEE8fallbackIPNS_10ExtendRuleEEES2_T_ W
_ZN4Sass14Operation_CRTPIPNS_9StatementENS_6ExpandEE8fallbackIPNS_10IDSelectorEEES2_T_ W
_ZN4Sass14Operation_CRTPIPNS_9StatementENS_6ExpandEE8fallbackIPNS_10Mixin_CallEEES2_T_ W
_ZN4Sass14Operation_CRTPIPNS_9StatementENS_6ExpandEE8fallbackIPNS_10ParametersEEES2_T_ W
_ZN4Sass14Operation_CRTPIPNS_9StatementENS_6ExpandEE8fallbackIPNS_11DeclarationEEES2_T_ W
_ZN4Sass14Operation_CRTPIPNS_9StatementENS_6ExpandEE8fallbackIPNS_11Import_StubEEES2_T_ W
_ZN4Sass14Operation_CRTPIPNS_9StatementENS_6ExpandEE8fallbackIPNS_11Media_QueryEEES2_T_ W
_ZN4Sass14Operation_CRTPIPNS_9StatementENS_6ExpandEE8fallbackIPNS_11WarningRuleEEES2_T_ W
_ZN4Sass14Operation_CRTPIPNS_9StatementENS_6ExpandEE8fallbackIPNS_12CssMediaRuleEEES2_T_ W
_ZN4Sass14Operation_CRTPIPNS_9StatementENS_6ExpandEE8fallbackIPNS_12Custom_ErrorEEES2_T_ W
_ZN4Sass14Operation_CRTPIPNS_9StatementENS_6ExpandEE8fallbackIPNS_12SelectorListEEES2_T_ W
_ZN4Sass14Operation_CRTPIPNS_9StatementENS_6ExpandEE8fallbackIPNS_12SupportsRuleEEES2_T_ W
_ZN4Sass14Operation_CRTPIPNS_9StatementENS_6ExpandEE8fallbackIPNS_12TypeSelectorEEES2_T_ W
_ZN4Sass14Operation_CRTPIPNS_9StatementENS_6ExpandEE8fallbackIPNS_13At_Root_QueryEEES2_T_ W
_ZN4Sass14Operation_CRTPIPNS_9StatementENS_6ExpandEE8fallbackIPNS_13ClassSelectorEEES2_T_ W
_ZN4Sass14Operation_CRTPIPNS_9StatementENS_6ExpandEE8fallbackIPNS_13CssMediaQueryEEES2_T_ W
_ZN4Sass14Operation_CRTPIPNS_9StatementENS_6ExpandEE8fallbackIPNS_13Function_CallEEES2_T_ W
_ZN4Sass14Operation_CRTPIPNS_9StatementENS_6ExpandEE8fallbackIPNS_13Keyframe_RuleEEES2_T_ W
_ZN4Sass14Operation_CRTPIPNS_9StatementENS_6ExpandEE8fallbackIPNS_13String_QuotedEEES2_T_ W
_ZN4Sass14Operation_CRTPIPNS_9StatementENS_6ExpandEE8fallbackIPNS_13String_SchemaEEES2_T_ W
_ZN4Sass14Operation_CRTPIPNS_9StatementENS_6ExpandEE8fallbackIPNS_14Custom_WarningEEES2_T_ W
_ZN4Sass14Operation_CRTPIPNS_9StatementENS_6ExpandEE8fallbackIPNS_14PseudoSelectorEEES2_T_ W
_ZN4Sass14Operation_CRTPIPNS_9StatementENS_6ExpandEE8fallbackIPNS_15ComplexSelectorEEES2_T_ W
_ZN4Sass14Operation_CRTPIPNS_9StatementENS_6ExpandEE8fallbackIPNS_15Selector_SchemaEEES2_T_ W
_ZN4Sass14Operation_CRTPIPNS_9StatementENS_6ExpandEE8fallbackIPNS_15String_ConstantEEES2_T_ W
_ZN4Sass14Operation_CRTPIPNS_9StatementENS_6ExpandEE8fallbackIPNS_16CompoundSelectorEEES2_T_ W
_ZN4Sass14Operation_CRTPIPNS_9StatementENS_6ExpandEE8fallbackIPNS_16Parent_ReferenceEEES2_T_ W
_ZN4Sass14Operation_CRTPIPNS_9StatementENS_6ExpandEE8fallbackIPNS_16SupportsNegationEEES2_T_ W
_ZN4Sass14Operation_CRTPIPNS_9StatementENS_6ExpandEE8fallbackIPNS_16Unary_ExpressionEEES2_T_ W
_ZN4Sass14Operation_CRTPIPNS_9StatementENS_6ExpandEE8fallbackIPNS_17AttributeSelectorEEES2_T_ W
_ZN4Sass14Operation_CRTPIPNS_9StatementENS_6ExpandEE8fallbackIPNS_17Binary_ExpressionEEES2_T_ W
_ZN4Sass14Operation_CRTPIPNS_9StatementENS_6ExpandEE8fallbackIPNS_17SelectorComponentEEES2_T_ W
_ZN4Sass14Operation_CRTPIPNS_9StatementENS_6ExpandEE8fallbackIPNS_17SupportsConditionEEES2_T_ W
_ZN4Sass14Operation_CRTPIPNS_9StatementENS_6ExpandEE8fallbackIPNS_17SupportsOperationEEES2_T_ W
_ZN4Sass14Operation_CRTPIPNS_9StatementENS_6ExpandEE8fallbackIPNS_18SelectorCombinatorEEES2_T_ W
_ZN4Sass14Operation_CRTPIPNS_9StatementENS_6ExpandEE8fallbackIPNS_19PlaceholderSelectorEEES2_T_ W
_ZN4Sass14Operation_CRTPIPNS_9StatementENS_6ExpandEE8fallbackIPNS_19SupportsDeclarationEEES2_T_ W
_ZN4Sass14Operation_CRTPIPNS_9StatementENS_6ExpandEE8fallbackIPNS_22Media_Query_ExpressionEEES2_T_ W
_ZN4Sass14Operation_CRTPIPNS_9StatementENS_6ExpandEE8fallbackIPNS_22Supports_InterpolationEEES2_T_ W
_ZN4Sass14Operation_CRTPIPNS_9StatementENS_6ExpandEE8fallbackIPNS_2IfEEES2_T_ W
_ZN4Sass14Operation_CRTPIPNS_9StatementENS_6ExpandEE8fallbackIPNS_3MapEEES2_T_ W
_ZN4Sass14Operation_CRTPIPNS_9StatementENS_6ExpandEE8fallbackIPNS_4ListEEES2_T_ W
_ZN4Sass14Operation_CRTPIPNS_9StatementENS_6ExpandEE8fallbackIPNS_4NullEEES2_T_ W
_ZN4Sass14Operation_CRTPIPNS_9StatementENS_6ExpandEE8fallbackIPNS_5BlockEEES2_T_ W
_ZN4Sass14Operation_CRTPIPNS_9StatementENS_6ExpandEE8fallbackIPNS_5ColorEEES2_T_ W
_ZN4Sass14Operation_CRTPIPNS_9StatementENS_6ExpandEE8fallbackIPNS_5TraceEEES2_T_ W
_ZN4Sass14Operation_CRTPIPNS_9StatementENS_6ExpandEE8fallbackIPNS_6AtRuleEEES2_T_ W
_ZN4Sass14Operation_CRTPIPNS_9StatementENS_6ExpandEE8fallbackIPNS_6BubbleEEES2_T_ W
_ZN4Sass14Operation_CRTPIPNS_9StatementENS_6ExpandEE8fallbackIPNS_6ImportEEES2_T_ W
_ZN4Sass14Operation_CRTPIPNS_9StatementENS_6ExpandEE8fallbackIPNS_6NumberEEES2_T_ W
_ZN4Sass14Operation_CRTPIPNS_9StatementENS_6ExpandEE8fallbackIPNS_6ReturnEEES2_T_ W
_ZN4Sass14Operation_CRTPIPNS_9StatementENS_6ExpandEE8fallbackIPNS_7BooleanEEES2_T_ W
_ZN4Sass14Operation_CRTPIPNS_9StatementENS_6ExpandEE8fallbackIPNS_7CommentEEES2_T_ W
_ZN4Sass14Operation_CRTPIPNS_9StatementENS_6ExpandEE8fallbackIPNS_7ContentEEES2_T_ W
_ZN4Sass14Operation_CRTPIPNS_9StatementENS_6ExpandEE8fallbackIPNS_7ForRuleEEES2_T_ W
_ZN4Sass14Operation_CRTPIPNS_9StatementENS_6ExpandEE8fallbackIPNS_8AST_NodeEEES2_T_ W
_ZN4Sass14Operation_CRTPIPNS_9StatementENS_6ExpandEE8fallbackIPNS_8ArgumentEEES2_T_ W
_ZN4Sass14Operation_CRTPIPNS_9StatementENS_6ExpandEE8fallbackIPNS_8EachRuleEEES2_T_ W
_ZN4Sass14Operation_CRTPIPNS_9StatementENS_6ExpandEE8fallbackIPNS_8FunctionEEES2_T_ W
_ZN4Sass14Operation_CRTPIPNS_9StatementENS_6ExpandEE8fallbackIPNS_8VariableEEES2_T_ W
_ZN4Sass14Operation_CRTPIPNS_9StatementENS_6ExpandEE8fallbackIPNS_9ArgumentsEEES2_T_ W
_ZN4Sass14Operation_CRTPIPNS_9StatementENS_6ExpandEE8fallbackIPNS_9DebugRuleEEES2_T_ W
_ZN4Sass14Operation_CRTPIPNS_9StatementENS_6ExpandEE8fallbackIPNS_9ErrorRuleEEES2_T_ W
_ZN4Sass14Operation_CRTPIPNS_9StatementENS_6ExpandEE8fallbackIPNS_9MediaRuleEEES2_T_ W
_ZN4Sass14Operation_CRTPIPNS_9StatementENS_6ExpandEE8fallbackIPNS_9ParameterEEES2_T_ W
_ZN4Sass14Operation_CRTPIPNS_9StatementENS_6ExpandEE8fallbackIPNS_9StyleRuleEEES2_T_ W
_ZN4Sass14Operation_CRTPIPNS_9StatementENS_6ExpandEE8fallbackIPNS_9WhileRuleEEES2_T_ W
_ZN4Sass14Operation_CRTPIPNS_9StatementENS_6ExpandEEC1Ev W
_ZN4Sass14Operation_CRTPIPNS_9StatementENS_6ExpandEEC2Ev W
_ZN4Sass14Operation_CRTPIPNS_9StatementENS_6ExpandEEclEPNS_10AssignmentE W
_ZN4Sass14Operation_CRTPIPNS_9StatementENS_6ExpandEEclEPNS_10AtRootRuleE W
_ZN4Sass14Operation_CRTPIPNS_9StatementENS_6ExpandEEclEPNS_10Color_HSLAE W
_ZN4Sass14Operation_CRTPIPNS_9StatementENS_6ExpandEEclEPNS_10Color_RGBAE W
_ZN4Sass14Operation_CRTPIPNS_9StatementENS_6ExpandEEclEPNS_10DefinitionE W
_ZN4Sass14Operation_CRTPIPNS_9StatementENS_6ExpandEEclEPNS_10ExtendRuleE W
_ZN4Sass14Operation_CRTPIPNS_9StatementENS_6ExpandEEclEPNS_10IDSelectorE W
_ZN4Sass14Operation_CRTPIPNS_9StatementENS_6ExpandEEclEPNS_10Mixin_CallE W
_ZN4Sass14Operation_CRTPIPNS_9StatementENS_6ExpandEEclEPNS_10ParametersE W
_ZN4Sass14Operation_CRTPIPNS_9StatementENS_6ExpandEEclEPNS_11DeclarationE W
_ZN4Sass14Operation_CRTPIPNS_9StatementENS_6ExpandEEclEPNS_11Import_StubE W
_ZN4Sass14Operation_CRTPIPNS_9StatementENS_6ExpandEEclEPNS_11Media_QueryE W
_ZN4Sass14Operation_CRTPIPNS_9StatementENS_6ExpandEEclEPNS_11WarningRuleE W
_ZN4Sass14Operation_CRTPIPNS_9StatementENS_6ExpandEEclEPNS_12CssMediaRuleE W
_ZN4Sass14Operation_CRTPIPNS_9StatementENS_6ExpandEEclEPNS_12Custom_ErrorE W
_ZN4Sass14Operation_CRTPIPNS_9StatementENS_6ExpandEEclEPNS_12SelectorListE W
_ZN4Sass14Operation_CRTPIPNS_9StatementENS_6ExpandEEclEPNS_12SupportsRuleE W
_ZN4Sass14Operation_CRTPIPNS_9StatementENS_6ExpandEEclEPNS_12TypeSelectorE W
_ZN4Sass14Operation_CRTPIPNS_9StatementENS_6ExpandEEclEPNS_13At_Root_QueryE W
_ZN4Sass14Operation_CRTPIPNS_9StatementENS_6ExpandEEclEPNS_13ClassSelectorE W
_ZN4Sass14Operation_CRTPIPNS_9StatementENS_6ExpandEEclEPNS_13CssMediaQueryE W
_ZN4Sass14Operation_CRTPIPNS_9StatementENS_6ExpandEEclEPNS_13Function_CallE W
_ZN4Sass14Operation_CRTPIPNS_9StatementENS_6ExpandEEclEPNS_13Keyframe_RuleE W
_ZN4Sass14Operation_CRTPIPNS_9StatementENS_6ExpandEEclEPNS_13String_QuotedE W
_ZN4Sass14Operation_CRTPIPNS_9StatementENS_6ExpandEEclEPNS_13String_SchemaE W
_ZN4Sass14Operation_CRTPIPNS_9StatementENS_6ExpandEEclEPNS_14Custom_WarningE W
_ZN4Sass14Operation_CRTPIPNS_9StatementENS_6ExpandEEclEPNS_14PseudoSelectorE W
_ZN4Sass14Operation_CRTPIPNS_9StatementENS_6ExpandEEclEPNS_15ComplexSelectorE W
_ZN4Sass14Operation_CRTPIPNS_9StatementENS_6ExpandEEclEPNS_15Selector_SchemaE W
_ZN4Sass14Operation_CRTPIPNS_9StatementENS_6ExpandEEclEPNS_15String_ConstantE W
_ZN4Sass14Operation_CRTPIPNS_9StatementENS_6ExpandEEclEPNS_16CompoundSelectorE W
_ZN4Sass14Operation_CRTPIPNS_9StatementENS_6ExpandEEclEPNS_16Parent_ReferenceE W
_ZN4Sass14Operation_CRTPIPNS_9StatementENS_6ExpandEEclEPNS_16SupportsNegationE W
_ZN4Sass14Operation_CRTPIPNS_9StatementENS_6ExpandEEclEPNS_16Unary_ExpressionE W
_ZN4Sass14Operation_CRTPIPNS_9StatementENS_6ExpandEEclEPNS_17AttributeSelectorE W
_ZN4Sass14Operation_CRTPIPNS_9StatementENS_6ExpandEEclEPNS_17Binary_ExpressionE W
_ZN4Sass14Operation_CRTPIPNS_9StatementENS_6ExpandEEclEPNS_17SelectorComponentE W
_ZN4Sass14Operation_CRTPIPNS_9StatementENS_6ExpandEEclEPNS_17SupportsConditionE W
_ZN4Sass14Operation_CRTPIPNS_9StatementENS_6ExpandEEclEPNS_17SupportsOperationE W
_ZN4Sass14Operation_CRTPIPNS_9StatementENS_6ExpandEEclEPNS_18SelectorCombinatorE W
_ZN4Sass14Operation_CRTPIPNS_9StatementENS_6ExpandEEclEPNS_19PlaceholderSelectorE W
_ZN4Sass14Operation_CRTPIPNS_9StatementENS_6ExpandEEclEPNS_19SupportsDeclarationE W
_ZN4Sass14Operation_CRTPIPNS_9StatementENS_6ExpandEEclEPNS_22Media_Query_ExpressionE W
_ZN4Sass14Operation_CRTPIPNS_9StatementENS_6ExpandEEclEPNS_22Supports_InterpolationE W
_ZN4Sass14Operation_CRTPIPNS_9StatementENS_6ExpandEEclEPNS_2IfE W
_ZN4Sass14Operation_CRTPIPNS_9StatementENS_6ExpandEEclEPNS_3MapE W
_ZN4Sass14Operation_CRTPIPNS_9StatementENS_6ExpandEEclEPNS_4ListE W
_ZN4Sass14Operation_CRTPIPNS_9StatementENS_6ExpandEEclEPNS_4NullE W
_ZN4Sass14Operation_CRTPIPNS_9StatementENS_6ExpandEEclEPNS_5BlockE W
_ZN4Sass14Operation_CRTPIPNS_9StatementENS_6ExpandEEclEPNS_5ColorE W
_ZN4Sass14Operation_CRTPIPNS_9StatementENS_6ExpandEEclEPNS_5TraceE W
_ZN4Sass14Operation_CRTPIPNS_9StatementENS_6ExpandEEclEPNS_6AtRuleE W
_ZN4Sass14Operation_CRTPIPNS_9StatementENS_6ExpandEEclEPNS_6BubbleE W
_ZN4Sass14Operation_CRTPIPNS_9StatementENS_6ExpandEEclEPNS_6ImportE W
_ZN4Sass14Operation_CRTPIPNS_9StatementENS_6ExpandEEclEPNS_6NumberE W
_ZN4Sass14Operation_CRTPIPNS_9StatementENS_6ExpandEEclEPNS_6ReturnE W
_ZN4Sass14Operation_CRTPIPNS_9StatementENS_6ExpandEEclEPNS_7BooleanE W
_ZN4Sass14Operation_CRTPIPNS_9StatementENS_6ExpandEEclEPNS_7CommentE W
_ZN4Sass14Operation_CRTPIPNS_9StatementENS_6ExpandEEclEPNS_7ContentE W
_ZN4Sass14Operation_CRTPIPNS_9StatementENS_6ExpandEEclEPNS_7ForRuleE W
_ZN4Sass14Operation_CRTPIPNS_9StatementENS_6ExpandEEclEPNS_8AST_NodeE W
_ZN4Sass14Operation_CRTPIPNS_9StatementENS_6ExpandEEclEPNS_8ArgumentE W
_ZN4Sass14Operation_CRTPIPNS_9StatementENS_6ExpandEEclEPNS_8EachRuleE W
_ZN4Sass14Operation_CRTPIPNS_9StatementENS_6ExpandEEclEPNS_8FunctionE W
_ZN4Sass14Operation_CRTPIPNS_9StatementENS_6ExpandEEclEPNS_8VariableE W
_ZN4Sass14Operation_CRTPIPNS_9StatementENS_6ExpandEEclEPNS_9ArgumentsE W
_ZN4Sass14Operation_CRTPIPNS_9StatementENS_6ExpandEEclEPNS_9DebugRuleE W
_ZN4Sass14Operation_CRTPIPNS_9StatementENS_6ExpandEEclEPNS_9ErrorRuleE W
_ZN4Sass14Operation_CRTPIPNS_9StatementENS_6ExpandEEclEPNS_9MediaRuleE W
_ZN4Sass14Operation_CRTPIPNS_9StatementENS_6ExpandEEclEPNS_9ParameterE W
_ZN4Sass14Operation_CRTPIPNS_9StatementENS_6ExpandEEclEPNS_9StyleRuleE W
_ZN4Sass14Operation_CRTPIPNS_9StatementENS_6ExpandEEclEPNS_9WhileRuleE W
_ZN4Sass14Operation_CRTPIvNS_19Remove_PlaceholdersEEC1Ev W
_ZN4Sass14Operation_CRTPIvNS_19Remove_PlaceholdersEEC2Ev W
_ZN4Sass14Operation_CRTPIvNS_19Remove_PlaceholdersEEclEPNS_10AssignmentE W
_ZN4Sass14Operation_CRTPIvNS_19Remove_PlaceholdersEEclEPNS_10AtRootRuleE W
_ZN4Sass14Operation_CRTPIvNS_19Remove_PlaceholdersEEclEPNS_10Color_HSLAE W
_ZN4Sass14Operation_CRTPIvNS_19Remove_PlaceholdersEEclEPNS_10Color_RGBAE W
_ZN4Sass14Operation_CRTPIvNS_19Remove_PlaceholdersEEclEPNS_10DefinitionE W
_ZN4Sass14Operation_CRTPIvNS_19Remove_PlaceholdersEEclEPNS_10ExtendRuleE W
_ZN4Sass14Operation_CRTPIvNS_19Remove_PlaceholdersEEclEPNS_10IDSelectorE W
_ZN4Sass14Operation_CRTPIvNS_19Remove_PlaceholdersEEclEPNS_10Mixin_CallE W
_ZN4Sass14Operation_CRTPIvNS_19Remove_PlaceholdersEEclEPNS_10ParametersE W
_ZN4Sass14Operation_CRTPIvNS_19Remove_PlaceholdersEEclEPNS_11DeclarationE W
_ZN4Sass14Operation_CRTPIvNS_19Remove_PlaceholdersEEclEPNS_11Import_StubE W
_ZN4Sass14Operation_CRTPIvNS_19Remove_PlaceholdersEEclEPNS_11Media_QueryE W
_ZN4Sass14Operation_CRTPIvNS_19Remove_PlaceholdersEEclEPNS_11WarningRuleE W
_ZN4Sass14Operation_CRTPIvNS_19Remove_PlaceholdersEEclEPNS_12CssMediaRuleE W
_ZN4Sass14Operation_CRTPIvNS_19Remove_PlaceholdersEEclEPNS_12Custom_ErrorE W
_ZN4Sass14Operation_CRTPIvNS_19Remove_PlaceholdersEEclEPNS_12SelectorListE W
_ZN4Sass14Operation_CRTPIvNS_19Remove_PlaceholdersEEclEPNS_12SupportsRuleE W
_ZN4Sass14Operation_CRTPIvNS_19Remove_PlaceholdersEEclEPNS_12TypeSelectorE W
_ZN4Sass14Operation_CRTPIvNS_19Remove_PlaceholdersEEclEPNS_13At_Root_QueryE W
_ZN4Sass14Operation_CRTPIvNS_19Remove_PlaceholdersEEclEPNS_13ClassSelectorE W
_ZN4Sass14Operation_CRTPIvNS_19Remove_PlaceholdersEEclEPNS_13CssMediaQueryE W
_ZN4Sass14Operation_CRTPIvNS_19Remove_PlaceholdersEEclEPNS_13Function_CallE W
_ZN4Sass14Operation_CRTPIvNS_19Remove_PlaceholdersEEclEPNS_13Keyframe_RuleE W
_ZN4Sass14Operation_CRTPIvNS_19Remove_PlaceholdersEEclEPNS_13String_QuotedE W
_ZN4Sass14Operation_CRTPIvNS_19Remove_PlaceholdersEEclEPNS_13String_SchemaE W
_ZN4Sass14Operation_CRTPIvNS_19Remove_PlaceholdersEEclEPNS_14Custom_WarningE W
_ZN4Sass14Operation_CRTPIvNS_19Remove_PlaceholdersEEclEPNS_14PseudoSelectorE W
_ZN4Sass14Operation_CRTPIvNS_19Remove_PlaceholdersEEclEPNS_15ComplexSelectorE W
_ZN4Sass14Operation_CRTPIvNS_19Remove_PlaceholdersEEclEPNS_15Selector_SchemaE W
_ZN4Sass14Operation_CRTPIvNS_19Remove_PlaceholdersEEclEPNS_15String_ConstantE W
_ZN4Sass14Operation_CRTPIvNS_19Remove_PlaceholdersEEclEPNS_16CompoundSelectorE W
_ZN4Sass14Operation_CRTPIvNS_19Remove_PlaceholdersEEclEPNS_16Parent_ReferenceE W
_ZN4Sass14Operation_CRTPIvNS_19Remove_PlaceholdersEEclEPNS_16SupportsNegationE W
_ZN4Sass14Operation_CRTPIvNS_19Remove_PlaceholdersEEclEPNS_16Unary_ExpressionE W
_ZN4Sass14Operation_CRTPIvNS_19Remove_PlaceholdersEEclEPNS_17AttributeSelectorE W
_ZN4Sass14Operation_CRTPIvNS_19Remove_PlaceholdersEEclEPNS_17Binary_ExpressionE W
_ZN4Sass14Operation_CRTPIvNS_19Remove_PlaceholdersEEclEPNS_17SelectorComponentE W
_ZN4Sass14Operation_CRTPIvNS_19Remove_PlaceholdersEEclEPNS_17SupportsConditionE W
_ZN4Sass14Operation_CRTPIvNS_19Remove_PlaceholdersEEclEPNS_17SupportsOperationE W
_ZN4Sass14Operation_CRTPIvNS_19Remove_PlaceholdersEEclEPNS_18SelectorCombinatorE W
_ZN4Sass14Operation_CRTPIvNS_19Remove_PlaceholdersEEclEPNS_19PlaceholderSelectorE W
_ZN4Sass14Operation_CRTPIvNS_19Remove_PlaceholdersEEclEPNS_19SupportsDeclarationE W
_ZN4Sass14Operation_CRTPIvNS_19Remove_PlaceholdersEEclEPNS_22Media_Query_ExpressionE W
_ZN4Sass14Operation_CRTPIvNS_19Remove_PlaceholdersEEclEPNS_22Supports_InterpolationE W
_ZN4Sass14Operation_CRTPIvNS_19Remove_PlaceholdersEEclEPNS_2IfE W
_ZN4Sass14Operation_CRTPIvNS_19Remove_PlaceholdersEEclEPNS_3MapE W
_ZN4Sass14Operation_CRTPIvNS_19Remove_PlaceholdersEEclEPNS_4ListE W
_ZN4Sass14Operation_CRTPIvNS_19Remove_PlaceholdersEEclEPNS_4NullE W
_ZN4Sass14Operation_CRTPIvNS_19Remove_PlaceholdersEEclEPNS_5BlockE W
_ZN4Sass14Operation_CRTPIvNS_19Remove_PlaceholdersEEclEPNS_5ColorE W
_ZN4Sass14Operation_CRTPIvNS_19Remove_PlaceholdersEEclEPNS_5TraceE W
_ZN4Sass14Operation_CRTPIvNS_19Remove_PlaceholdersEEclEPNS_6AtRuleE W
_ZN4Sass14Operation_CRTPIvNS_19Remove_PlaceholdersEEclEPNS_6BubbleE W
_ZN4Sass14Operation_CRTPIvNS_19Remove_PlaceholdersEEclEPNS_6ImportE W
_ZN4Sass14Operation_CRTPIvNS_19Remove_PlaceholdersEEclEPNS_6NumberE W
_ZN4Sass14Operation_CRTPIvNS_19Remove_PlaceholdersEEclEPNS_6ReturnE W
_ZN4Sass14Operation_CRTPIvNS_19Remove_PlaceholdersEEclEPNS_7BooleanE W
_ZN4Sass14Operation_CRTPIvNS_19Remove_PlaceholdersEEclEPNS_7CommentE W
_ZN4Sass14Operation_CRTPIvNS_19Remove_PlaceholdersEEclEPNS_7ContentE W
_ZN4Sass14Operation_CRTPIvNS_19Remove_PlaceholdersEEclEPNS_7ForRuleE W
_ZN4Sass14Operation_CRTPIvNS_19Remove_PlaceholdersEEclEPNS_8AST_NodeE W
_ZN4Sass14Operation_CRTPIvNS_19Remove_PlaceholdersEEclEPNS_8ArgumentE W
_ZN4Sass14Operation_CRTPIvNS_19Remove_PlaceholdersEEclEPNS_8EachRuleE W
_ZN4Sass14Operation_CRTPIvNS_19Remove_PlaceholdersEEclEPNS_8FunctionE W
_ZN4Sass14Operation_CRTPIvNS_19Remove_PlaceholdersEEclEPNS_8VariableE W
_ZN4Sass14Operation_CRTPIvNS_19Remove_PlaceholdersEEclEPNS_9ArgumentsE W
_ZN4Sass14Operation_CRTPIvNS_19Remove_PlaceholdersEEclEPNS_9DebugRuleE W
_ZN4Sass14Operation_CRTPIvNS_19Remove_PlaceholdersEEclEPNS_9ErrorRuleE W
_ZN4Sass14Operation_CRTPIvNS_19Remove_PlaceholdersEEclEPNS_9MediaRuleE W
_ZN4Sass14Operation_CRTPIvNS_19Remove_PlaceholdersEEclEPNS_9ParameterE W
_ZN4Sass14Operation_CRTPIvNS_19Remove_PlaceholdersEEclEPNS_9StyleRuleE W
_ZN4Sass14Operation_CRTPIvNS_19Remove_PlaceholdersEEclEPNS_9WhileRuleE W
_ZN4Sass14Operation_CRTPIvNS_7InspectEE8fallbackIPNS_10AssignmentEEEvT_ W
_ZN4Sass14Operation_CRTPIvNS_7InspectEE8fallbackIPNS_10AtRootRuleEEEvT_ W
_ZN4Sass14Operation_CRTPIvNS_7InspectEE8fallbackIPNS_10Color_HSLAEEEvT_ W
_ZN4Sass14Operation_CRTPIvNS_7InspectEE8fallbackIPNS_10Color_RGBAEEEvT_ W
_ZN4Sass14Operation_CRTPIvNS_7InspectEE8fallbackIPNS_10DefinitionEEEvT_ W
_ZN4Sass14Operation_CRTPIvNS_7InspectEE8fallbackIPNS_10ExtendRuleEEEvT_ W
_ZN4Sass14Operation_CRTPIvNS_7InspectEE8fallbackIPNS_10IDSelectorEEEvT_ W
_ZN4Sass14Operation_CRTPIvNS_7InspectEE8fallbackIPNS_10Mixin_CallEEEvT_ W
_ZN4Sass14Operation_CRTPIvNS_7InspectEE8fallbackIPNS_10ParametersEEEvT_ W
_ZN4Sass14Operation_CRTPIvNS_7InspectEE8fallbackIPNS_11DeclarationEEEvT_ W
_ZN4Sass14Operation_CRTPIvNS_7InspectEE8fallbackIPNS_11Import_StubEEEvT_ W
_ZN4Sass14Operation_CRTPIvNS_7InspectEE8fallbackIPNS_11Media_QueryEEEvT_ W
_ZN4Sass14Operation_CRTPIvNS_7InspectEE8fallbackIPNS_11WarningRuleEEEvT_ W
_ZN4Sass14Operation_CRTPIvNS_7InspectEE8fallbackIPNS_12CssMediaRuleEEEvT_ W
_ZN4Sass14Operation_CRTPIvNS_7InspectEE8fallbackIPNS_12Custom_ErrorEEEvT_ W
_ZN4Sass14Operation_CRTPIvNS_7InspectEE8fallbackIPNS_12SelectorListEEEvT_ W
_ZN4Sass14Operation_CRTPIvNS_7InspectEE8fallbackIPNS_12SupportsRuleEEEvT_ W
_ZN4Sass14Operation_CRTPIvNS_7InspectEE8fallbackIPNS_12TypeSelectorEEEvT_ W
_ZN4Sass14Operation_CRTPIvNS_7InspectEE8fallbackIPNS_13At_Root_QueryEEEvT_ W
_ZN4Sass14Operation_CRTPIvNS_7InspectEE8fallbackIPNS_13ClassSelectorEEEvT_ W
_ZN4Sass14Operation_CRTPIvNS_7InspectEE8fallbackIPNS_13CssMediaQueryEEEvT_ W
_ZN4Sass14Operation_CRTPIvNS_7InspectEE8fallbackIPNS_13Function_CallEEEvT_ W
_ZN4Sass14Operation_CRTPIvNS_7InspectEE8fallbackIPNS_13Keyframe_RuleEEEvT_ W
_ZN4Sass14Operation_CRTPIvNS_7InspectEE8fallbackIPNS_13String_QuotedEEEvT_ W
_ZN4Sass14Operation_CRTPIvNS_7InspectEE8fallbackIPNS_13String_SchemaEEEvT_ W
_ZN4Sass14Operation_CRTPIvNS_7InspectEE8fallbackIPNS_14Custom_WarningEEEvT_ W
_ZN4Sass14Operation_CRTPIvNS_7InspectEE8fallbackIPNS_14PseudoSelectorEEEvT_ W
_ZN4Sass14Operation_CRTPIvNS_7InspectEE8fallbackIPNS_15ComplexSelectorEEEvT_ W
_ZN4Sass14Operation_CRTPIvNS_7InspectEE8fallbackIPNS_15Selector_SchemaEEEvT_ W
_ZN4Sass14Operation_CRTPIvNS_7InspectEE8fallbackIPNS_15String_ConstantEEEvT_ W
_ZN4Sass14Operation_CRTPIvNS_7InspectEE8fallbackIPNS_16CompoundSelectorEEEvT_ W
_ZN4Sass14Operation_CRTPIvNS_7InspectEE8fallbackIPNS_16Parent_ReferenceEEEvT_ W
_ZN4Sass14Operation_CRTPIvNS_7InspectEE8fallbackIPNS_16SupportsNegationEEEvT_ W
_ZN4Sass14Operation_CRTPIvNS_7InspectEE8fallbackIPNS_16Unary_ExpressionEEEvT_ W
_ZN4Sass14Operation_CRTPIvNS_7InspectEE8fallbackIPNS_17AttributeSelectorEEEvT_ W
_ZN4Sass14Operation_CRTPIvNS_7InspectEE8fallbackIPNS_17Binary_ExpressionEEEvT_ W
_ZN4Sass14Operation_CRTPIvNS_7InspectEE8fallbackIPNS_17SelectorComponentEEEvT_ W
_ZN4Sass14Operation_CRTPIvNS_7InspectEE8fallbackIPNS_17SupportsConditionEEEvT_ W
_ZN4Sass14Operation_CRTPIvNS_7InspectEE8fallbackIPNS_17SupportsOperationEEEvT_ W
_ZN4Sass14Operation_CRTPIvNS_7InspectEE8fallbackIPNS_18SelectorCombinatorEEEvT_ W
_ZN4Sass14Operation_CRTPIvNS_7InspectEE8fallbackIPNS_19PlaceholderSelectorEEEvT_ W
_ZN4Sass14Operation_CRTPIvNS_7InspectEE8fallbackIPNS_19SupportsDeclarationEEEvT_ W
_ZN4Sass14Operation_CRTPIvNS_7InspectEE8fallbackIPNS_22Media_Query_ExpressionEEEvT_ W
_ZN4Sass14Operation_CRTPIvNS_7InspectEE8fallbackIPNS_22Supports_InterpolationEEEvT_ W
_ZN4Sass14Operation_CRTPIvNS_7InspectEE8fallbackIPNS_2IfEEEvT_ W
_ZN4Sass14Operation_CRTPIvNS_7InspectEE8fallbackIPNS_3MapEEEvT_ W
_ZN4Sass14Operation_CRTPIvNS_7InspectEE8fallbackIPNS_4ListEEEvT_ W
_ZN4Sass14Operation_CRTPIvNS_7InspectEE8fallbackIPNS_4NullEEEvT_ W
_ZN4Sass14Operation_CRTPIvNS_7InspectEE8fallbackIPNS_5BlockEEEvT_ W
_ZN4Sass14Operation_CRTPIvNS_7InspectEE8fallbackIPNS_5ColorEEEvT_ W
_ZN4Sass14Operation_CRTPIvNS_7InspectEE8fallbackIPNS_5TraceEEEvT_ W
_ZN4Sass14Operation_CRTPIvNS_7InspectEE8fallbackIPNS_6AtRuleEEEvT_ W
_ZN4Sass14Operation_CRTPIvNS_7InspectEE8fallbackIPNS_6BubbleEEEvT_ W
_ZN4Sass14Operation_CRTPIvNS_7InspectEE8fallbackIPNS_6ImportEEEvT_ W
_ZN4Sass14Operation_CRTPIvNS_7InspectEE8fallbackIPNS_6NumberEEEvT_ W
_ZN4Sass14Operation_CRTPIvNS_7InspectEE8fallbackIPNS_6ReturnEEEvT_ W
_ZN4Sass14Operation_CRTPIvNS_7InspectEE8fallbackIPNS_7BooleanEEEvT_ W
_ZN4Sass14Operation_CRTPIvNS_7InspectEE8fallbackIPNS_7CommentEEEvT_ W
_ZN4Sass14Operation_CRTPIvNS_7InspectEE8fallbackIPNS_7ContentEEEvT_ W
_ZN4Sass14Operation_CRTPIvNS_7InspectEE8fallbackIPNS_7ForRuleEEEvT_ W
_ZN4Sass14Operation_CRTPIvNS_7InspectEE8fallbackIPNS_8AST_NodeEEEvT_ W
_ZN4Sass14Operation_CRTPIvNS_7InspectEE8fallbackIPNS_8ArgumentEEEvT_ W
_ZN4Sass14Operation_CRTPIvNS_7InspectEE8fallbackIPNS_8EachRuleEEEvT_ W
_ZN4Sass14Operation_CRTPIvNS_7InspectEE8fallbackIPNS_8FunctionEEEvT_ W
_ZN4Sass14Operation_CRTPIvNS_7InspectEE8fallbackIPNS_8VariableEEEvT_ W
_ZN4Sass14Operation_CRTPIvNS_7InspectEE8fallbackIPNS_9ArgumentsEEEvT_ W
_ZN4Sass14Operation_CRTPIvNS_7InspectEE8fallbackIPNS_9DebugRuleEEEvT_ W
_ZN4Sass14Operation_CRTPIvNS_7InspectEE8fallbackIPNS_9ErrorRuleEEEvT_ W
_ZN4Sass14Operation_CRTPIvNS_7InspectEE8fallbackIPNS_9MediaRuleEEEvT_ W
_ZN4Sass14Operation_CRTPIvNS_7InspectEE8fallbackIPNS_9ParameterEEEvT_ W
_ZN4Sass14Operation_CRTPIvNS_7InspectEE8fallbackIPNS_9StyleRuleEEEvT_ W
_ZN4Sass14Operation_CRTPIvNS_7InspectEE8fallbackIPNS_9WhileRuleEEEvT_ W
_ZN4Sass14Operation_CRTPIvNS_7InspectEEC1Ev W
_ZN4Sass14Operation_CRTPIvNS_7InspectEEC2Ev W
_ZN4Sass14Operation_CRTPIvNS_7InspectEEclEPNS_10AssignmentE W
_ZN4Sass14Operation_CRTPIvNS_7InspectEEclEPNS_10AtRootRuleE W
_ZN4Sass14Operation_CRTPIvNS_7InspectEEclEPNS_10Color_HSLAE W
_ZN4Sass14Operation_CRTPIvNS_7InspectEEclEPNS_10Color_RGBAE W
_ZN4Sass14Operation_CRTPIvNS_7InspectEEclEPNS_10DefinitionE W
_ZN4Sass14Operation_CRTPIvNS_7InspectEEclEPNS_10ExtendRuleE W
_ZN4Sass14Operation_CRTPIvNS_7InspectEEclEPNS_10IDSelectorE W
_ZN4Sass14Operation_CRTPIvNS_7InspectEEclEPNS_10Mixin_CallE W
_ZN4Sass14Operation_CRTPIvNS_7InspectEEclEPNS_10ParametersE W
_ZN4Sass14Operation_CRTPIvNS_7InspectEEclEPNS_11DeclarationE W
_ZN4Sass14Operation_CRTPIvNS_7InspectEEclEPNS_11Import_StubE W
_ZN4Sass14Operation_CRTPIvNS_7InspectEEclEPNS_11Media_QueryE W
_ZN4Sass14Operation_CRTPIvNS_7InspectEEclEPNS_11WarningRuleE W
_ZN4Sass14Operation_CRTPIvNS_7InspectEEclEPNS_12CssMediaRuleE W
_ZN4Sass14Operation_CRTPIvNS_7InspectEEclEPNS_12Custom_ErrorE W
_ZN4Sass14Operation_CRTPIvNS_7InspectEEclEPNS_12SelectorListE W
_ZN4Sass14Operation_CRTPIvNS_7InspectEEclEPNS_12SupportsRuleE W
_ZN4Sass14Operation_CRTPIvNS_7InspectEEclEPNS_12TypeSelectorE W
_ZN4Sass14Operation_CRTPIvNS_7InspectEEclEPNS_13At_Root_QueryE W
_ZN4Sass14Operation_CRTPIvNS_7InspectEEclEPNS_13ClassSelectorE W
_ZN4Sass14Operation_CRTPIvNS_7InspectEEclEPNS_13CssMediaQueryE W
_ZN4Sass14Operation_CRTPIvNS_7InspectEEclEPNS_13Function_CallE W
_ZN4Sass14Operation_CRTPIvNS_7InspectEEclEPNS_13Keyframe_RuleE W
_ZN4Sass14Operation_CRTPIvNS_7InspectEEclEPNS_13String_QuotedE W
_ZN4Sass14Operation_CRTPIvNS_7InspectEEclEPNS_13String_SchemaE W
_ZN4Sass14Operation_CRTPIvNS_7InspectEEclEPNS_14Custom_WarningE W
_ZN4Sass14Operation_CRTPIvNS_7InspectEEclEPNS_14PseudoSelectorE W
_ZN4Sass14Operation_CRTPIvNS_7InspectEEclEPNS_15ComplexSelectorE W
_ZN4Sass14Operation_CRTPIvNS_7InspectEEclEPNS_15Selector_SchemaE W
_ZN4Sass14Operation_CRTPIvNS_7InspectEEclEPNS_15String_ConstantE W
_ZN4Sass14Operation_CRTPIvNS_7InspectEEclEPNS_16CompoundSelectorE W
_ZN4Sass14Operation_CRTPIvNS_7InspectEEclEPNS_16Parent_ReferenceE W
_ZN4Sass14Operation_CRTPIvNS_7InspectEEclEPNS_16SupportsNegationE W
_ZN4Sass14Operation_CRTPIvNS_7InspectEEclEPNS_16Unary_ExpressionE W
_ZN4Sass14Operation_CRTPIvNS_7InspectEEclEPNS_17AttributeSelectorE W
_ZN4Sass14Operation_CRTPIvNS_7InspectEEclEPNS_17Binary_ExpressionE W
_ZN4Sass14Operation_CRTPIvNS_7InspectEEclEPNS_17SelectorComponentE W
_ZN4Sass14Operation_CRTPIvNS_7InspectEEclEPNS_17SupportsConditionE W
_ZN4Sass14Operation_CRTPIvNS_7InspectEEclEPNS_17SupportsOperationE W
_ZN4Sass14Operation_CRTPIvNS_7InspectEEclEPNS_18SelectorCombinatorE W
_ZN4Sass14Operation_CRTPIvNS_7InspectEEclEPNS_19PlaceholderSelectorE W
_ZN4Sass14Operation_CRTPIvNS_7InspectEEclEPNS_19SupportsDeclarationE W
_ZN4Sass14Operation_CRTPIvNS_7InspectEEclEPNS_22Media_Query_ExpressionE W
_ZN4Sass14Operation_CRTPIvNS_7InspectEEclEPNS_22Supports_InterpolationE W
_ZN4Sass14Operation_CRTPIvNS_7InspectEEclEPNS_2IfE W
_ZN4Sass14Operation_CRTPIvNS_7InspectEEclEPNS_3MapE W
_ZN4Sass14Operation_CRTPIvNS_7InspectEEclEPNS_4ListE W
_ZN4Sass14Operation_CRTPIvNS_7InspectEEclEPNS_4NullE W
_ZN4Sass14Operation_CRTPIvNS_7InspectEEclEPNS_5BlockE W
_ZN4Sass14Operation_CRTPIvNS_7InspectEEclEPNS_5ColorE W
_ZN4Sass14Operation_CRTPIvNS_7InspectEEclEPNS_5TraceE W
_ZN4Sass14Operation_CRTPIvNS_7InspectEEclEPNS_6AtRuleE W
_ZN4Sass14Operation_CRTPIvNS_7InspectEEclEPNS_6BubbleE W
_ZN4Sass14Operation_CRTPIvNS_7InspectEEclEPNS_6ImportE W
_ZN4Sass14Operation_CRTPIvNS_7InspectEEclEPNS_6NumberE W
_ZN4Sass14Operation_CRTPIvNS_7InspectEEclEPNS_6ReturnE W
_ZN4Sass14Operation_CRTPIvNS_7InspectEEclEPNS_7BooleanE W
_ZN4Sass14Operation_CRTPIvNS_7InspectEEclEPNS_7CommentE W
_ZN4Sass14Operation_CRTPIvNS_7InspectEEclEPNS_7ContentE W
_ZN4Sass14Operation_CRTPIvNS_7InspectEEclEPNS_7ForRuleE W
_ZN4Sass14Operation_CRTPIvNS_7InspectEEclEPNS_8AST_NodeE W
_ZN4Sass14Operation_CRTPIvNS_7InspectEEclEPNS_8ArgumentE W
_ZN4Sass14Operation_CRTPIvNS_7InspectEEclEPNS_8EachRuleE W
_ZN4Sass14Operation_CRTPIvNS_7InspectEEclEPNS_8FunctionE W
_ZN4Sass14Operation_CRTPIvNS_7InspectEEclEPNS_8VariableE W
_ZN4Sass14Operation_CRTPIvNS_7InspectEEclEPNS_9ArgumentsE W
_ZN4Sass14Operation_CRTPIvNS_7InspectEEclEPNS_9DebugRuleE W
_ZN4Sass14Operation_CRTPIvNS_7InspectEEclEPNS_9ErrorRuleE W
_ZN4Sass14Operation_CRTPIvNS_7InspectEEclEPNS_9MediaRuleE W
_ZN4Sass14Operation_CRTPIvNS_7InspectEEclEPNS_9ParameterE W
_ZN4Sass14Operation_CRTPIvNS_7InspectEEclEPNS_9StyleRuleE W
_ZN4Sass14Operation_CRTPIvNS_7InspectEEclEPNS_9WhileRuleE W
_ZN4Sass14Operation_CRTPIvNS_8ExtenderEE8fallbackIPNS_10AssignmentEEEvT_ W
_ZN4Sass14Operation_CRTPIvNS_8ExtenderEE8fallbackIPNS_10AtRootRuleEEEvT_ W
_ZN4Sass14Operation_CRTPIvNS_8ExtenderEE8fallbackIPNS_10Color_HSLAEEEvT_ W
_ZN4Sass14Operation_CRTPIvNS_8ExtenderEE8fallbackIPNS_10Color_RGBAEEEvT_ W
_ZN4Sass14Operation_CRTPIvNS_8ExtenderEE8fallbackIPNS_10DefinitionEEEvT_ W
_ZN4Sass14Operation_CRTPIvNS_8ExtenderEE8fallbackIPNS_10ExtendRuleEEEvT_ W
_ZN4Sass14Operation_CRTPIvNS_8ExtenderEE8fallbackIPNS_10IDSelectorEEEvT_ W
_ZN4Sass14Operation_CRTPIvNS_8ExtenderEE8fallbackIPNS_10Mixin_CallEEEvT_ W
_ZN4Sass14Operation_CRTPIvNS_8ExtenderEE8fallbackIPNS_10ParametersEEEvT_ W
_ZN4Sass14Operation_CRTPIvNS_8ExtenderEE8fallbackIPNS_11DeclarationEEEvT_ W
_ZN4Sass14Operation_CRTPIvNS_8ExtenderEE8fallbackIPNS_11Import_StubEEEvT_ W
_ZN4Sass14Operation_CRTPIvNS_8ExtenderEE8fallbackIPNS_11Media_QueryEEEvT_ W
_ZN4Sass14Operation_CRTPIvNS_8ExtenderEE8fallbackIPNS_11WarningRuleEEEvT_ W
_ZN4Sass14Operation_CRTPIvNS_8ExtenderEE8fallbackIPNS_12CssMediaRuleEEEvT_ W
_ZN4Sass14Operation_CRTPIvNS_8ExtenderEE8fallbackIPNS_12Custom_ErrorEEEvT_ W
_ZN4Sass14Operation_CRTPIvNS_8ExtenderEE8fallbackIPNS_12SelectorListEEEvT_ W
_ZN4Sass14Operation_CRTPIvNS_8ExtenderEE8fallbackIPNS_12SupportsRuleEEEvT_ W
_ZN4Sass14Operation_CRTPIvNS_8ExtenderEE8fallbackIPNS_12TypeSelectorEEEvT_ W
_ZN4Sass14Operation_CRTPIvNS_8ExtenderEE8fallbackIPNS_13At_Root_QueryEEEvT_ W
_ZN4Sass14Operation_CRTPIvNS_8ExtenderEE8fallbackIPNS_13ClassSelectorEEEvT_ W
_ZN4Sass14Operation_CRTPIvNS_8ExtenderEE8fallbackIPNS_13CssMediaQueryEEEvT_ W
_ZN4Sass14Operation_CRTPIvNS_8ExtenderEE8fallbackIPNS_13Function_CallEEEvT_ W
_ZN4Sass14Operation_CRTPIvNS_8ExtenderEE8fallbackIPNS_13Keyframe_RuleEEEvT_ W
_ZN4Sass14Operation_CRTPIvNS_8ExtenderEE8fallbackIPNS_13String_QuotedEEEvT_ W
_ZN4Sass14Operation_CRTPIvNS_8ExtenderEE8fallbackIPNS_13String_SchemaEEEvT_ W
_ZN4Sass14Operation_CRTPIvNS_8ExtenderEE8fallbackIPNS_14Custom_WarningEEEvT_ W
_ZN4Sass14Operation_CRTPIvNS_8ExtenderEE8fallbackIPNS_14PseudoSelectorEEEvT_ W
_ZN4Sass14Operation_CRTPIvNS_8ExtenderEE8fallbackIPNS_15ComplexSelectorEEEvT_ W
_ZN4Sass14Operation_CRTPIvNS_8ExtenderEE8fallbackIPNS_15Selector_SchemaEEEvT_ W
_ZN4Sass14Operation_CRTPIvNS_8ExtenderEE8fallbackIPNS_15String_ConstantEEEvT_ W
_ZN4Sass14Operation_CRTPIvNS_8ExtenderEE8fallbackIPNS_16CompoundSelectorEEEvT_ W
_ZN4Sass14Operation_CRTPIvNS_8ExtenderEE8fallbackIPNS_16Parent_ReferenceEEEvT_ W
_ZN4Sass14Operation_CRTPIvNS_8ExtenderEE8fallbackIPNS_16SupportsNegationEEEvT_ W
_ZN4Sass14Operation_CRTPIvNS_8ExtenderEE8fallbackIPNS_16Unary_ExpressionEEEvT_ W
_ZN4Sass14Operation_CRTPIvNS_8ExtenderEE8fallbackIPNS_17AttributeSelectorEEEvT_ W
_ZN4Sass14Operation_CRTPIvNS_8ExtenderEE8fallbackIPNS_17Binary_ExpressionEEEvT_ W
_ZN4Sass14Operation_CRTPIvNS_8ExtenderEE8fallbackIPNS_17SelectorComponentEEEvT_ W
_ZN4Sass14Operation_CRTPIvNS_8ExtenderEE8fallbackIPNS_17SupportsConditionEEEvT_ W
_ZN4Sass14Operation_CRTPIvNS_8ExtenderEE8fallbackIPNS_17SupportsOperationEEEvT_ W
_ZN4Sass14Operation_CRTPIvNS_8ExtenderEE8fallbackIPNS_18SelectorCombinatorEEEvT_ W
_ZN4Sass14Operation_CRTPIvNS_8ExtenderEE8fallbackIPNS_19PlaceholderSelectorEEEvT_ W
_ZN4Sass14Operation_CRTPIvNS_8ExtenderEE8fallbackIPNS_19SupportsDeclarationEEEvT_ W
_ZN4Sass14Operation_CRTPIvNS_8ExtenderEE8fallbackIPNS_22Media_Query_ExpressionEEEvT_ W
_ZN4Sass14Operation_CRTPIvNS_8ExtenderEE8fallbackIPNS_22Supports_InterpolationEEEvT_ W
_ZN4Sass14Operation_CRTPIvNS_8ExtenderEE8fallbackIPNS_2IfEEEvT_ W
_ZN4Sass14Operation_CRTPIvNS_8ExtenderEE8fallbackIPNS_3MapEEEvT_ W
_ZN4Sass14Operation_CRTPIvNS_8ExtenderEE8fallbackIPNS_4ListEEEvT_ W
_ZN4Sass14Operation_CRTPIvNS_8ExtenderEE8fallbackIPNS_4NullEEEvT_ W
_ZN4Sass14Operation_CRTPIvNS_8ExtenderEE8fallbackIPNS_5BlockEEEvT_ W
_ZN4Sass14Operation_CRTPIvNS_8ExtenderEE8fallbackIPNS_5ColorEEEvT_ W
_ZN4Sass14Operation_CRTPIvNS_8ExtenderEE8fallbackIPNS_5TraceEEEvT_ W
_ZN4Sass14Operation_CRTPIvNS_8ExtenderEE8fallbackIPNS_6AtRuleEEEvT_ W
_ZN4Sass14Operation_CRTPIvNS_8ExtenderEE8fallbackIPNS_6BubbleEEEvT_ W
_ZN4Sass14Operation_CRTPIvNS_8ExtenderEE8fallbackIPNS_6ImportEEEvT_ W
_ZN4Sass14Operation_CRTPIvNS_8ExtenderEE8fallbackIPNS_6NumberEEEvT_ W
_ZN4Sass14Operation_CRTPIvNS_8ExtenderEE8fallbackIPNS_6ReturnEEEvT_ W
_ZN4Sass14Operation_CRTPIvNS_8ExtenderEE8fallbackIPNS_7BooleanEEEvT_ W
_ZN4Sass14Operation_CRTPIvNS_8ExtenderEE8fallbackIPNS_7CommentEEEvT_ W
_ZN4Sass14Operation_CRTPIvNS_8ExtenderEE8fallbackIPNS_7ContentEEEvT_ W
_ZN4Sass14Operation_CRTPIvNS_8ExtenderEE8fallbackIPNS_7ForRuleEEEvT_ W
_ZN4Sass14Operation_CRTPIvNS_8ExtenderEE8fallbackIPNS_8AST_NodeEEEvT_ W
_ZN4Sass14Operation_CRTPIvNS_8ExtenderEE8fallbackIPNS_8ArgumentEEEvT_ W
_ZN4Sass14Operation_CRTPIvNS_8ExtenderEE8fallbackIPNS_8EachRuleEEEvT_ W
_ZN4Sass14Operation_CRTPIvNS_8ExtenderEE8fallbackIPNS_8FunctionEEEvT_ W
_ZN4Sass14Operation_CRTPIvNS_8ExtenderEE8fallbackIPNS_8VariableEEEvT_ W
_ZN4Sass14Operation_CRTPIvNS_8ExtenderEE8fallbackIPNS_9ArgumentsEEEvT_ W
_ZN4Sass14Operation_CRTPIvNS_8ExtenderEE8fallbackIPNS_9DebugRuleEEEvT_ W
_ZN4Sass14Operation_CRTPIvNS_8ExtenderEE8fallbackIPNS_9ErrorRuleEEEvT_ W
_ZN4Sass14Operation_CRTPIvNS_8ExtenderEE8fallbackIPNS_9MediaRuleEEEvT_ W
_ZN4Sass14Operation_CRTPIvNS_8ExtenderEE8fallbackIPNS_9ParameterEEEvT_ W
_ZN4Sass14Operation_CRTPIvNS_8ExtenderEE8fallbackIPNS_9StyleRuleEEEvT_ W
_ZN4Sass14Operation_CRTPIvNS_8ExtenderEE8fallbackIPNS_9WhileRuleEEEvT_ W
_ZN4Sass14Operation_CRTPIvNS_8ExtenderEEC1Ev W
_ZN4Sass14Operation_CRTPIvNS_8ExtenderEEC2Ev W
_ZN4Sass14Operation_CRTPIvNS_8ExtenderEEclEPNS_10AssignmentE W
_ZN4Sass14Operation_CRTPIvNS_8ExtenderEEclEPNS_10AtRootRuleE W
_ZN4Sass14Operation_CRTPIvNS_8ExtenderEEclEPNS_10Color_HSLAE W
_ZN4Sass14Operation_CRTPIvNS_8ExtenderEEclEPNS_10Color_RGBAE W
_ZN4Sass14Operation_CRTPIvNS_8ExtenderEEclEPNS_10DefinitionE W
_ZN4Sass14Operation_CRTPIvNS_8ExtenderEEclEPNS_10ExtendRuleE W
_ZN4Sass14Operation_CRTPIvNS_8ExtenderEEclEPNS_10IDSelectorE W
_ZN4Sass14Operation_CRTPIvNS_8ExtenderEEclEPNS_10Mixin_CallE W
_ZN4Sass14Operation_CRTPIvNS_8ExtenderEEclEPNS_10ParametersE W
_ZN4Sass14Operation_CRTPIvNS_8ExtenderEEclEPNS_11DeclarationE W
_ZN4Sass14Operation_CRTPIvNS_8ExtenderEEclEPNS_11Import_StubE W
_ZN4Sass14Operation_CRTPIvNS_8ExtenderEEclEPNS_11Media_QueryE W
_ZN4Sass14Operation_CRTPIvNS_8ExtenderEEclEPNS_11WarningRuleE W
_ZN4Sass14Operation_CRTPIvNS_8ExtenderEEclEPNS_12CssMediaRuleE W
_ZN4Sass14Operation_CRTPIvNS_8ExtenderEEclEPNS_12Custom_ErrorE W
_ZN4Sass14Operation_CRTPIvNS_8ExtenderEEclEPNS_12SelectorListE W
_ZN4Sass14Operation_CRTPIvNS_8ExtenderEEclEPNS_12SupportsRuleE W
_ZN4Sass14Operation_CRTPIvNS_8ExtenderEEclEPNS_12TypeSelectorE W
_ZN4Sass14Operation_CRTPIvNS_8ExtenderEEclEPNS_13At_Root_QueryE W
_ZN4Sass14Operation_CRTPIvNS_8ExtenderEEclEPNS_13ClassSelectorE W
_ZN4Sass14Operation_CRTPIvNS_8ExtenderEEclEPNS_13CssMediaQueryE W
_ZN4Sass14Operation_CRTPIvNS_8ExtenderEEclEPNS_13Function_CallE W
_ZN4Sass14Operation_CRTPIvNS_8ExtenderEEclEPNS_13Keyframe_RuleE W
_ZN4Sass14Operation_CRTPIvNS_8ExtenderEEclEPNS_13String_QuotedE W
_ZN4Sass14Operation_CRTPIvNS_8ExtenderEEclEPNS_13String_SchemaE W
_ZN4Sass14Operation_CRTPIvNS_8ExtenderEEclEPNS_14Custom_WarningE W
_ZN4Sass14Operation_CRTPIvNS_8ExtenderEEclEPNS_14PseudoSelectorE W
_ZN4Sass14Operation_CRTPIvNS_8ExtenderEEclEPNS_15ComplexSelectorE W
_ZN4Sass14Operation_CRTPIvNS_8ExtenderEEclEPNS_15Selector_SchemaE W
_ZN4Sass14Operation_CRTPIvNS_8ExtenderEEclEPNS_15String_ConstantE W
_ZN4Sass14Operation_CRTPIvNS_8ExtenderEEclEPNS_16CompoundSelectorE W
_ZN4Sass14Operation_CRTPIvNS_8ExtenderEEclEPNS_16Parent_ReferenceE W
_ZN4Sass14Operation_CRTPIvNS_8ExtenderEEclEPNS_16SupportsNegationE W
_ZN4Sass14Operation_CRTPIvNS_8ExtenderEEclEPNS_16Unary_ExpressionE W
_ZN4Sass14Operation_CRTPIvNS_8ExtenderEEclEPNS_17AttributeSelectorE W
_ZN4Sass14Operation_CRTPIvNS_8ExtenderEEclEPNS_17Binary_ExpressionE W
_ZN4Sass14Operation_CRTPIvNS_8ExtenderEEclEPNS_17SelectorComponentE W
_ZN4Sass14Operation_CRTPIvNS_8ExtenderEEclEPNS_17SupportsConditionE W
_ZN4Sass14Operation_CRTPIvNS_8ExtenderEEclEPNS_17SupportsOperationE W
_ZN4Sass14Operation_CRTPIvNS_8ExtenderEEclEPNS_18SelectorCombinatorE W
_ZN4Sass14Operation_CRTPIvNS_8ExtenderEEclEPNS_19PlaceholderSelectorE W
_ZN4Sass14Operation_CRTPIvNS_8ExtenderEEclEPNS_19SupportsDeclarationE W
_ZN4Sass14Operation_CRTPIvNS_8ExtenderEEclEPNS_22Media_Query_ExpressionE W
_ZN4Sass14Operation_CRTPIvNS_8ExtenderEEclEPNS_22Supports_InterpolationE W
_ZN4Sass14Operation_CRTPIvNS_8ExtenderEEclEPNS_2IfE W
_ZN4Sass14Operation_CRTPIvNS_8ExtenderEEclEPNS_3MapE W
_ZN4Sass14Operation_CRTPIvNS_8ExtenderEEclEPNS_4ListE W
_ZN4Sass14Operation_CRTPIvNS_8ExtenderEEclEPNS_4NullE W
_ZN4Sass14Operation_CRTPIvNS_8ExtenderEEclEPNS_5BlockE W
_ZN4Sass14Operation_CRTPIvNS_8ExtenderEEclEPNS_5ColorE W
_ZN4Sass14Operation_CRTPIvNS_8ExtenderEEclEPNS_5TraceE W
_ZN4Sass14Operation_CRTPIvNS_8ExtenderEEclEPNS_6AtRuleE W
_ZN4Sass14Operation_CRTPIvNS_8ExtenderEEclEPNS_6BubbleE W
_ZN4Sass14Operation_CRTPIvNS_8ExtenderEEclEPNS_6ImportE W
_ZN4Sass14Operation_CRTPIvNS_8ExtenderEEclEPNS_6NumberE W
_ZN4Sass14Operation_CRTPIvNS_8ExtenderEEclEPNS_6ReturnE W
_ZN4Sass14Operation_CRTPIvNS_8ExtenderEEclEPNS_7BooleanE W
_ZN4Sass14Operation_CRTPIvNS_8ExtenderEEclEPNS_7CommentE W
_ZN4Sass14Operation_CRTPIvNS_8ExtenderEEclEPNS_7ContentE W
_ZN4Sass14Operation_CRTPIvNS_8ExtenderEEclEPNS_7ForRuleE W
_ZN4Sass14Operation_CRTPIvNS_8ExtenderEEclEPNS_8AST_NodeE W
_ZN4Sass14Operation_CRTPIvNS_8ExtenderEEclEPNS_8ArgumentE W
_ZN4Sass14Operation_CRTPIvNS_8ExtenderEEclEPNS_8EachRuleE W
_ZN4Sass14Operation_CRTPIvNS_8ExtenderEEclEPNS_8FunctionE W
_ZN4Sass14Operation_CRTPIvNS_8ExtenderEEclEPNS_8VariableE W
_ZN4Sass14Operation_CRTPIvNS_8ExtenderEEclEPNS_9ArgumentsE W
_ZN4Sass14Operation_CRTPIvNS_8ExtenderEEclEPNS_9DebugRuleE W
_ZN4Sass14Operation_CRTPIvNS_8ExtenderEEclEPNS_9ErrorRuleE W
_ZN4Sass14Operation_CRTPIvNS_8ExtenderEEclEPNS_9MediaRuleE W
_ZN4Sass14Operation_CRTPIvNS_8ExtenderEEclEPNS_9ParameterE W
_ZN4Sass14Operation_CRTPIvNS_8ExtenderEEclEPNS_9StyleRuleE W
_ZN4Sass14Operation_CRTPIvNS_8ExtenderEEclEPNS_9WhileRuleE W
_ZN4Sass14PseudoSelector12withSelectorENS_10SharedImplINS_12SelectorListEEE T
_ZN4Sass14PseudoSelector13cloneChildrenEv T
_ZN4Sass14PseudoSelector17getPseudoSelectorEv W
_ZN4Sass14PseudoSelector7performEPNS_9OperationINSt7__cxx1112basic_stringIcSt11char_traitsIcESaIcEEEEE W
_ZN4Sass14PseudoSelector7performEPNS_9OperationIP10Sass_ValueEE W
_ZN4Sass14PseudoSelector7performEPNS_9OperationIPNS_10ExpressionEEE W
_ZN4Sass14PseudoSelector7performEPNS_9OperationIPNS_17SupportsConditionEEE W
_ZN4Sass14PseudoSelector7performEPNS_9OperationIPNS_5ValueEEE W
_ZN4Sass14PseudoSelector7performEPNS_9OperationIPNS_8AST_NodeEEE W
_ZN4Sass14PseudoSelector7performEPNS_9OperationIPNS_8SelectorEEE W
_ZN4Sass14PseudoSelector7performEPNS_9OperationIPNS_9StatementEEE W
_ZN4Sass14PseudoSelector7performEPNS_9OperationIvEE W
_ZN4Sass14PseudoSelector8argumentENS_10SharedImplINS_6StringEEE W
_ZN4Sass14PseudoSelector8selectorENS_10SharedImplINS_12SelectorListEEE W
_ZN4Sass14PseudoSelector9unifyWithEPNS_16CompoundSelectorE T
_ZN4Sass14PseudoSelectorC1ENS_10SourceSpanENSt7__cxx1112basic_stringIcSt11char_traitsIcESaIcEEEb T
_ZN4Sass14PseudoSelectorC1EPKS0_ T
_ZN4Sass14PseudoSelectorC2ENS_10SourceSpanENSt7__cxx1112basic_stringIcSt11char_traitsIcESaIcEEEb T
_ZN4Sass14PseudoSelectorC2EPKS0_ T
_ZN4Sass14PseudoSelectorD0Ev W
_ZN4Sass14PseudoSelectorD1Ev W
_ZN4Sass14PseudoSelectorD2Ev W
_ZN4Sass14SimpleSelector11simple_typeENS0_11Simple_TypeE W
_ZN4Sass14SimpleSelector13getIdSelectorEv W
_ZN4Sass14SimpleSelector13wrapInComplexEv T
_ZN4Sass14SimpleSelector14wrapInCompoundEv T
_ZN4Sass14SimpleSelector15getTypeSelectorEv W
_ZN4Sass14SimpleSelector15has_placeholderEv T
_ZN4Sass14SimpleSelector17getPseudoSelectorEv W
_ZN4Sass14SimpleSelector2nsENSt7__cxx1112basic_stringIcSt11char_traitsIcESaIcEEE W
_ZN4Sass14SimpleSelector4nameENSt7__cxx1112basic_stringIcSt11char_traitsIcESaIcEEE W
_ZN4Sass14SimpleSelector6has_nsEb W
_ZN4Sass14SimpleSelector7performEPNS_9OperationINSt7__cxx1112basic_stringIcSt11char_traitsIcESaIcEEEEE W
_ZN4Sass14SimpleSelector7performEPNS_9OperationIP10Sass_ValueEE W
_ZN4Sass14SimpleSelector7performEPNS_9OperationIPNS_10ExpressionEEE W
_ZN4Sass14SimpleSelector7performEPNS_9OperationIPNS_17SupportsConditionEEE W
_ZN4Sass14SimpleSelector7performEPNS_9OperationIPNS_5ValueEEE W
_ZN4Sass14SimpleSelector7performEPNS_9OperationIPNS_8AST_NodeEEE W
_ZN4Sass14SimpleSelector7performEPNS_9OperationIPNS_8SelectorEEE W
_ZN4Sass14SimpleSelector7performEPNS_9OperationIPNS_9StatementEEE W
_ZN4Sass14SimpleSelector7performEPNS_9OperationIvEE W
_ZN4Sass14SimpleSelector9unifyWithEPNS_16CompoundSelectorE T
_ZN4Sass14SimpleSelectorC1ENS_10SourceSpanENSt7__cxx1112basic_stringIcSt11char_traitsIcESaIcEEE T
_ZN4Sass14SimpleSelectorC1EPKS0_ T
_ZN4Sass14SimpleSelectorC2ENS_10SourceSpanENSt7__cxx1112basic_stringIcSt11char_traitsIcESaIcEEE T
_ZN4Sass14SimpleSelectorC2EPKS0_ T
_ZN4Sass14SimpleSelectorD0Ev W
_ZN4Sass14SimpleSelectorD1Ev W
_ZN4Sass14SimpleSelectorD2Ev W
_ZN4Sass14getFirstIfRootERSt6vectorINS_10SharedImplINS_17SelectorComponentEEESaIS3_EE T
_ZN4Sass14get_unit_classB5cxx11ENS_8UnitTypeE T
_ZN4Sass14groupSelectorsERKSt6vectorINS_10SharedImplINS_17SelectorComponentEEESaIS3_EE T
_ZN4Sass14is_hex_doubletEd T
_ZN4Sass14lcsIdentityCmpINS_10SharedImplINS_17SelectorComponentEEEEEbRKT_S6_RS4_ W
_ZN4Sass14sort_importersERKP13Sass_ImporterS3_ W
_ZN4Sass14string_to_unitERKNSt7__cxx1112basic_stringIcSt11char_traitsIcESaIcEEE T
_ZN4Sass14unit_to_stringENS_8UnitTypeE T
_ZN4Sass15ComplexSelector10wrapInListEv T
_ZN4Sass15ComplexSelector13cloneChildrenEv T
_ZN4Sass15ComplexSelector14hasPreLineFeedEb W
_ZN4Sass15ComplexSelector19resolve_parent_refsESt6vectorINS_10SharedImplINS_12SelectorListEEESaIS4_EERS1_INS_9BacktraceESaIS7_EEb T
_ZN4Sass15ComplexSelector7chrootsEb W
_ZN4Sass15ComplexSelector7performEPNS_9OperationINSt7__cxx1112basic_stringIcSt11char_traitsIcESaIcEEEEE W
_ZN4Sass15ComplexSelector7performEPNS_9OperationIP10Sass_ValueEE W
_ZN4Sass15ComplexSelector7performEPNS_9OperationIPNS_10ExpressionEEE W
_ZN4Sass15ComplexSelector7performEPNS_9OperationIPNS_17SupportsConditionEEE W
_ZN4Sass15ComplexSelector7performEPNS_9OperationIPNS_5ValueEEE W
_ZN4Sass15ComplexSelector7performEPNS_9OperationIPNS_8AST_NodeEEE W
_ZN4Sass15ComplexSelector7performEPNS_9OperationIPNS_8SelectorEEE W
_ZN4Sass15ComplexSelector7performEPNS_9OperationIPNS_9StatementEEE W
_ZN4Sass15ComplexSelector7performEPNS_9OperationIvEE W
_ZN4Sass15ComplexSelector9unifyWithEPS0_ T
_ZN4Sass15ComplexSelectorC1ENS_10SourceSpanE T
_ZN4Sass15ComplexSelectorC1EPKS0_ T
_ZN4Sass15ComplexSelectorC2ENS_10SourceSpanE T
_ZN4Sass15ComplexSelectorC2EPKS0_ T
_ZN4Sass15ComplexSelectorD0Ev W
_ZN4Sass15ComplexSelectorD1Ev W
_ZN4Sass15ComplexSelectorD2Ev W
_ZN4Sass15ParentStatement11has_contentEv T
_ZN4Sass15ParentStatement5blockENS_10SharedImplINS_5BlockEEE W
_ZN4Sass15ParentStatementC1ENS_10SourceSpanENS_10SharedImplINS_5BlockEEE T
_ZN4Sass15ParentStatementC1EPKS0_ T
_ZN4Sass15ParentStatementC2ENS_10SourceSpanENS_10SharedImplINS_5BlockEEE T
_ZN4Sass15ParentStatementC2EPKS0_ T
_ZN4Sass15ParentStatementD0Ev W
_ZN4Sass15ParentStatementD1Ev W
_ZN4Sass15ParentStatementD2Ev W
_ZN4Sass15Selector_Schema14connect_parentEb W
_ZN4Sass15Selector_Schema7performEPNS_9OperationINSt7__cxx1112basic_stringIcSt11char_traitsIcESaIcEEEEE W
_ZN4Sass15Selector_Schema7performEPNS_9OperationIP10Sass_ValueEE W
_ZN4Sass15Selector_Schema7performEPNS_9OperationIPNS_10ExpressionEEE W
_ZN4Sass15Selector_Schema7performEPNS_9OperationIPNS_17SupportsConditionEEE W
_ZN4Sass15Selector_Schema7performEPNS_9OperationIPNS_5ValueEEE W
_ZN4Sass15Selector_Schema7performEPNS_9OperationIPNS_8AST_NodeEEE W
_ZN4Sass15Selector_Schema7performEPNS_9OperationIPNS_8SelectorEEE W
_ZN4Sass15Selector_Schema7performEPNS_9OperationIPNS_9StatementEEE W
_ZN4Sass15Selector_Schema7performEPNS_9OperationIvEE W
_ZN4Sass15Selector_SchemaC1ENS_10SourceSpanENS_10SharedImplINS_6StringEEE T
_ZN4Sass15Selector_SchemaC1EPKS0_ T
_ZN4Sass15Selector_SchemaC2ENS_10SourceSpanENS_10SharedImplINS_6StringEEE T
_ZN4Sass15Selector_SchemaC2EPKS0_ T
_ZN4Sass15Selector_SchemaD0Ev W
_ZN4Sass15Selector_SchemaD1Ev W
_ZN4Sass15Selector_SchemaD2Ev W
_ZN4Sass15String_Constant10quote_markEc W
_ZN4Sass15String_Constant5rtrimEv T
_ZN4Sass15String_Constant5valueENSt7__cxx1112basic_stringIcSt11char_traitsIcESaIcEEE W
_ZN4Sass15String_Constant7performEPNS_9OperationINSt7__cxx1112basic_stringIcSt11char_traitsIcESaIcEEEEE W
_ZN4Sass15String_Constant7performEPNS_9OperationIP10Sass_ValueEE W
_ZN4Sass15String_Constant7performEPNS_9OperationIPNS_10ExpressionEEE W
_ZN4Sass15String_Constant7performEPNS_9OperationIPNS_17SupportsConditionEEE W
_ZN4Sass15String_Constant7performEPNS_9OperationIPNS_5ValueEEE W
_ZN4Sass15String_Constant7performEPNS_9OperationIPNS_8AST_NodeEEE W
_ZN4Sass15String_Constant7performEPNS_9OperationIPNS_8SelectorEEE W
_ZN4Sass15String_Constant7performEPNS_9OperationIPNS_9StatementEEE W
_ZN4Sass15String_Constant7performEPNS_9OperationIvEE W
_ZN4Sass15String_Constant9type_nameB5cxx11Ev W
_ZN4Sass15String_ConstantC1ENS_10SourceSpanENSt7__cxx1112basic_stringIcSt11char_traitsIcESaIcEEEb T
_ZN4Sass15String_ConstantC1ENS_10SourceSpanEPKcS3_b T
_ZN4Sass15String_ConstantC1ENS_10SourceSpanEPKcb T
_ZN4Sass15String_ConstantC1ENS_10SourceSpanERKNS_5TokenEb T
_ZN4Sass15String_ConstantC1EPKS0_ T
_ZN4Sass15String_ConstantC2ENS_10SourceSpanENSt7__cxx1112basic_stringIcSt11char_traitsIcESaIcEEEb T
_ZN4Sass15String_ConstantC2ENS_10SourceSpanEPKcS3_b T
_ZN4Sass15String_ConstantC2ENS_10SourceSpanEPKcb T
_ZN4Sass15String_ConstantC2ENS_10SourceSpanERKNS_5TokenEb T
_ZN4Sass15String_ConstantC2EPKS0_ T
_ZN4Sass15String_ConstantD0Ev W
_ZN4Sass15String_ConstantD1Ev W
_ZN4Sass15String_ConstantD2Ev W
_ZN4Sass15check_bom_charsEPKcS1_PKhm T
_ZN4Sass15deprecated_bindENSt7__cxx1112basic_stringIcSt11char_traitsIcESaIcEEENS_10SourceSpanE T
_ZN4Sass15listEraseItemIfISt6vectorINS_10SharedImplINS_14SimpleSelectorEEESaIS4_EEFbPS3_EEEvRT_PT0_ W
_ZN4Sass15listEraseItemIfISt6vectorINS_10SharedImplINS_15ComplexSelectorEEESaIS4_EEFbPS3_EEEvRT_PT0_ W
_ZN4Sass15listEraseItemIfISt6vectorINS_10SharedImplINS_17SelectorComponentEEESaIS4_EEFbPS3_EEEvRT_PT0_ W
_ZN4Sass15make_c_functionEP13Sass_FunctionRNS_7ContextE T
_ZN4Sass15number_has_zeroERKNSt7__cxx1112basic_stringIcSt11char_traitsIcESaIcEEE T
_ZN4Sass15read_css_stringERKNSt7__cxx1112basic_stringIcSt11char_traitsIcESaIcEEEb T
_ZN4Sass15sass_op_to_nameE7Sass_OP T
_ZN4Sass16CompoundSelector11getCompoundEv W
_ZN4Sass16CompoundSelector12sortChildrenEv T
_ZN4Sass16CompoundSelector13cloneChildrenEv T
_ZN4Sass16CompoundSelector13hasRealParentEb W
_ZN4Sass16CompoundSelector19resolve_parent_refsESt6vectorINS_10SharedImplINS_12SelectorListEEESaIS4_EERS1_INS_9BacktraceESaIS7_EEb T
_ZN4Sass16CompoundSelector7performEPNS_9OperationINSt7__cxx1112basic_stringIcSt11char_traitsIcESaIcEEEEE W
_ZN4Sass16CompoundSelector7performEPNS_9OperationIP10Sass_ValueEE W
_ZN4Sass16CompoundSelector7performEPNS_9OperationIPNS_10ExpressionEEE W
_ZN4Sass16CompoundSelector7performEPNS_9OperationIPNS_17SupportsConditionEEE W
_ZN4Sass16CompoundSelector7performEPNS_9OperationIPNS_5ValueEEE W
_ZN4Sass16CompoundSelector7performEPNS_9OperationIPNS_8AST_NodeEEE W
_ZN4Sass16CompoundSelector7performEPNS_9OperationIPNS_8SelectorEEE W
_ZN4Sass16CompoundSelector7performEPNS_9OperationIPNS_9StatementEEE W
_ZN4Sass16CompoundSelector7performEPNS_9OperationIvEE W
_ZN4Sass16CompoundSelector9unifyWithEPS0_ T
_ZN4Sass16CompoundSelectorC1ENS_10SourceSpanEb T
_ZN4Sass16CompoundSelectorC1EPKS0_ T
_ZN4Sass16CompoundSelectorC2ENS_10SourceSpanEb T
_ZN4Sass16CompoundSelectorC2EPKS0_ T
_ZN4Sass16CompoundSelectorD0Ev W
_ZN4Sass16CompoundSelectorD1Ev W
_ZN4Sass16CompoundSelectorD2Ev W
_ZN4Sass16ObjPtrEqualityFnINS_10SharedImplINS_12SelectorListEEEEEbRKT_S6_ W
_ZN4Sass16ObjPtrEqualityFnINS_10SharedImplINS_14SimpleSelectorEEEEEbRKT_S6_ W
_ZN4Sass16ObjPtrEqualityFnINS_10SharedImplINS_15ComplexSelectorEEEEEbRKT_S6_ W
_ZN4Sass16ObjPtrEqualityFnINS_10SharedImplINS_5BlockEEEEEbRKT_S6_ W
_ZN4Sass16Parent_Reference7performEPNS_9OperationINSt7__cxx1112basic_stringIcSt11char_traitsIcESaIcEEEEE W
_ZN4Sass16Parent_Reference7performEPNS_9OperationIP10Sass_ValueEE W
_ZN4Sass16Parent_Reference7performEPNS_9OperationIPNS_10ExpressionEEE W
_ZN4Sass16Parent_Reference7performEPNS_9OperationIPNS_17SupportsConditionEEE W
_ZN4Sass16Parent_Reference7performEPNS_9OperationIPNS_5ValueEEE W
_ZN4Sass16Parent_Reference7performEPNS_9OperationIPNS_8AST_NodeEEE W
_ZN4Sass16Parent_Reference7performEPNS_9OperationIPNS_8SelectorEEE W
_ZN4Sass16Parent_Reference7performEPNS_9OperationIPNS_9StatementEEE W
_ZN4Sass16Parent_Reference7performEPNS_9OperationIvEE W
_ZN4Sass16Parent_ReferenceC1ENS_10SourceSpanE T
_ZN4Sass16Parent_ReferenceC1EPKS0_ T
_ZN4Sass16Parent_ReferenceC2ENS_10SourceSpanE T
_ZN4Sass16Parent_ReferenceC2EPKS0_ T
_ZN4Sass16Parent_ReferenceD0Ev W
_ZN4Sass16Parent_ReferenceD1Ev W
_ZN4Sass16Parent_ReferenceD2Ev W
_ZN4Sass16PtrObjEqualityFnINS_10ExpressionEEEbPKT_S4_ W
_ZN4Sass16PtrObjEqualityFnINS_12CssMediaRuleEEEbPKT_S4_ W
_ZN4Sass16PtrObjEqualityFnINS_12SelectorListEEEbPKT_S4_ W
_ZN4Sass16PtrObjEqualityFnINS_13CssMediaQueryEEEbPKT_S4_ W
_ZN4Sass16PtrObjEqualityFnINS_14PseudoSelectorEEEbPKT_S4_ W
_ZN4Sass16PtrObjEqualityFnINS_14SimpleSelectorEEEbPKT_S4_ W
_ZN4Sass16PtrObjEqualityFnINS_15ComplexSelectorEEEbPKT_S4_ W
_ZN4Sass16PtrObjEqualityFnINS_17SelectorComponentEEEbPKT_S4_ W
_ZN4Sass16PtrObjEqualityFnINS_6StringEEEbPKT_S4_ W
_ZN4Sass16SupportsNegation7performEPNS_9OperationINSt7__cxx1112basic_stringIcSt11char_traitsIcESaIcEEEEE W
_ZN4Sass16SupportsNegation7performEPNS_9OperationIP10Sass_ValueEE W
_ZN4Sass16SupportsNegation7performEPNS_9OperationIPNS_10ExpressionEEE W
_ZN4Sass16SupportsNegation7performEPNS_9OperationIPNS_17SupportsConditionEEE W
_ZN4Sass16SupportsNegation7performEPNS_9OperationIPNS_5ValueEEE W
_ZN4Sass16SupportsNegation7performEPNS_9OperationIPNS_8AST_NodeEEE W
_ZN4Sass16SupportsNegation7performEPNS_9OperationIPNS_8SelectorEEE W
_ZN4Sass16SupportsNegation7performEPNS_9OperationIPNS_9StatementEEE W
_ZN4Sass16SupportsNegation7performEPNS_9OperationIvEE W
_ZN4Sass16SupportsNegationC1ENS_10SourceSpanENS_10SharedImplINS_17SupportsConditionEEE T
_ZN4Sass16SupportsNegationC1EPKS0_ T
_ZN4Sass16SupportsNegationC2ENS_10SourceSpanENS_10SharedImplINS_17SupportsConditionEEE T
_ZN4Sass16SupportsNegationC2EPKS0_ T
_ZN4Sass16SupportsNegationD0Ev W
_ZN4Sass16SupportsNegationD1Ev W
_ZN4Sass16SupportsNegationD2Ev W
_ZN4Sass16Unary_Expression7operandENS_10SharedImplINS_10ExpressionEEE W
_ZN4Sass16Unary_Expression7performEPNS_9OperationINSt7__cxx1112basic_stringIcSt11char_traitsIcESaIcEEEEE W
_ZN4Sass16Unary_Expression7performEPNS_9OperationIP10Sass_ValueEE W
_ZN4Sass16Unary_Expression7performEPNS_9OperationIPNS_10ExpressionEEE W
_ZN4Sass16Unary_Expression7performEPNS_9OperationIPNS_17SupportsConditionEEE W
_ZN4Sass16Unary_Expression7performEPNS_9OperationIPNS_5ValueEEE W
_ZN4Sass16Unary_Expression7performEPNS_9OperationIPNS_8AST_NodeEEE W
_ZN4Sass16Unary_Expression7performEPNS_9OperationIPNS_8SelectorEEE W
_ZN4Sass16Unary_Expression7performEPNS_9OperationIPNS_9StatementEEE W
_ZN4Sass16Unary_Expression7performEPNS_9OperationIvEE W
_ZN4Sass16Unary_Expression9type_nameB5cxx11Ev T
_ZN4Sass16Unary_ExpressionC1ENS_10SourceSpanENS0_4TypeENS_10SharedImplINS_10ExpressionEEE T
_ZN4Sass16Unary_ExpressionC1EPKS0_ T
_ZN4Sass16Unary_ExpressionC2ENS_10SourceSpanENS0_4TypeENS_10SharedImplINS_10ExpressionEEE T
_ZN4Sass16Unary_ExpressionC2EPKS0_ T
_ZN4Sass16Unary_ExpressionD0Ev W
_ZN4Sass16Unary_ExpressionD1Ev W
_ZN4Sass16Unary_ExpressionD2Ev W
_ZN4Sass16evacuate_escapesERKNSt7__cxx1112basic_stringIcSt11char_traitsIcESaIcEEE T
_ZN4Sass16is_color_doubletEddd T
_ZN4Sass16newline_to_spaceERNSt7__cxx1112basic_stringIcSt11char_traitsIcESaIcEEE T
_ZN4Sass16read_hex_escapesERKNSt7__cxx1112basic_stringIcSt11char_traitsIcESaIcEEE T
_ZN4Sass16sass_copy_stringENSt7__cxx1112basic_stringIcSt11char_traitsIcESaIcEEE T
_ZN4Sass16string_to_outputERKNSt7__cxx1112basic_stringIcSt11char_traitsIcESaIcEEE T
_ZN4Sass16traces_to_stringESt6vectorINS_9BacktraceESaIS1_EENSt7__cxx1112basic_stringIcSt11char_traitsIcESaIcEEE T
_ZN4Sass17AttributeSelector7performEPNS_9OperationINSt7__cxx1112basic_stringIcSt11char_traitsIcESaIcEEEEE W
_ZN4Sass17AttributeSelector7performEPNS_9OperationIP10Sass_ValueEE W
_ZN4Sass17AttributeSelector7performEPNS_9OperationIPNS_10ExpressionEEE W
_ZN4Sass17AttributeSelector7performEPNS_9OperationIPNS_17SupportsConditionEEE W
_ZN4Sass17AttributeSelector7performEPNS_9OperationIPNS_5ValueEEE W
_ZN4Sass17AttributeSelector7performEPNS_9OperationIPNS_8AST_NodeEEE W
_ZN4Sass17AttributeSelector7performEPNS_9OperationIPNS_8SelectorEEE W
_ZN4Sass17AttributeSelector7performEPNS_9OperationIPNS_9StatementEEE W
_ZN4Sass17AttributeSelector7performEPNS_9OperationIvEE W
_ZN4Sass17AttributeSelectorC1ENS_10SourceSpanENSt7__cxx1112basic_stringIcSt11char_traitsIcESaIcEEES7_NS_10SharedImplINS_6StringEEEc T
_ZN4Sass17AttributeSelectorC1EPKS0_ T
_ZN4Sass17AttributeSelectorC2ENS_10SourceSpanENSt7__cxx1112basic_stringIcSt11char_traitsIcESaIcEEES7_NS_10SharedImplINS_6StringEEEc T
_ZN4Sass17AttributeSelectorC2EPKS0_ T
_ZN4Sass17AttributeSelectorD0Ev W
_ZN4Sass17AttributeSelectorD1Ev W
_ZN4Sass17AttributeSelectorD2Ev W
_ZN4Sass17Binary_Expression11set_delayedEb T
_ZN4Sass17Binary_Expression4leftENS_10SharedImplINS_10ExpressionEEE W
_ZN4Sass17Binary_Expression5rightENS_10SharedImplINS_10ExpressionEEE W
_ZN4Sass17Binary_Expression7performEPNS_9OperationINSt7__cxx1112basic_stringIcSt11char_traitsIcESaIcEEEEE W
_ZN4Sass17Binary_Expression7performEPNS_9OperationIP10Sass_ValueEE W
_ZN4Sass17Binary_Expression7performEPNS_9OperationIPNS_10ExpressionEEE W
_ZN4Sass17Binary_Expression7performEPNS_9OperationIPNS_17SupportsConditionEEE W
_ZN4Sass17Binary_Expression7performEPNS_9OperationIPNS_5ValueEEE W
_ZN4Sass17Binary_Expression7performEPNS_9OperationIPNS_8AST_NodeEEE W
_ZN4Sass17Binary_Expression7performEPNS_9OperationIPNS_8SelectorEEE W
_ZN4Sass17Binary_Expression7performEPNS_9OperationIPNS_9StatementEEE W
_ZN4Sass17Binary_Expression7performEPNS_9OperationIvEE W
_ZN4Sass17Binary_Expression9separatorB5cxx11Ev T
_ZN4Sass17Binary_Expression9type_nameB5cxx11Ev T
_ZN4Sass17Binary_ExpressionC1ENS_10SourceSpanENS_7OperandENS_10SharedImplINS_10ExpressionEEES5_ T
_ZN4Sass17Binary_ExpressionC1EPKS0_ T
_ZN4Sass17Binary_ExpressionC2ENS_10SourceSpanENS_7OperandENS_10SharedImplINS_10ExpressionEEES5_ T
_ZN4Sass17Binary_ExpressionC2EPKS0_ T
_ZN4Sass17Binary_ExpressionD0Ev W
_ZN4Sass17Binary_ExpressionD1Ev W
_ZN4Sass17Binary_ExpressionD2Ev W
_ZN4Sass17SelectorComponent11getCompoundEv W
_ZN4Sass17SelectorComponent13cloneChildrenEv T
_ZN4Sass17SelectorComponent13getCombinatorEv W
_ZN4Sass17SelectorComponent13wrapInComplexEv T
_ZN4Sass17SelectorComponent16hasPostLineBreakEb W
_ZN4Sass17SelectorComponentC1ENS_10SourceSpanEb T
_ZN4Sass17SelectorComponentC1EPKS0_ T
_ZN4Sass17SelectorComponentC2ENS_10SourceSpanEb T
_ZN4Sass17SelectorComponentC2EPKS0_ T
_ZN4Sass17SelectorComponentD0Ev W
_ZN4Sass17SelectorComponentD1Ev W
_ZN4Sass17SelectorComponentD2Ev W
_ZN4Sass17SupportsCondition7performEPNS_9OperationINSt7__cxx1112basic_stringIcSt11char_traitsIcESaIcEEEEE W
_ZN4Sass17SupportsCondition7performEPNS_9OperationIP10Sass_ValueEE W
_ZN4Sass17SupportsCondition7performEPNS_9OperationIPNS_10ExpressionEEE W
_ZN4Sass17SupportsCondition7performEPNS_9OperationIPNS_5ValueEEE W
_ZN4Sass17SupportsCondition7performEPNS_9OperationIPNS_8AST_NodeEEE W
_ZN4Sass17SupportsCondition7performEPNS_9OperationIPNS_8SelectorEEE W
_ZN4Sass17SupportsCondition7performEPNS_9OperationIPNS_9StatementEEE W
_ZN4Sass17SupportsCondition7performEPNS_9OperationIPS0_EE W
_ZN4Sass17SupportsCondition7performEPNS_9OperationIvEE W
_ZN4Sass17SupportsConditionC1ENS_10SourceSpanE T
_ZN4Sass17SupportsConditionC1EPKS0_ T
_ZN4Sass17SupportsConditionC2ENS_10SourceSpanE T
_ZN4Sass17SupportsConditionC2EPKS0_ T
_ZN4Sass17SupportsConditionD0Ev W
_ZN4Sass17SupportsConditionD1Ev W
_ZN4Sass17SupportsConditionD2Ev W
_ZN4Sass17SupportsOperation7performEPNS_9OperationINSt7__cxx1112basic_stringIcSt11char_traitsIcESaIcEEEEE W
_ZN4Sass17SupportsOperation7performEPNS_9OperationIP10Sass_ValueEE W
_ZN4Sass17SupportsOperation7performEPNS_9OperationIPNS_10ExpressionEEE W
_ZN4Sass17SupportsOperation7performEPNS_9OperationIPNS_17SupportsConditionEEE W
_ZN4Sass17SupportsOperation7performEPNS_9OperationIPNS_5ValueEEE W
_ZN4Sass17SupportsOperation7performEPNS_9OperationIPNS_8AST_NodeEEE W
_ZN4Sass17SupportsOperation7performEPNS_9OperationIPNS_8SelectorEEE W
_ZN4Sass17SupportsOperation7performEPNS_9OperationIPNS_9StatementEEE W
_ZN4Sass17SupportsOperation7performEPNS_9OperationIvEE W
_ZN4Sass17SupportsOperationC1ENS_10SourceSpanENS_10SharedImplINS_17SupportsConditionEEES4_NS0_7OperandE T
_ZN4Sass17SupportsOperationC1EPKS0_ T
_ZN4Sass17SupportsOperationC2ENS_10SourceSpanENS_10SharedImplINS_17SupportsConditionEEES4_NS0_7OperandE T
_ZN4Sass17SupportsOperationC2EPKS0_ T
_ZN4Sass17SupportsOperationD0Ev W
_ZN4Sass17SupportsOperationD1Ev W
_ZN4Sass17SupportsOperationD2Ev W
_ZN4Sass17conversion_factorENS_8UnitTypeES0_NS_9UnitClassES1_ T
_ZN4Sass17conversion_factorERKNSt7__cxx1112basic_stringIcSt11char_traitsIcESaIcEEES7_ T
_ZN4Sass17free_string_arrayEPPc T
_ZN4Sass17register_functionERNS_7ContextEPKcPFPNS_8PreValueERNS_11EnvironmentINS_10SharedImplINS_8AST_NodeEEEEESB_S1_S3_NS_10SourceSpanERSt6vectorINS_9BacktraceESaISE_EESD_INS7_INS_12SelectorListEEESaISJ_EESL_EPSA_ T
_ZN4Sass17register_functionERNS_7ContextEPKcPFPNS_8PreValueERNS_11EnvironmentINS_10SharedImplINS_8AST_NodeEEEEESB_S1_S3_NS_10SourceSpanERSt6vectorINS_9BacktraceESaISE_EESD_INS7_INS_12SelectorListEEESaISJ_EESL_EmPSA_ T
_ZN4Sass17sass_op_separatorE7Sass_OP T
_ZN4Sass18SelectorCombinator13cloneChildrenEv T
_ZN4Sass18SelectorCombinator13getCombinatorEv W
_ZN4Sass18SelectorCombinator7performEPNS_9OperationINSt7__cxx1112basic_stringIcSt11char_traitsIcESaIcEEEEE W
_ZN4Sass18SelectorCombinator7performEPNS_9OperationIP10Sass_ValueEE W
_ZN4Sass18SelectorCombinator7performEPNS_9OperationIPNS_10ExpressionEEE W
_ZN4Sass18SelectorCombinator7performEPNS_9OperationIPNS_17SupportsConditionEEE W
_ZN4Sass18SelectorCombinator7performEPNS_9OperationIPNS_5ValueEEE W
_ZN4Sass18SelectorCombinator7performEPNS_9OperationIPNS_8AST_NodeEEE W
_ZN4Sass18SelectorCombinator7performEPNS_9OperationIPNS_8SelectorEEE W
_ZN4Sass18SelectorCombinator7performEPNS_9OperationIPNS_9StatementEEE W
_ZN4Sass18SelectorCombinator7performEPNS_9OperationIvEE W
_ZN4Sass18SelectorCombinatorC1ENS_10SourceSpanENS0_10CombinatorEb T
_ZN4Sass18SelectorCombinatorC1EPKS0_ T
_ZN4Sass18SelectorCombinatorC2ENS_10SourceSpanENS0_10CombinatorEb T
_ZN4Sass18SelectorCombinatorC2EPKS0_ T
_ZN4Sass18SelectorCombinatorD0Ev W
_ZN4Sass18SelectorCombinatorD1Ev W
_ZN4Sass18SelectorCombinatorD2Ev W
_ZN4Sass18checkForEmptyChildISt6vectorIS1_INS_10SharedImplINS_17SelectorComponentEEESaIS4_EESaIS6_EEEEbRKT_ W
_ZN4Sass18cmpSimpleSelectorsEPNS_14SimpleSelectorES1_ T
_ZN4Sass18listIsSuperslectorERKSt6vectorINS_10SharedImplINS_15ComplexSelectorEEESaIS3_EES7_ T
_ZN4Sass19PlaceholderSelector15has_placeholderEv T
_ZN4Sass19PlaceholderSelector7performEPNS_9OperationINSt7__cxx1112basic_stringIcSt11char_traitsIcESaIcEEEEE W
_ZN4Sass19PlaceholderSelector7performEPNS_9OperationIP10Sass_ValueEE W
_ZN4Sass19PlaceholderSelector7performEPNS_9OperationIPNS_10ExpressionEEE W
_ZN4Sass19PlaceholderSelector7performEPNS_9OperationIPNS_17SupportsConditionEEE W
_ZN4Sass19PlaceholderSelector7performEPNS_9OperationIPNS_5ValueEEE W
_ZN4Sass19PlaceholderSelector7performEPNS_9OperationIPNS_8AST_NodeEEE W
_ZN4Sass19PlaceholderSelector7performEPNS_9OperationIPNS_8SelectorEEE W
_ZN4Sass19PlaceholderSelector7performEPNS_9OperationIPNS_9StatementEEE W
_ZN4Sass19PlaceholderSelector7performEPNS_9OperationIvEE W
_ZN4Sass19PlaceholderSelectorC1ENS_10SourceSpanENSt7__cxx1112basic_stringIcSt11char_traitsIcESaIcEEE T
_ZN4Sass19PlaceholderSelectorC1EPKS0_ T
_ZN4Sass19PlaceholderSelectorC2ENS_10SourceSpanENSt7__cxx1112basic_stringIcSt11char_traitsIcESaIcEEE T
_ZN4Sass19PlaceholderSelectorC2EPKS0_ T
_ZN4Sass19PlaceholderSelectorD0Ev W
_ZN4Sass19PlaceholderSelectorD1Ev W
_ZN4Sass19PlaceholderSelectorD2Ev W
_ZN4Sass19Remove_Placeholders19remove_placeholdersEPNS_12SelectorListE T
_ZN4Sass19Remove_Placeholders19remove_placeholdersEPNS_14SimpleSelectorE T
_ZN4Sass19Remove_Placeholders19remove_placeholdersEPNS_15ComplexSelectorE T
_ZN4Sass19Remove_Placeholders19remove_placeholdersEPNS_16CompoundSelectorE T
_ZN4Sass19Remove_Placeholders8fallbackIPNS_10AssignmentEEEvT_ W
_ZN4Sass19Remove_Placeholders8fallbackIPNS_10AtRootRuleEEEvT_ W
_ZN4Sass19Remove_Placeholders8fallbackIPNS_10Color_HSLAEEEvT_ W
_ZN4Sass19Remove_Placeholders8fallbackIPNS_10Color_RGBAEEEvT_ W
_ZN4Sass19Remove_Placeholders8fallbackIPNS_10DefinitionEEEvT_ W
_ZN4Sass19Remove_Placeholders8fallbackIPNS_10ExtendRuleEEEvT_ W
_ZN4Sass19Remove_Placeholders8fallbackIPNS_10IDSelectorEEEvT_ W
_ZN4Sass19Remove_Placeholders8fallbackIPNS_10Mixin_CallEEEvT_ W
_ZN4Sass19Remove_Placeholders8fallbackIPNS_10ParametersEEEvT_ W
_ZN4Sass19Remove_Placeholders8fallbackIPNS_11DeclarationEEEvT_ W
_ZN4Sass19Remove_Placeholders8fallbackIPNS_11Import_StubEEEvT_ W
_ZN4Sass19Remove_Placeholders8fallbackIPNS_11Media_QueryEEEvT_ W
_ZN4Sass19Remove_Placeholders8fallbackIPNS_11WarningRuleEEEvT_ W
_ZN4Sass19Remove_Placeholders8fallbackIPNS_12CssMediaRuleEEEvT_ W
_ZN4Sass19Remove_Placeholders8fallbackIPNS_12Custom_ErrorEEEvT_ W
_ZN4Sass19Remove_Placeholders8fallbackIPNS_12SelectorListEEEvT_ W
_ZN4Sass19Remove_Placeholders8fallbackIPNS_12SupportsRuleEEEvT_ W
_ZN4Sass19Remove_Placeholders8fallbackIPNS_12TypeSelectorEEEvT_ W
_ZN4Sass19Remove_Placeholders8fallbackIPNS_13At_Root_QueryEEEvT_ W
_ZN4Sass19Remove_Placeholders8fallbackIPNS_13ClassSelectorEEEvT_ W
_ZN4Sass19Remove_Placeholders8fallbackIPNS_13CssMediaQueryEEEvT_ W
_ZN4Sass19Remove_Placeholders8fallbackIPNS_13Function_CallEEEvT_ W
_ZN4Sass19Remove_Placeholders8fallbackIPNS_13Keyframe_RuleEEEvT_ W
_ZN4Sass19Remove_Placeholders8fallbackIPNS_13String_QuotedEEEvT_ W
_ZN4Sass19Remove_Placeholders8fallbackIPNS_13String_SchemaEEEvT_ W
_ZN4Sass19Remove_Placeholders8fallbackIPNS_14Custom_WarningEEEvT_ W
_ZN4Sass19Remove_Placeholders8fallbackIPNS_14PseudoSelectorEEEvT_ W
_ZN4Sass19Remove_Placeholders8fallbackIPNS_15ComplexSelectorEEEvT_ W
_ZN4Sass19Remove_Placeholders8fallbackIPNS_15Selector_SchemaEEEvT_ W
_ZN4Sass19Remove_Placeholders8fallbackIPNS_15String_ConstantEEEvT_ W
_ZN4Sass19Remove_Placeholders8fallbackIPNS_16CompoundSelectorEEEvT_ W
_ZN4Sass19Remove_Placeholders8fallbackIPNS_16Parent_ReferenceEEEvT_ W
_ZN4Sass19Remove_Placeholders8fallbackIPNS_16SupportsNegationEEEvT_ W
_ZN4Sass19Remove_Placeholders8fallbackIPNS_16Unary_ExpressionEEEvT_ W
_ZN4Sass19Remove_Placeholders8fallbackIPNS_17AttributeSelectorEEEvT_ W
_ZN4Sass19Remove_Placeholders8fallbackIPNS_17Binary_ExpressionEEEvT_ W
_ZN4Sass19Remove_Placeholders8fallbackIPNS_17SelectorComponentEEEvT_ W
_ZN4Sass19Remove_Placeholders8fallbackIPNS_17SupportsConditionEEEvT_ W
_ZN4Sass19Remove_Placeholders8fallbackIPNS_17SupportsOperationEEEvT_ W
_ZN4Sass19Remove_Placeholders8fallbackIPNS_18SelectorCombinatorEEEvT_ W
_ZN4Sass19Remove_Placeholders8fallbackIPNS_19PlaceholderSelectorEEEvT_ W
_ZN4Sass19Remove_Placeholders8fallbackIPNS_19SupportsDeclarationEEEvT_ W
_ZN4Sass19Remove_Placeholders8fallbackIPNS_22Media_Query_ExpressionEEEvT_ W
_ZN4Sass19Remove_Placeholders8fallbackIPNS_22Supports_InterpolationEEEvT_ W
_ZN4Sass19Remove_Placeholders8fallbackIPNS_2IfEEEvT_ W
_ZN4Sass19Remove_Placeholders8fallbackIPNS_3MapEEEvT_ W
_ZN4Sass19Remove_Placeholders8fallbackIPNS_4ListEEEvT_ W
_ZN4Sass19Remove_Placeholders8fallbackIPNS_4NullEEEvT_ W
_ZN4Sass19Remove_Placeholders8fallbackIPNS_5BlockEEEvT_ W
_ZN4Sass19Remove_Placeholders8fallbackIPNS_5ColorEEEvT_ W
_ZN4Sass19Remove_Placeholders8fallbackIPNS_5TraceEEEvT_ W
_ZN4Sass19Remove_Placeholders8fallbackIPNS_6AtRuleEEEvT_ W
_ZN4Sass19Remove_Placeholders8fallbackIPNS_6BubbleEEEvT_ W
_ZN4Sass19Remove_Placeholders8fallbackIPNS_6ImportEEEvT_ W
_ZN4Sass19Remove_Placeholders8fallbackIPNS_6NumberEEEvT_ W
_ZN4Sass19Remove_Placeholders8fallbackIPNS_6ReturnEEEvT_ W
_ZN4Sass19Remove_Placeholders8fallbackIPNS_7BooleanEEEvT_ W
_ZN4Sass19Remove_Placeholders8fallbackIPNS_7CommentEEEvT_ W
_ZN4Sass19Remove_Placeholders8fallbackIPNS_7ContentEEEvT_ W
_ZN4Sass19Remove_Placeholders8fallbackIPNS_7ForRuleEEEvT_ W
_ZN4Sass19Remove_Placeholders8fallbackIPNS_8AST_NodeEEEvT_ W
_ZN4Sass19Remove_Placeholders8fallbackIPNS_8ArgumentEEEvT_ W
_ZN4Sass19Remove_Placeholders8fallbackIPNS_8EachRuleEEEvT_ W
_ZN4Sass19Remove_Placeholders8fallbackIPNS_8FunctionEEEvT_ W
_ZN4Sass19Remove_Placeholders8fallbackIPNS_8VariableEEEvT_ W
_ZN4Sass19Remove_Placeholders8fallbackIPNS_9ArgumentsEEEvT_ W
_ZN4Sass19Remove_Placeholders8fallbackIPNS_9DebugRuleEEEvT_ W
_ZN4Sass19Remove_Placeholders8fallbackIPNS_9ErrorRuleEEEvT_ W
_ZN4Sass19Remove_Placeholders8fallbackIPNS_9MediaRuleEEEvT_ W
_ZN4Sass19Remove_Placeholders8fallbackIPNS_9ParameterEEEvT_ W
_ZN4Sass19Remove_Placeholders8fallbackIPNS_9StyleRuleEEEvT_ W
_ZN4Sass19Remove_Placeholders8fallbackIPNS_9WhileRuleEEEvT_ W
_ZN4Sass19Remove_PlaceholdersC1Ev T
_ZN4Sass19Remove_PlaceholdersC2Ev T
_ZN4Sass19Remove_PlaceholdersD1Ev W
_ZN4Sass19Remove_PlaceholdersD2Ev W
_ZN4Sass19Remove_PlaceholdersclEPNS_12CssMediaRuleE T
_ZN4Sass19Remove_PlaceholdersclEPNS_12SupportsRuleE T
_ZN4Sass19Remove_PlaceholdersclEPNS_5BlockE T
_ZN4Sass19Remove_PlaceholdersclEPNS_6AtRuleE T
_ZN4Sass19Remove_PlaceholdersclEPNS_9StyleRuleE T
_ZN4Sass19SupportsDeclaration7performEPNS_9OperationINSt7__cxx1112basic_stringIcSt11char_traitsIcESaIcEEEEE W
_ZN4Sass19SupportsDeclaration7performEPNS_9OperationIP10Sass_ValueEE W
_ZN4Sass19SupportsDeclaration7performEPNS_9OperationIPNS_10ExpressionEEE W
_ZN4Sass19SupportsDeclaration7performEPNS_9OperationIPNS_17SupportsConditionEEE W
_ZN4Sass19SupportsDeclaration7performEPNS_9OperationIPNS_5ValueEEE W
_ZN4Sass19SupportsDeclaration7performEPNS_9OperationIPNS_8AST_NodeEEE W
_ZN4Sass19SupportsDeclaration7performEPNS_9OperationIPNS_8SelectorEEE W
_ZN4Sass19SupportsDeclaration7performEPNS_9OperationIPNS_9StatementEEE W
_ZN4Sass19SupportsDeclaration7performEPNS_9OperationIvEE W
_ZN4Sass19SupportsDeclarationC1ENS_10SourceSpanENS_10SharedImplINS_10ExpressionEEES4_ T
_ZN4Sass19SupportsDeclarationC1EPKS0_ T
_ZN4Sass19SupportsDeclarationC2ENS_10SourceSpanENS_10SharedImplINS_10ExpressionEEES4_ T
_ZN4Sass19SupportsDeclarationC2EPKS0_ T
_ZN4Sass19SupportsDeclarationD0Ev W
_ZN4Sass19SupportsDeclarationD1Ev W
_ZN4Sass19SupportsDeclarationD2Ev W
_ZN4Sass19deprecated_functionENSt7__cxx1112basic_stringIcSt11char_traitsIcESaIcEEENS_10SourceSpanE T
_ZN4Sass19isFakePseudoElementERKNSt7__cxx1112basic_stringIcSt11char_traitsIcESaIcEEE W
_ZN4Sass19isSubselectorPseudoERKNSt7__cxx1112basic_stringIcSt11char_traitsIcESaIcEEE W
_ZN4Sass19listIsSubsetOrEqualISt6vectorINSt7__cxx1112basic_stringIcSt11char_traitsIcESaIcEEESaIS7_EEEEbRKT_SC_ W
_ZN4Sass19register_c_functionERNS_7ContextEPNS_11EnvironmentINS_10SharedImplINS_8AST_NodeEEEEEP13Sass_Function T
_ZN4Sass19selectorPseudoNamedENS_10SharedImplINS_16CompoundSelectorEEENSt7__cxx1112basic_stringIcSt11char_traitsIcESaIcEEE T
_ZN4Sass20make_native_functionEPKcPFPNS_8PreValueERNS_11EnvironmentINS_10SharedImplINS_8AST_NodeEEEEES9_RNS_7ContextES1_NS_10SourceSpanERSt6vectorINS_9BacktraceESaISE_EESD_INS5_INS_12SelectorListEEESaISJ_EESL_ESB_ T
_ZN4Sass20register_c_functionsERNS_7ContextEPNS_11EnvironmentINS_10SharedImplINS_8AST_NodeEEEEEPP13Sass_Function T
_ZN4Sass21detect_best_quotemarkEPKcc T
_ZN4Sass21mergeFinalCombinatorsERSt6vectorINS_10SharedImplINS_17SelectorComponentEEESaIS3_EES6_RS0_IS0_IS5_SaIS5_EESaIS8_EE T
_ZN4Sass21simpleIsSuperselectorERKNS_10SharedImplINS_14SimpleSelectorEEES4_ T
_ZN4Sass22Media_Query_Expression7performEPNS_9OperationINSt7__cxx1112basic_stringIcSt11char_traitsIcESaIcEEEEE W
_ZN4Sass22Media_Query_Expression7performEPNS_9OperationIP10Sass_ValueEE W
_ZN4Sass22Media_Query_Expression7performEPNS_9OperationIPNS_10ExpressionEEE W
_ZN4Sass22Media_Query_Expression7performEPNS_9OperationIPNS_17SupportsConditionEEE W
_ZN4Sass22Media_Query_Expression7performEPNS_9OperationIPNS_5ValueEEE W
_ZN4Sass22Media_Query_Expression7performEPNS_9OperationIPNS_8AST_NodeEEE W
_ZN4Sass22Media_Query_Expression7performEPNS_9OperationIPNS_8SelectorEEE W
_ZN4Sass22Media_Query_Expression7performEPNS_9OperationIPNS_9StatementEEE W
_ZN4Sass22Media_Query_Expression7performEPNS_9OperationIvEE W
_ZN4Sass22Media_Query_ExpressionC1ENS_10SourceSpanENS_10SharedImplINS_10ExpressionEEES4_b T
_ZN4Sass22Media_Query_ExpressionC1EPKS0_ T
_ZN4Sass22Media_Query_ExpressionC2ENS_10SourceSpanENS_10SharedImplINS_10ExpressionEEES4_b T
_ZN4Sass22Media_Query_ExpressionC2EPKS0_ T
_ZN4Sass22Media_Query_ExpressionD0Ev W
_ZN4Sass22Media_Query_ExpressionD1Ev W
_ZN4Sass22Media_Query_ExpressionD2Ev W
_ZN4Sass22Supports_Interpolation7performEPNS_9OperationINSt7__cxx1112basic_stringIcSt11char_traitsIcESaIcEEEEE W
_ZN4Sass22Supports_Interpolation7performEPNS_9OperationIP10Sass_ValueEE W
_ZN4Sass22Supports_Interpolation7performEPNS_9OperationIPNS_10ExpressionEEE W
_ZN4Sass22Supports_Interpolation7performEPNS_9OperationIPNS_17SupportsConditionEEE W
_ZN4Sass22Supports_Interpolation7performEPNS_9OperationIPNS_5ValueEEE W
_ZN4Sass22Supports_Interpolation7performEPNS_9OperationIPNS_8AST_NodeEEE W
_ZN4Sass22Supports_Interpolation7performEPNS_9OperationIPNS_8SelectorEEE W
_ZN4Sass22Supports_Interpolation7performEPNS_9OperationIPNS_9StatementEEE W
_ZN4Sass22Supports_Interpolation7performEPNS_9OperationIvEE W
_ZN4Sass22Supports_InterpolationC1ENS_10SourceSpanENS_10SharedImplINS_10ExpressionEEE T
_ZN4Sass22Supports_InterpolationC1EPKS0_ T
_ZN4Sass22Supports_InterpolationC2ENS_10SourceSpanENS_10SharedImplINS_10ExpressionEEE T
_ZN4Sass22Supports_InterpolationC2EPKS0_ T
_ZN4Sass22Supports_InterpolationD0Ev W
_ZN4Sass22Supports_InterpolationD1Ev W
_ZN4Sass22Supports_InterpolationD2Ev W
_ZN4Sass22ast_node_to_sass_valueEPKNS_10ExpressionE T
_ZN4Sass22complexIsSuperselectorERKSt6vectorINS_10SharedImplINS_17SelectorComponentEEESaIS3_EES7_ T
_ZN4Sass22register_overload_stubERNS_7ContextENSt7__cxx1112basic_stringIcSt11char_traitsIcESaIcEEEPNS_11EnvironmentINS_10SharedImplINS_8AST_NodeEEEEE T
_ZN4Sass22sass_value_to_ast_nodeEPK10Sass_Value T
_ZN4Sass23compoundIsSuperselectorERKNS_10SharedImplINS_16CompoundSelectorEEES4_N9__gnu_cxx17__normal_iteratorIPKNS0_INS_17SelectorComponentEEESt6vectorIS8_SaIS8_EEEESE_ T
_ZN4Sass23compoundIsSuperselectorERKNS_10SharedImplINS_16CompoundSelectorEEES4_RKSt6vectorINS0_INS_17SelectorComponentEEESaIS7_EE T
_ZN4Sass23mergeInitialCombinatorsERSt6vectorINS_10SharedImplINS_17SelectorComponentEEESaIS3_EES6_S6_ T
_ZN4Sass23size_conversion_factorsE R
_ZN4Sass23time_conversion_factorsE R
_ZN4Sass24angle_conversion_factorsE R
_ZN4Sass24cmpChunkForEmptySequenceERKSt6vectorIS0_INS_10SharedImplINS_17SelectorComponentEEESaIS3_EESaIS5_EERKS5_ T
_ZN4Sass25comment_to_compact_stringERKNSt7__cxx1112basic_stringIcSt11char_traitsIcESaIcEEE T
_ZN4Sass27idIsSuperselectorOfCompoundERKNS_10SharedImplINS_10IDSelectorEEERKNS0_INS_16CompoundSelectorEEE T
_ZN4Sass27register_built_in_functionsERNS_7ContextEPNS_11EnvironmentINS_10SharedImplINS_8AST_NodeEEEEE T
_ZN4Sass28complexIsParentSuperselectorERKSt6vectorINS_10SharedImplINS_17SelectorComponentEEESaIS3_EES7_ T
_ZN4Sass28frequency_conversion_factorsE R
_ZN4Sass29listHasSuperslectorForComplexESt6vectorINS_10SharedImplINS_15ComplexSelectorEEESaIS3_EES3_ T
_ZN4Sass29pseudoIsSuperselectorOfPseudoERKNS_10SharedImplINS_14PseudoSelectorEEES4_RKNS0_INS_15ComplexSelectorEEE T
_ZN4Sass29resolution_conversion_factorsE R
_ZN4Sass29selectorPseudoIsSuperselectorERKNS_10SharedImplINS_14PseudoSelectorEEERKNS0_INS_16CompoundSelectorEEEN9__gnu_cxx17__normal_iteratorIPKNS0_INS_17SelectorComponentEEESt6vectorISC_SaISC_EEEESI_ T
_ZN4Sass29typeIsSuperselectorOfCompoundERKNS_10SharedImplINS_12TypeSelectorEEERKNS0_INS_16CompoundSelectorEEE T
_ZN4Sass2If11has_contentEv T
_ZN4Sass2If7performEPNS_9OperationINSt7__cxx1112basic_stringIcSt11char_traitsIcESaIcEEEEE W
_ZN4Sass2If7performEPNS_9OperationIP10Sass_ValueEE W
_ZN4Sass2If7performEPNS_9OperationIPNS_10ExpressionEEE W
_ZN4Sass2If7performEPNS_9OperationIPNS_17SupportsConditionEEE W
_ZN4Sass2If7performEPNS_9OperationIPNS_5ValueEEE W
_ZN4Sass2If7performEPNS_9OperationIPNS_8AST_NodeEEE W
_ZN4Sass2If7performEPNS_9OperationIPNS_8SelectorEEE W
_ZN4Sass2If7performEPNS_9OperationIPNS_9StatementEEE W
_ZN4Sass2If7performEPNS_9OperationIvEE W
_ZN4Sass2IfC1ENS_10SourceSpanENS_10SharedImplINS_10ExpressionEEENS2_INS_5BlockEEES6_ T
_ZN4Sass2IfC1EPKS0_ T
_ZN4Sass2IfC2ENS_10SourceSpanENS_10SharedImplINS_10ExpressionEEENS2_INS_5BlockEEES6_ T
_ZN4Sass2IfC2EPKS0_ T
_ZN4Sass2IfD0Ev W
_ZN4Sass2IfD1Ev W
_ZN4Sass2IfD2Ev W
_ZN4Sass30cmpChunkForParentSuperselectorERKSt6vectorIS0_INS_10SharedImplINS_17SelectorComponentEEESaIS3_EESaIS5_EERKS5_ T
_ZN4Sass31simpleIsSuperselectorOfCompoundERKNS_10SharedImplINS_14SimpleSelectorEEERKNS0_INS_16CompoundSelectorEEE T
_ZN4Sass34pseudoNotIsSuperselectorOfCompoundERKNS_10SharedImplINS_14PseudoSelectorEEERKNS0_INS_16CompoundSelectorEEERKNS0_INS_15ComplexSelectorEEE T
_ZN4Sass3Map20adjust_after_pushingESt4pairINS_10SharedImplINS_10ExpressionEEES4_E W
_ZN4Sass3Map7performEPNS_9OperationINSt7__cxx1112basic_stringIcSt11char_traitsIcESaIcEEEEE W
_ZN4Sass3Map7performEPNS_9OperationIP10Sass_ValueEE W
_ZN4Sass3Map7performEPNS_9OperationIPNS_10ExpressionEEE W
_ZN4Sass3Map7performEPNS_9OperationIPNS_17SupportsConditionEEE W
_ZN4Sass3Map7performEPNS_9OperationIPNS_5ValueEEE W
_ZN4Sass3Map7performEPNS_9OperationIPNS_8AST_NodeEEE W
_ZN4Sass3Map7performEPNS_9OperationIPNS_8SelectorEEE W
_ZN4Sass3Map7performEPNS_9OperationIPNS_9StatementEEE W
_ZN4Sass3Map7performEPNS_9OperationIvEE W
_ZN4Sass3Map7to_listERNS_10SourceSpanE T
_ZN4Sass3Map9type_nameB5cxx11Ev W
_ZN4Sass3MapC1ENS_10SourceSpanEm T
_ZN4Sass3MapC1EPKS0_ T
_ZN4Sass3MapC2ENS_10SourceSpanEm T
_ZN4Sass3MapC2EPKS0_ T
_ZN4Sass3MapD0Ev W
_ZN4Sass3MapD1Ev W
_ZN4Sass3MapD2Ev W
_ZN4Sass3lcsINS_10SharedImplINS_17SelectorComponentEEEEESt6vectorIT_SaIS5_EERKS7_S9_PFbRKS5_SB_RS5_E W
_ZN4Sass3lcsISt6vectorINS_10SharedImplINS_17SelectorComponentEEESaIS4_EEEES1_IT_SaIS7_EERKS9_SB_PFbRKS7_SD_RS7_E W
_ZN4Sass4CastIKNS_13String_QuotedEEEPKT_PKNS_8AST_NodeE W
_ZN4Sass4CastINS_10AssignmentEEEPT_PNS_8AST_NodeE W
_ZN4Sass4CastINS_10AtRootRuleEEEPT_PNS_8AST_NodeE W
_ZN4Sass4CastINS_10Color_HSLAEEEPKT_PKNS_8AST_NodeE W
_ZN4Sass4CastINS_10Color_RGBAEEEPKT_PKNS_8AST_NodeE W
_ZN4Sass4CastINS_10DefinitionEEEPT_PNS_8AST_NodeE W
_ZN4Sass4CastINS_10ExpressionEEEPKT_PKNS_8AST_NodeE T
_ZN4Sass4CastINS_10ExpressionEEEPT_PNS_8AST_NodeE T
_ZN4Sass4CastINS_10ExtendRuleEEEPT_PNS_8AST_NodeE W
_ZN4Sass4CastINS_10IDSelectorEEEPKT_PKNS_8AST_NodeE W
_ZN4Sass4CastINS_10IDSelectorEEEPT_PNS_8AST_NodeE W
_ZN4Sass4CastINS_10Mixin_CallEEEPT_PNS_8AST_NodeE W
_ZN4Sass4CastINS_11DeclarationEEEPT_PNS_8AST_NodeE W
_ZN4Sass4CastINS_11WarningRuleEEEPT_PNS_8AST_NodeE W
_ZN4Sass4CastINS_12CssMediaRuleEEEPT_PNS_8AST_NodeE W
_ZN4Sass4CastINS_12Custom_ErrorEEEPKT_PKNS_8AST_NodeE W
_ZN4Sass4CastINS_12SelectorListEEEPKT_PKNS_8AST_NodeE W
_ZN4Sass4CastINS_12SelectorListEEEPT_PNS_8AST_NodeE W
_ZN4Sass4CastINS_12SupportsRuleEEEPT_PNS_8AST_NodeE W
_ZN4Sass4CastINS_12TypeSelectorEEEPKT_PKNS_8AST_NodeE W
_ZN4Sass4CastINS_12TypeSelectorEEEPT_PNS_8AST_NodeE W
_ZN4Sass4CastINS_13At_Root_QueryEEEPT_PNS_8AST_NodeE W
_ZN4Sass4CastINS_13ClassSelectorEEEPKT_PKNS_8AST_NodeE W
_ZN4Sass4CastINS_13Function_CallEEEPKT_PKNS_8AST_NodeE W
_ZN4Sass4CastINS_13Keyframe_RuleEEEPT_PNS_8AST_NodeE W
_ZN4Sass4CastINS_13String_QuotedEEEPKT_PKNS_8AST_NodeE W
_ZN4Sass4CastINS_13String_QuotedEEEPT_PNS_8AST_NodeE W
_ZN4Sass4CastINS_13String_SchemaEEEPKT_PKNS_8AST_NodeE W
_ZN4Sass4CastINS_13String_SchemaEEEPT_PNS_8AST_NodeE W
_ZN4Sass4CastINS_14Custom_WarningEEEPKT_PKNS_8AST_NodeE W
_ZN4Sass4CastINS_14PseudoSelectorEEEPKT_PKNS_8AST_NodeE W
_ZN4Sass4CastINS_14PseudoSelectorEEEPT_PNS_8AST_NodeE W
_ZN4Sass4CastINS_14SimpleSelectorEEEPKT_PKNS_8AST_NodeE T
_ZN4Sass4CastINS_14SimpleSelectorEEEPT_PNS_8AST_NodeE T
_ZN4Sass4CastINS_15ComplexSelectorEEEPKT_PKNS_8AST_NodeE W
_ZN4Sass4CastINS_15ParentStatementEEEPKT_PKNS_8AST_NodeE T
_ZN4Sass4CastINS_15ParentStatementEEEPT_PNS_8AST_NodeE T
_ZN4Sass4CastINS_15String_ConstantEEEPKT_PKNS_8AST_NodeE T
_ZN4Sass4CastINS_15String_ConstantEEEPT_PNS_8AST_NodeE T
_ZN4Sass4CastINS_16CompoundSelectorEEEPKT_PKNS_8AST_NodeE W
_ZN4Sass4CastINS_16CompoundSelectorEEEPT_PNS_8AST_NodeE W
_ZN4Sass4CastINS_16Parent_ReferenceEEEPT_PNS_8AST_NodeE W
_ZN4Sass4CastINS_16SupportsNegationEEEPT_PNS_8AST_NodeE W
_ZN4Sass4CastINS_16Unary_ExpressionEEEPKT_PKNS_8AST_NodeE W
_ZN4Sass4CastINS_17AttributeSelectorEEEPKT_PKNS_8AST_NodeE W
_ZN4Sass4CastINS_17Binary_ExpressionEEEPKT_PKNS_8AST_NodeE W
_ZN4Sass4CastINS_17Binary_ExpressionEEEPT_PNS_8AST_NodeE W
_ZN4Sass4CastINS_17SelectorComponentEEEPKT_PKNS_8AST_NodeE T
_ZN4Sass4CastINS_17SelectorComponentEEEPT_PNS_8AST_NodeE T
_ZN4Sass4CastINS_17SupportsConditionEEEPKT_PKNS_8AST_NodeE T
_ZN4Sass4CastINS_17SupportsConditionEEEPT_PNS_8AST_NodeE T
_ZN4Sass4CastINS_17SupportsOperationEEEPT_PNS_8AST_NodeE W
_ZN4Sass4CastINS_18SelectorCombinatorEEEPKT_PKNS_8AST_NodeE W
_ZN4Sass4CastINS_18SelectorCombinatorEEEPT_PNS_8AST_NodeE W
_ZN4Sass4CastINS_19PlaceholderSelectorEEEPKT_PKNS_8AST_NodeE W
_ZN4Sass4CastINS_2IfEEEPT_PNS_8AST_NodeE W
_ZN4Sass4CastINS_3MapEEEPKT_PKNS_8AST_NodeE W
_ZN4Sass4CastINS_3MapEEEPT_PNS_8AST_NodeE W
_ZN4Sass4CastINS_4ListEEEPKT_PKNS_8AST_NodeE T
_ZN4Sass4CastINS_4ListEEEPT_PNS_8AST_NodeE T
_ZN4Sass4CastINS_4NullEEEPKT_PKNS_8AST_NodeE W
_ZN4Sass4CastINS_4NullEEEPT_PNS_8AST_NodeE W
_ZN4Sass4CastINS_5BlockEEEPT_PNS_8AST_NodeE W
_ZN4Sass4CastINS_5ColorEEEPKT_PKNS_8AST_NodeE T
_ZN4Sass4CastINS_5ColorEEEPT_PNS_8AST_NodeE T
_ZN4Sass4CastINS_5TraceEEEPT_PNS_8AST_NodeE W
_ZN4Sass4CastINS_5ValueEEEPKT_PKNS_8AST_NodeE T
_ZN4Sass4CastINS_5ValueEEEPT_PNS_8AST_NodeE T
_ZN4Sass4CastINS_6AtRuleEEEPT_PNS_8AST_NodeE W
_ZN4Sass4CastINS_6BubbleEEEPT_PNS_8AST_NodeE W
_ZN4Sass4CastINS_6ImportEEEPT_PNS_8AST_NodeE W
_ZN4Sass4CastINS_6NumberEEEPKT_PKNS_8AST_NodeE W
_ZN4Sass4CastINS_6NumberEEEPT_PNS_8AST_NodeE W
_ZN4Sass4CastINS_6ReturnEEEPT_PNS_8AST_NodeE W
_ZN4Sass4CastINS_6StringEEEPKT_PKNS_8AST_NodeE T
_ZN4Sass4CastINS_6StringEEEPT_PNS_8AST_NodeE T
_ZN4Sass4CastINS_7BooleanEEEPKT_PKNS_8AST_NodeE W
_ZN4Sass4CastINS_7BooleanEEEPT_PNS_8AST_NodeE W
_ZN4Sass4CastINS_7CommentEEEPT_PNS_8AST_NodeE W
_ZN4Sass4CastINS_7ContentEEEPT_PNS_8AST_NodeE W
_ZN4Sass4CastINS_7ForRuleEEEPT_PNS_8AST_NodeE W
_ZN4Sass4CastINS_8AST_NodeEEEPKT_PKS1_ T
_ZN4Sass4CastINS_8AST_NodeEEEPT_PS1_ T
_ZN4Sass4CastINS_8ArgumentEEEPKT_PKNS_8AST_NodeE W
_ZN4Sass4CastINS_8ArgumentEEEPT_PNS_8AST_NodeE W
_ZN4Sass4CastINS_8EachRuleEEEPT_PNS_8AST_NodeE W
_ZN4Sass4CastINS_8FunctionEEEPKT_PKNS_8AST_NodeE W
_ZN4Sass4CastINS_8FunctionEEEPT_PNS_8AST_NodeE W
_ZN4Sass4CastINS_8PreValueEEEPKT_PKNS_8AST_NodeE T
_ZN4Sass4CastINS_8PreValueEEEPT_PNS_8AST_NodeE T
_ZN4Sass4CastINS_8SelectorEEEPKT_PKNS_8AST_NodeE T
_ZN4Sass4CastINS_8SelectorEEEPT_PNS_8AST_NodeE T
_ZN4Sass4CastINS_8VariableEEEPKT_PKNS_8AST_NodeE W
_ZN4Sass4CastINS_8VariableEEEPT_PNS_8AST_NodeE W
_ZN4Sass4CastINS_9ArgumentsEEEPT_PNS_8AST_NodeE W
_ZN4Sass4CastINS_9DebugRuleEEEPT_PNS_8AST_NodeE W
_ZN4Sass4CastINS_9ErrorRuleEEEPT_PNS_8AST_NodeE W
_ZN4Sass4CastINS_9MediaRuleEEEPT_PNS_8AST_NodeE W
_ZN4Sass4CastINS_9StatementEEEPKT_PKNS_8AST_NodeE T
_ZN4Sass4CastINS_9StatementEEEPT_PNS_8AST_NodeE T
_ZN4Sass4CastINS_9StyleRuleEEEPT_PNS_8AST_NodeE W
_ZN4Sass4CastINS_9WhileRuleEEEPT_PNS_8AST_NodeE W
_ZN4Sass4Eval11environmentEv T
_ZN4Sass4Eval12callee_stackEv T
_ZN4Sass4Eval13interpolationERNS_7ContextERNSt7__cxx1112basic_stringIcSt11char_traitsIcESaIcEEENS_10SharedImplINS_10ExpressionEEEbb T
_ZN4Sass4Eval3cwdB5cxx11Ev T
_ZN4Sass4Eval7optionsEv T
_ZN4Sass4Eval8compilerEv T
_ZN4Sass4Eval8fallbackIPNS_10AssignmentEEEPNS_10ExpressionET_ W
_ZN4Sass4Eval8fallbackIPNS_10AtRootRuleEEEPNS_10ExpressionET_ W
_ZN4Sass4Eval8fallbackIPNS_10Color_HSLAEEEPNS_10ExpressionET_ W
_ZN4Sass4Eval8fallbackIPNS_10Color_RGBAEEEPNS_10ExpressionET_ W
_ZN4Sass4Eval8fallbackIPNS_10DefinitionEEEPNS_10ExpressionET_ W
_ZN4Sass4Eval8fallbackIPNS_10ExtendRuleEEEPNS_10ExpressionET_ W
_ZN4Sass4Eval8fallbackIPNS_10IDSelectorEEEPNS_10ExpressionET_ W
_ZN4Sass4Eval8fallbackIPNS_10Mixin_CallEEEPNS_10ExpressionET_ W
_ZN4Sass4Eval8fallbackIPNS_10ParametersEEEPNS_10ExpressionET_ W
_ZN4Sass4Eval8fallbackIPNS_11DeclarationEEEPNS_10ExpressionET_ W
_ZN4Sass4Eval8fallbackIPNS_11Import_StubEEEPNS_10ExpressionET_ W
_ZN4Sass4Eval8fallbackIPNS_11Media_QueryEEEPNS_10ExpressionET_ W
_ZN4Sass4Eval8fallbackIPNS_11WarningRuleEEEPNS_10ExpressionET_ W
_ZN4Sass4Eval8fallbackIPNS_12CssMediaRuleEEEPNS_10ExpressionET_ W
_ZN4Sass4Eval8fallbackIPNS_12Custom_ErrorEEEPNS_10ExpressionET_ W
_ZN4Sass4Eval8fallbackIPNS_12SelectorListEEEPNS_10ExpressionET_ W
_ZN4Sass4Eval8fallbackIPNS_12SupportsRuleEEEPNS_10ExpressionET_ W
_ZN4Sass4Eval8fallbackIPNS_12TypeSelectorEEEPNS_10ExpressionET_ W
_ZN4Sass4Eval8fallbackIPNS_13At_Root_QueryEEEPNS_10ExpressionET_ W
_ZN4Sass4Eval8fallbackIPNS_13ClassSelectorEEEPNS_10ExpressionET_ W
_ZN4Sass4Eval8fallbackIPNS_13CssMediaQueryEEEPNS_10ExpressionET_ W
_ZN4Sass4Eval8fallbackIPNS_13Function_CallEEEPNS_10ExpressionET_ W
_ZN4Sass4Eval8fallbackIPNS_13Keyframe_RuleEEEPNS_10ExpressionET_ W
_ZN4Sass4Eval8fallbackIPNS_13String_QuotedEEEPNS_10ExpressionET_ W
_ZN4Sass4Eval8fallbackIPNS_13String_SchemaEEEPNS_10ExpressionET_ W
_ZN4Sass4Eval8fallbackIPNS_14Custom_WarningEEEPNS_10ExpressionET_ W
_ZN4Sass4Eval8fallbackIPNS_14PseudoSelectorEEEPNS_10ExpressionET_ W
_ZN4Sass4Eval8fallbackIPNS_15ComplexSelectorEEEPNS_10ExpressionET_ W
_ZN4Sass4Eval8fallbackIPNS_15Selector_SchemaEEEPNS_10ExpressionET_ W
_ZN4Sass4Eval8fallbackIPNS_15String_ConstantEEEPNS_10ExpressionET_ W
_ZN4Sass4Eval8fallbackIPNS_16CompoundSelectorEEEPNS_10ExpressionET_ W
_ZN4Sass4Eval8fallbackIPNS_16Parent_ReferenceEEEPNS_10ExpressionET_ W
_ZN4Sass4Eval8fallbackIPNS_16SupportsNegationEEEPNS_10ExpressionET_ W
_ZN4Sass4Eval8fallbackIPNS_16Unary_ExpressionEEEPNS_10ExpressionET_ W
_ZN4Sass4Eval8fallbackIPNS_17AttributeSelectorEEEPNS_10ExpressionET_ W
_ZN4Sass4Eval8fallbackIPNS_17Binary_ExpressionEEEPNS_10ExpressionET_ W
_ZN4Sass4Eval8fallbackIPNS_17SelectorComponentEEEPNS_10ExpressionET_ W
_ZN4Sass4Eval8fallbackIPNS_17SupportsConditionEEEPNS_10ExpressionET_ W
_ZN4Sass4Eval8fallbackIPNS_17SupportsOperationEEEPNS_10ExpressionET_ W
_ZN4Sass4Eval8fallbackIPNS_18SelectorCombinatorEEEPNS_10ExpressionET_ W
_ZN4Sass4Eval8fallbackIPNS_19PlaceholderSelectorEEEPNS_10ExpressionET_ W
_ZN4Sass4Eval8fallbackIPNS_19SupportsDeclarationEEEPNS_10ExpressionET_ W
_ZN4Sass4Eval8fallbackIPNS_22Media_Query_ExpressionEEEPNS_10ExpressionET_ W
_ZN4Sass4Eval8fallbackIPNS_22Supports_InterpolationEEEPNS_10ExpressionET_ W
_ZN4Sass4Eval8fallbackIPNS_2IfEEEPNS_10ExpressionET_ W
_ZN4Sass4Eval8fallbackIPNS_3MapEEEPNS_10ExpressionET_ W
_ZN4Sass4Eval8fallbackIPNS_4ListEEEPNS_10ExpressionET_ W
_ZN4Sass4Eval8fallbackIPNS_4NullEEEPNS_10ExpressionET_ W
_ZN4Sass4Eval8fallbackIPNS_5BlockEEEPNS_10ExpressionET_ W
_ZN4Sass4Eval8fallbackIPNS_5ColorEEEPNS_10ExpressionET_ W
_ZN4Sass4Eval8fallbackIPNS_5TraceEEEPNS_10ExpressionET_ W
_ZN4Sass4Eval8fallbackIPNS_6AtRuleEEEPNS_10ExpressionET_ W
_ZN4Sass4Eval8fallbackIPNS_6BubbleEEEPNS_10ExpressionET_ W
_ZN4Sass4Eval8fallbackIPNS_6ImportEEEPNS_10ExpressionET_ W
_ZN4Sass4Eval8fallbackIPNS_6NumberEEEPNS_10ExpressionET_ W
_ZN4Sass4Eval8fallbackIPNS_6ReturnEEEPNS_10ExpressionET_ W
_ZN4Sass4Eval8fallbackIPNS_7BooleanEEEPNS_10ExpressionET_ W
_ZN4Sass4Eval8fallbackIPNS_7CommentEEEPNS_10ExpressionET_ W
_ZN4Sass4Eval8fallbackIPNS_7ContentEEEPNS_10ExpressionET_ W
_ZN4Sass4Eval8fallbackIPNS_7ForRuleEEEPNS_10ExpressionET_ W
_ZN4Sass4Eval8fallbackIPNS_8AST_NodeEEEPNS_10ExpressionET_ W
_ZN4Sass4Eval8fallbackIPNS_8ArgumentEEEPNS_10ExpressionET_ W
_ZN4Sass4Eval8fallbackIPNS_8EachRuleEEEPNS_10ExpressionET_ W
_ZN4Sass4Eval8fallbackIPNS_8FunctionEEEPNS_10ExpressionET_ W
_ZN4Sass4Eval8fallbackIPNS_8VariableEEEPNS_10ExpressionET_ W
_ZN4Sass4Eval8fallbackIPNS_9ArgumentsEEEPNS_10ExpressionET_ W
_ZN4Sass4Eval8fallbackIPNS_9DebugRuleEEEPNS_10ExpressionET_ W
_ZN4Sass4Eval8fallbackIPNS_9ErrorRuleEEEPNS_10ExpressionET_ W
_ZN4Sass4Eval8fallbackIPNS_9MediaRuleEEEPNS_10ExpressionET_ W
_ZN4Sass4Eval8fallbackIPNS_9ParameterEEEPNS_10ExpressionET_ W
_ZN4Sass4Eval8fallbackIPNS_9StyleRuleEEEPNS_10ExpressionET_ W
_ZN4Sass4Eval8fallbackIPNS_9WhileRuleEEEPNS_10ExpressionET_ W
_ZN4Sass4Eval9env_stackEv T
_ZN4Sass4EvalC1ERNS_6ExpandE T
_ZN4Sass4EvalC2ERNS_6ExpandE T
_ZN4Sass4EvalD1Ev T
_ZN4Sass4EvalD2Ev T
_ZN4Sass4EvalclEPNS_10AssignmentE T
_ZN4Sass4EvalclEPNS_10Color_HSLAE T
_ZN4Sass4EvalclEPNS_10Color_RGBAE T
_ZN4Sass4EvalclEPNS_10IDSelectorE W
_ZN4Sass4EvalclEPNS_11Media_QueryE T
_ZN4Sass4EvalclEPNS_11WarningRuleE T
_ZN4Sass4EvalclEPNS_12SelectorListE T
_ZN4Sass4EvalclEPNS_12TypeSelectorE W
_ZN4Sass4EvalclEPNS_13At_Root_QueryE T
_ZN4Sass4EvalclEPNS_13ClassSelectorE W
_ZN4Sass4EvalclEPNS_13Function_CallE T
_ZN4Sass4EvalclEPNS_13String_QuotedE T
_ZN4Sass4EvalclEPNS_13String_SchemaE T
_ZN4Sass4EvalclEPNS_14PseudoSelectorE T
_ZN4Sass4EvalclEPNS_14SimpleSelectorE T
_ZN4Sass4EvalclEPNS_15ComplexSelectorE T
_ZN4Sass4EvalclEPNS_15Selector_SchemaE T
_ZN4Sass4EvalclEPNS_15String_ConstantE T
_ZN4Sass4EvalclEPNS_16CompoundSelectorE T
_ZN4Sass4EvalclEPNS_16Parent_ReferenceE T
_ZN4Sass4EvalclEPNS_16SupportsNegationE T
_ZN4Sass4EvalclEPNS_16Unary_ExpressionE T
_ZN4Sass4EvalclEPNS_17AttributeSelectorE W
_ZN4Sass4EvalclEPNS_17Binary_ExpressionE T
_ZN4Sass4EvalclEPNS_17SelectorComponentE T
_ZN4Sass4EvalclEPNS_17SupportsOperationE T
_ZN4Sass4EvalclEPNS_19PlaceholderSelectorE W
_ZN4Sass4EvalclEPNS_19SupportsDeclarationE T
_ZN4Sass4EvalclEPNS_22Media_Query_ExpressionE T
_ZN4Sass4EvalclEPNS_22Supports_InterpolationE T
_ZN4Sass4EvalclEPNS_2IfE T
_ZN4Sass4EvalclEPNS_3MapE T
_ZN4Sass4EvalclEPNS_4ListE T
_ZN4Sass4EvalclEPNS_4NullE T
_ZN4Sass4EvalclEPNS_5BlockE T
_ZN4Sass4EvalclEPNS_6NumberE T
_ZN4Sass4EvalclEPNS_6ReturnE T
_ZN4Sass4EvalclEPNS_7BooleanE T
_ZN4Sass4EvalclEPNS_7CommentE T
_ZN4Sass4EvalclEPNS_7ForRuleE T
_ZN4Sass4EvalclEPNS_8ArgumentE T
_ZN4Sass4EvalclEPNS_8EachRuleE T
_ZN4Sass4EvalclEPNS_8VariableE T
_ZN4Sass4EvalclEPNS_9ArgumentsE T
_ZN4Sass4EvalclEPNS_9DebugRuleE T
_ZN4Sass4EvalclEPNS_9ErrorRuleE T
_ZN4Sass4EvalclEPNS_9WhileRuleE T
_ZN4Sass4File10find_filesERKNSt7__cxx1112basic_stringIcSt11char_traitsIcESaIcEEEP13Sass_Compiler T
_ZN4Sass4File10find_filesERKNSt7__cxx1112basic_stringIcSt11char_traitsIcESaIcEEESt6vectorIS6_SaIS6_EE T
_ZN4Sass4File10join_pathsENSt7__cxx1112basic_stringIcSt11char_traitsIcESaIcEEES6_ T
_ZN4Sass4File11file_existsERKNSt7__cxx1112basic_stringIcSt11char_traitsIcESaIcEEE T
_ZN4Sass4File12find_includeERKNSt7__cxx1112basic_stringIcSt11char_traitsIcESaIcEEESt6vectorIS6_SaIS6_EE T
_ZN4Sass4File15split_path_listB5cxx11EPKc T
_ZN4Sass4File16is_absolute_pathERKNSt7__cxx1112basic_stringIcSt11char_traitsIcESaIcEEE T
_ZN4Sass4File16path_for_consoleERKNSt7__cxx1112basic_stringIcSt11char_traitsIcESaIcEEES8_S8_ T
_ZN4Sass4File16resolve_includesERKNSt7__cxx1112basic_stringIcSt11char_traitsIcESaIcEEES8_RKSt6vectorIS6_SaIS6_EE T
_ZN4Sass4File19make_canonical_pathENSt7__cxx1112basic_stringIcSt11char_traitsIcESaIcEEE T
_ZN4Sass4File26find_last_folder_separatorERKNSt7__cxx1112basic_stringIcSt11char_traitsIcESaIcEEEm W
_ZN4Sass4File7abs2relERKNSt7__cxx1112basic_stringIcSt11char_traitsIcESaIcEEES8_S8_ T
_ZN4Sass4File7get_cwdB5cxx11Ev T
_ZN4Sass4File7rel2absERKNSt7__cxx1112basic_stringIcSt11char_traitsIcESaIcEEES8_S8_ T
_ZN4Sass4File8dir_nameERKNSt7__cxx1112basic_stringIcSt11char_traitsIcESaIcEEE T
_ZN4Sass4File9base_nameERKNSt7__cxx1112basic_stringIcSt11char_traitsIcESaIcEEE T
_ZN4Sass4File9find_fileERKNSt7__cxx1112basic_stringIcSt11char_traitsIcESaIcEEESt6vectorIS6_SaIS6_EE T
_ZN4Sass4File9read_fileERKNSt7__cxx1112basic_stringIcSt11char_traitsIcESaIcEEE T
_ZN4Sass4List10is_arglistEb W
_ZN4Sass4List11set_delayedEb T
_ZN4Sass4List12is_bracketedEb W
_ZN4Sass4List13from_selectorEb W
_ZN4Sass4List14value_at_indexEm T
_ZN4Sass4List20adjust_after_pushingENS_10SharedImplINS_10ExpressionEEE W
_ZN4Sass4List7performEPNS_9OperationINSt7__cxx1112basic_stringIcSt11char_traitsIcESaIcEEEEE W
_ZN4Sass4List7performEPNS_9OperationIP10Sass_ValueEE W
_ZN4Sass4List7performEPNS_9OperationIPNS_10ExpressionEEE W
_ZN4Sass4List7performEPNS_9OperationIPNS_17SupportsConditionEEE W
_ZN4Sass4List7performEPNS_9OperationIPNS_5ValueEEE W
_ZN4Sass4List7performEPNS_9OperationIPNS_8AST_NodeEEE W
_ZN4Sass4List7performEPNS_9OperationIPNS_8SelectorEEE W
_ZN4Sass4List7performEPNS_9OperationIPNS_9StatementEEE W
_ZN4Sass4List7performEPNS_9OperationIvEE W
_ZN4Sass4List9separatorE14Sass_Separator W
_ZN4Sass4List9type_nameB5cxx11Ev W
_ZN4Sass4ListC1ENS_10SourceSpanEm14Sass_Separatorbb T
_ZN4Sass4ListC1EPKS0_ T
_ZN4Sass4ListC2ENS_10SourceSpanEm14Sass_Separatorbb T
_ZN4Sass4ListC2EPKS0_ T
_ZN4Sass4ListD0Ev W
_ZN4Sass4ListD1Ev W
_ZN4Sass4ListD2Ev W
_ZN4Sass4Null7performEPNS_9OperationINSt7__cxx1112basic_stringIcSt11char_traitsIcESaIcEEEEE W
_ZN4Sass4Null7performEPNS_9OperationIP10Sass_ValueEE W
_ZN4Sass4Null7performEPNS_9OperationIPNS_10ExpressionEEE W
_ZN4Sass4Null7performEPNS_9OperationIPNS_17SupportsConditionEEE W
_ZN4Sass4Null7performEPNS_9OperationIPNS_5ValueEEE W
_ZN4Sass4Null7performEPNS_9OperationIPNS_8AST_NodeEEE W
_ZN4Sass4Null7performEPNS_9OperationIPNS_8SelectorEEE W
_ZN4Sass4Null7performEPNS_9OperationIPNS_9StatementEEE W
_ZN4Sass4Null7performEPNS_9OperationIvEE W
_ZN4Sass4Null8is_falseEv W
_ZN4Sass4NullC1ENS_10SourceSpanE T
_ZN4Sass4NullC1EPKS0_ T
_ZN4Sass4NullC2ENS_10SourceSpanE T
_ZN4Sass4NullC2EPKS0_ T
_ZN4Sass4NullD0Ev W
_ZN4Sass4NullD1Ev W
_ZN4Sass4NullD2Ev W
_ZN4Sass4NullcvbEv W
_ZN4Sass4Util11isPrintableENS_10SharedImplINS_5BlockEEE17Sass_Output_Style T
_ZN4Sass4Util11isPrintableEPNS_11DeclarationE17Sass_Output_Style T
_ZN4Sass4Util11isPrintableEPNS_12CssMediaRuleE17Sass_Output_Style T
_ZN4Sass4Util11isPrintableEPNS_12SupportsRuleE17Sass_Output_Style T
_ZN4Sass4Util11isPrintableEPNS_13String_QuotedE17Sass_Output_Style T
_ZN4Sass4Util11isPrintableEPNS_15String_ConstantE17Sass_Output_Style T
_ZN4Sass4Util11isPrintableEPNS_7CommentE17Sass_Output_Style T
_ZN4Sass4Util11isPrintableEPNS_9StyleRuleE17Sass_Output_Style T
_ZN4Sass4Util13ascii_isalnumEh W
_ZN4Sass4Util13ascii_isalphaEh W
_ZN4Sass4Util13ascii_isasciiEh W
_ZN4Sass4Util13ascii_isdigitEh W
_ZN4Sass4Util13ascii_isspaceEh W
_ZN4Sass4Util13ascii_tolowerEh W
_ZN4Sass4Util13ascii_toupperEh W
_ZN4Sass4Util13equalsLiteralEPKcRKNSt7__cxx1112basic_stringIcSt11char_traitsIcESaIcEEE T
_ZN4Sass4Util14ascii_isxdigitEh W
_ZN4Sass4Util17ascii_str_tolowerEPNSt7__cxx1112basic_stringIcSt11char_traitsIcESaIcEEE T
_ZN4Sass4Util17ascii_str_toupperEPNSt7__cxx1112basic_stringIcSt11char_traitsIcESaIcEEE T
_ZN4Sass4Util18normalize_decimalsERKNSt7__cxx1112basic_stringIcSt11char_traitsIcESaIcEEE T
_ZN4Sass4Util18normalize_newlinesERKNSt7__cxx1112basic_stringIcSt11char_traitsIcESaIcEEE T
_ZN4Sass4Util19closing_bracket_forEc T
_ZN4Sass4Util19opening_bracket_forEc T
_ZN4Sass4Util21normalize_underscoresERKNSt7__cxx1112basic_stringIcSt11char_traitsIcESaIcEEE T
_ZN4Sass4Util5rtrimENSt7__cxx1112basic_stringIcSt11char_traitsIcESaIcEEE T
_ZN4Sass4Util8unvendorERKNSt7__cxx1112basic_stringIcSt11char_traitsIcESaIcEEE T
_ZN4Sass4bindENSt7__cxx1112basic_stringIcSt11char_traitsIcESaIcEEES5_NS_10SharedImplINS_10ParametersEEENS6_INS_9ArgumentsEEEPNS_11EnvironmentINS6_INS_8AST_NodeEEEEEPNS_4EvalERSt6vectorINS_9BacktraceESaISJ_EE T
_ZN4Sass4clipIdEET_RKS1_S3_S3_ W
_ZN4Sass4warnENSt7__cxx1112basic_stringIcSt11char_traitsIcESaIcEEENS_10SourceSpanE T
_ZN4Sass4warnENSt7__cxx1112basic_stringIcSt11char_traitsIcESaIcEEENS_10SourceSpanEPNS_9BacktraceE T
_ZN4Sass5AST2C8fallbackEPNS_8AST_NodeE W
_ZN4Sass5AST2CC1Ev W
_ZN4Sass5AST2CC2Ev W
_ZN4Sass5AST2CD1Ev W
_ZN4Sass5AST2CD2Ev W
_ZN4Sass5AST2CclEPNS_10Color_HSLAE T
_ZN4Sass5AST2CclEPNS_10Color_RGBAE T
_ZN4Sass5AST2CclEPNS_12Custom_ErrorE T
_ZN4Sass5AST2CclEPNS_13String_QuotedE T
_ZN4Sass5AST2CclEPNS_14Custom_WarningE T
_ZN4Sass5AST2CclEPNS_15String_ConstantE T
_ZN4Sass5AST2CclEPNS_3MapE T
_ZN4Sass5AST2CclEPNS_4ListE T
_ZN4Sass5AST2CclEPNS_4NullE T
_ZN4Sass5AST2CclEPNS_6NumberE T
_ZN4Sass5AST2CclEPNS_7BooleanE T
_ZN4Sass5AST2CclEPNS_8ArgumentE T
_ZN4Sass5AST2CclEPNS_9ArgumentsE T
_ZN4Sass5Block11has_contentEv T
_ZN4Sass5Block20adjust_after_pushingENS_10SharedImplINS_9StatementEEE W
_ZN4Sass5Block7is_rootEb W
_ZN4Sass5Block7performEPNS_9OperationINSt7__cxx1112basic_stringIcSt11char_traitsIcESaIcEEEEE W
_ZN4Sass5Block7performEPNS_9OperationIP10Sass_ValueEE W
_ZN4Sass5Block7performEPNS_9OperationIPNS_10ExpressionEEE W
_ZN4Sass5Block7performEPNS_9OperationIPNS_17SupportsConditionEEE W
_ZN4Sass5Block7performEPNS_9OperationIPNS_5ValueEEE W
_ZN4Sass5Block7performEPNS_9OperationIPNS_8AST_NodeEEE W
_ZN4Sass5Block7performEPNS_9OperationIPNS_8SelectorEEE W
_ZN4Sass5Block7performEPNS_9OperationIPNS_9StatementEEE W
_ZN4Sass5Block7performEPNS_9OperationIvEE W
_ZN4Sass5BlockC1ENS_10SourceSpanEmb T
_ZN4Sass5BlockC1EPKS0_ T
_ZN4Sass5BlockC2ENS_10SourceSpanEmb T
_ZN4Sass5BlockC2EPKS0_ T
_ZN4Sass5BlockD0Ev W
_ZN4Sass5BlockD1Ev W
_ZN4Sass5BlockD2Ev W
_ZN4Sass5Color1aEd W
_ZN4Sass5Color4dispENSt7__cxx1112basic_stringIcSt11char_traitsIcESaIcEEE W
_ZN4Sass5Color9type_nameB5cxx11Ev W
_ZN4Sass5ColorC1ENS_10SourceSpanEdNSt7__cxx1112basic_stringIcSt11char_traitsIcESaIcEEE T
_ZN4Sass5ColorC1EPKS0_ T
_ZN4Sass5ColorC2ENS_10SourceSpanEdNSt7__cxx1112basic_stringIcSt11char_traitsIcESaIcEEE T
_ZN4Sass5ColorC2EPKS0_ T
_ZN4Sass5ColorD0Ev W
_ZN4Sass5ColorD1Ev W
_ZN4Sass5ColorD2Ev W
_ZN4Sass5TokenC1EPKc W
_ZN4Sass5TokenC1EPKcS2_ W
_ZN4Sass5TokenC1EPKcS2_S2_ W
_ZN4Sass5TokenC1Ev W
_ZN4Sass5TokenC2EPKc W
_ZN4Sass5TokenC2EPKcS2_ W
_ZN4Sass5TokenC2EPKcS2_S2_ W
_ZN4Sass5TokenC2Ev W
_ZN4Sass5TokencvNSt7__cxx1112basic_stringIcSt11char_traitsIcESaIcEEEEv W
_ZN4Sass5Trace7performEPNS_9OperationINSt7__cxx1112basic_stringIcSt11char_traitsIcESaIcEEEEE W
_ZN4Sass5Trace7performEPNS_9OperationIP10Sass_ValueEE W
_ZN4Sass5Trace7performEPNS_9OperationIPNS_10ExpressionEEE W
_ZN4Sass5Trace7performEPNS_9OperationIPNS_17SupportsConditionEEE W
_ZN4Sass5Trace7performEPNS_9OperationIPNS_5ValueEEE W
_ZN4Sass5Trace7performEPNS_9OperationIPNS_8AST_NodeEEE W
_ZN4Sass5Trace7performEPNS_9OperationIPNS_8SelectorEEE W
_ZN4Sass5Trace7performEPNS_9OperationIPNS_9StatementEEE W
_ZN4Sass5Trace7performEPNS_9OperationIvEE W
_ZN4Sass5TraceC1ENS_10SourceSpanENSt7__cxx1112basic_stringIcSt11char_traitsIcESaIcEEENS_10SharedImplINS_5BlockEEEc T
_ZN4Sass5TraceC1EPKS0_ T
_ZN4Sass5TraceC2ENS_10SourceSpanENSt7__cxx1112basic_stringIcSt11char_traitsIcESaIcEEENS_10SharedImplINS_5BlockEEEc T
_ZN4Sass5TraceC2EPKS0_ T
_ZN4Sass5TraceD0Ev W
_ZN4Sass5TraceD1Ev W
_ZN4Sass5TraceD2Ev W
_ZN4Sass5UTF_815normalize_indexEim T
_ZN4Sass5UTF_816code_point_countERKNSt7__cxx1112basic_stringIcSt11char_traitsIcESaIcEEE T
_ZN4Sass5UTF_816code_point_countERKNSt7__cxx1112basic_stringIcSt11char_traitsIcESaIcEEEmm T
_ZN4Sass5UTF_818offset_at_positionERKNSt7__cxx1112basic_stringIcSt11char_traitsIcESaIcEEEm T
_ZN4Sass5UTF_825code_point_size_at_offsetERKNSt7__cxx1112basic_stringIcSt11char_traitsIcESaIcEEEm T
_ZN4Sass5Units6reduceEv T
_ZN4Sass5Units9normalizeEv T
_ZN4Sass5UnitsC1EPKS0_ W
_ZN4Sass5UnitsC1ERKS0_ W
_ZN4Sass5UnitsC1Ev W
_ZN4Sass5UnitsC2EPKS0_ W
_ZN4Sass5UnitsC2ERKS0_ W
_ZN4Sass5UnitsC2Ev W
_ZN4Sass5UnitsD1Ev W
_ZN4Sass5UnitsD2Ev W
_ZN4Sass5ValueC1ENS_10SourceSpanEbbbNS_10Expression4TypeE T
_ZN4Sass5ValueC1EPKS0_ T
_ZN4Sass5ValueC1ERKS0_ W
_ZN4Sass5ValueC2ENS_10SourceSpanEbbbNS_10Expression4TypeE T
_ZN4Sass5ValueC2EPKS0_ T
_ZN4Sass5ValueC2ERKS0_ W
_ZN4Sass5ValueD0Ev W
_ZN4Sass5ValueD1Ev W
_ZN4Sass5ValueD2Ev W
_ZN4Sass5c2astEP10Sass_ValueSt6vectorINS_9BacktraceESaIS3_EENS_10SourceSpanE T
_ZN4Sass5errorENSt7__cxx1112basic_stringIcSt11char_traitsIcESaIcEEENS_10SourceSpanERSt6vectorINS_9BacktraceESaIS8_EE T
_ZN4Sass5errorEPNS_8AST_NodeESt6vectorINS_9BacktraceESaIS3_EENSt7__cxx1112basic_stringIcSt11char_traitsIcESaIcEEE T
_ZN4Sass5flushERNSt7__cxx1112basic_stringIcSt11char_traitsIcESaIcEEERNS_9converterE T
_ZN4Sass5quoteERKNSt7__cxx1112basic_stringIcSt11char_traitsIcESaIcEEEc T
_ZN4Sass5roundEdm T
_ZN4Sass5rtrimERKNSt7__cxx1112basic_stringIcSt11char_traitsIcESaIcEEE T
_ZN4Sass5weaveERKSt6vectorIS0_INS_10SharedImplINS_17SelectorComponentEEESaIS3_EESaIS5_EE T
_ZN4Sass6AtRule12is_keyframesEv T
_ZN4Sass6AtRule5valueENS_10SharedImplINS_10ExpressionEEE W
_ZN4Sass6AtRule7bubblesEv T
_ZN4Sass6AtRule7performEPNS_9OperationINSt7__cxx1112basic_stringIcSt11char_traitsIcESaIcEEEEE W
_ZN4Sass6AtRule7performEPNS_9OperationIP10Sass_ValueEE W
_ZN4Sass6AtRule7performEPNS_9OperationIPNS_10ExpressionEEE W
_ZN4Sass6AtRule7performEPNS_9OperationIPNS_17SupportsConditionEEE W
_ZN4Sass6AtRule7performEPNS_9OperationIPNS_5ValueEEE W
_ZN4Sass6AtRule7performEPNS_9OperationIPNS_8AST_NodeEEE W
_ZN4Sass6AtRule7performEPNS_9OperationIPNS_8SelectorEEE W
_ZN4Sass6AtRule7performEPNS_9OperationIPNS_9StatementEEE W
_ZN4Sass6AtRule7performEPNS_9OperationIvEE W
_ZN4Sass6AtRule8is_mediaEv T
_ZN4Sass6AtRuleC1ENS_10SourceSpanENSt7__cxx1112basic_stringIcSt11char_traitsIcESaIcEEENS_10SharedImplINS_12SelectorListEEENS8_INS_5BlockEEENS8_INS_10ExpressionEEE T
_ZN4Sass6AtRuleC1EPKS0_ T
_ZN4Sass6AtRuleC2ENS_10SourceSpanENSt7__cxx1112basic_stringIcSt11char_traitsIcESaIcEEENS_10SharedImplINS_12SelectorListEEENS8_INS_5BlockEEENS8_INS_10ExpressionEEE T
_ZN4Sass6AtRuleC2EPKS0_ T
_ZN4Sass6AtRuleD0Ev W
_ZN4Sass6AtRuleD1Ev W
_ZN4Sass6AtRuleD2Ev W
_ZN4Sass6Bubble7bubblesEv T
_ZN4Sass6Bubble7performEPNS_9OperationINSt7__cxx1112basic_stringIcSt11char_traitsIcESaIcEEEEE W
_ZN4Sass6Bubble7performEPNS_9OperationIP10Sass_ValueEE W
_ZN4Sass6Bubble7performEPNS_9OperationIPNS_10ExpressionEEE W
_ZN4Sass6Bubble7performEPNS_9OperationIPNS_17SupportsConditionEEE W
_ZN4Sass6Bubble7performEPNS_9OperationIPNS_5ValueEEE W
_ZN4Sass6Bubble7performEPNS_9OperationIPNS_8AST_NodeEEE W
_ZN4Sass6Bubble7performEPNS_9OperationIPNS_8SelectorEEE W
_ZN4Sass6Bubble7performEPNS_9OperationIPNS_9StatementEEE W
_ZN4Sass6Bubble7performEPNS_9OperationIvEE W
_ZN4Sass6BubbleC1ENS_10SourceSpanENS_10SharedImplINS_9StatementEEES4_m T
_ZN4Sass6BubbleC1EPKS0_ T
_ZN4Sass6BubbleC2ENS_10SourceSpanENS_10SharedImplINS_9StatementEEES4_m T
_ZN4Sass6BubbleC2EPKS0_ T
_ZN4Sass6BubbleD0Ev W
_ZN4Sass6BubbleD1Ev W
_ZN4Sass6BubbleD2Ev W
_ZN4Sass6Colors10aquamarineE B 90
_ZN4Sass6Colors10bluevioletE B 90
_ZN4Sass6Colors10chartreuseE B 90
_ZN4Sass6Colors10darkorangeE B 90
_ZN4Sass6Colors10darkorchidE B 90
_ZN4Sass6Colors10darksalmonE B 90
_ZN4Sass6Colors10darkvioletE B 90
_ZN4Sass6Colors10dodgerblueE B 90
_ZN4Sass6Colors10ghostwhiteE B 90
_ZN4Sass6Colors10lightcoralE B 90
_ZN4Sass6Colors10lightgreenE B 90
_ZN4Sass6Colors10mediumblueE B 90
_ZN4Sass6Colors10papayawhipE B 90
_ZN4Sass6Colors10powderblueE B 90
_ZN4Sass6Colors10sandybrownE B 90
_ZN4Sass6Colors10whitesmokeE B 90
_ZN4Sass6Colors11darkmagentaE B 90
_ZN4Sass6Colors11deepskyblueE B 90
_ZN4Sass6Colors11floralwhiteE B 90
_ZN4Sass6Colors11forestgreenE B 90
_ZN4Sass6Colors11greenyellowE B 90
_ZN4Sass6Colors11lightsalmonE B 90
_ZN4Sass6Colors11lightyellowE B 90
_ZN4Sass6Colors11navajowhiteE B 90
_ZN4Sass6Colors11saddlebrownE B 90
_ZN4Sass6Colors11springgreenE B 90
_ZN4Sass6Colors11transparentE B 90
_ZN4Sass6Colors11yellowgreenE B 90
_ZN4Sass6Colors12antiquewhiteE B 90
_ZN4Sass6Colors12darkseagreenE B 90
_ZN4Sass6Colors12lemonchiffonE B 90
_ZN4Sass6Colors12lightskyblueE B 90
_ZN4Sass6Colors12mediumorchidE B 90
_ZN4Sass6Colors12mediumpurpleE B 90
_ZN4Sass6Colors12midnightblueE B 90
_ZN4Sass6Colors13darkgoldenrodE B 90
_ZN4Sass6Colors13darkslateblueE B 90
_ZN4Sass6Colors13darkslategrayE B 90
_ZN4Sass6Colors13darkslategreyE B 90
_ZN4Sass6Colors13darkturquoiseE B 90
_ZN4Sass6Colors13lavenderblushE B 90
_ZN4Sass6Colors13lightseagreenE B 90
_ZN4Sass6Colors13palegoldenrodE B 90
_ZN4Sass6Colors13paleturquoiseE B 90
_ZN4Sass6Colors13palevioletredE B 90
_ZN4Sass6Colors13rebeccapurpleE B 90
_ZN4Sass6Colors14blanchedalmondE B 90
_ZN4Sass6Colors14cornflowerblueE B 90
_ZN4Sass6Colors14darkolivegreenE B 90
_ZN4Sass6Colors14lightslategrayE B 90
_ZN4Sass6Colors14lightslategreyE B 90
_ZN4Sass6Colors14lightsteelblueE B 90
_ZN4Sass6Colors14mediumseagreenE B 90
_ZN4Sass6Colors15mediumslateblueE B 90
_ZN4Sass6Colors15mediumturquoiseE B 90
_ZN4Sass6Colors15mediumvioletredE B 90
_ZN4Sass6Colors16mediumaquamarineE B 90
_ZN4Sass6Colors17mediumspringgreenE B 90
_ZN4Sass6Colors20lightgoldenrodyellowE B 90
_ZN4Sass6Colors3redE B 90
_ZN4Sass6Colors3tanE B 90
_ZN4Sass6Colors4aquaE B 90
_ZN4Sass6Colors4blueE B 90
_ZN4Sass6Colors4cyanE B 90
_ZN4Sass6Colors4goldE B 90
_ZN4Sass6Colors4grayE B 90
_ZN4Sass6Colors4greyE B 90
_ZN4Sass6Colors4limeE B 90
_ZN4Sass6Colors4navyE B 90
_ZN4Sass6Colors4peruE B 90
_ZN4Sass6Colors4pinkE B 90
_ZN4Sass6Colors4plumE B 90
_ZN4Sass6Colors4snowE B 90
_ZN4Sass6Colors4tealE B 90
_ZN4Sass6Colors5azureE B 90
_ZN4Sass6Colors5beigeE B 90
_ZN4Sass6Colors5blackE B 90
_ZN4Sass6Colors5brownE B 90
_ZN4Sass6Colors5coralE B 90
_ZN4Sass6Colors5greenE B 90
_ZN4Sass6Colors5ivoryE B 90
_ZN4Sass6Colors5khakiE B 90
_ZN4Sass6Colors5linenE B 90
_ZN4Sass6Colors5oliveE B 90
_ZN4Sass6Colors5wheatE B 90
_ZN4Sass6Colors5whiteE B 90
_ZN4Sass6Colors6bisqueE B 90
_ZN4Sass6Colors6indigoE B 90
_ZN4Sass6Colors6maroonE B 90
_ZN4Sass6Colors6orangeE B 90
_ZN4Sass6Colors6orchidE B 90
_ZN4Sass6Colors6purpleE B 90
_ZN4Sass6Colors6salmonE B 90
_ZN4Sass6Colors6siennaE B 90
_ZN4Sass6Colors6silverE B 90
_ZN4Sass6Colors6tomatoE B 90
_ZN4Sass6Colors6violetE B 90
_ZN4Sass6Colors6yellowE B 90
_ZN4Sass6Colors7crimsonE B 90
_ZN4Sass6Colors7darkredE B 90
_ZN4Sass6Colors7dimgrayE B 90
_ZN4Sass6Colors7dimgreyE B 90
_ZN4Sass6Colors7fuchsiaE B 90
_ZN4Sass6Colors7hotpinkE B 90
_ZN4Sass6Colors7magentaE B 90
_ZN4Sass6Colors7oldlaceE B 90
_ZN4Sass6Colors7skyblueE B 90
_ZN4Sass6Colors7thistleE B 90
_ZN4Sass6Colors8cornsilkE B 90
_ZN4Sass6Colors8darkblueE B 90
_ZN4Sass6Colors8darkcyanE B 90
_ZN4Sass6Colors8darkgrayE B 90
_ZN4Sass6Colors8darkgreyE B 90
_ZN4Sass6Colors8deeppinkE B 90
_ZN4Sass6Colors8honeydewE B 90
_ZN4Sass6Colors8lavenderE B 90
_ZN4Sass6Colors8moccasinE B 90
_ZN4Sass6Colors8seagreenE B 90
_ZN4Sass6Colors8seashellE B 90
_ZN4Sass6Colors9aliceblueE B 90
_ZN4Sass6Colors9burlywoodE B 90
_ZN4Sass6Colors9cadetblueE B 90
_ZN4Sass6Colors9chocolateE B 90
_ZN4Sass6Colors9darkgreenE B 90
_ZN4Sass6Colors9darkkhakiE B 90
_ZN4Sass6Colors9firebrickE B 90
_ZN4Sass6Colors9gainsboroE B 90
_ZN4Sass6Colors9goldenrodE B 90
_ZN4Sass6Colors9indianredE B 90
_ZN4Sass6Colors9lawngreenE B 90
_ZN4Sass6Colors9lightblueE B 90
_ZN4Sass6Colors9lightcyanE B 90
_ZN4Sass6Colors9lightgrayE B 90
_ZN4Sass6Colors9lightgreyE B 90
_ZN4Sass6Colors9lightpinkE B 90
_ZN4Sass6Colors9limegreenE B 90
_ZN4Sass6Colors9mintcreamE B 90
_ZN4Sass6Colors9mistyroseE B 90
_ZN4Sass6Colors9olivedrabE B 90
_ZN4Sass6Colors9orangeredE B 90
_ZN4Sass6Colors9palegreenE B 90
_ZN4Sass6Colors9peachpuffE B 90
_ZN4Sass6Colors9rosybrownE B 90
_ZN4Sass6Colors9royalblueE B 90
_ZN4Sass6Colors9slateblueE B 90
_ZN4Sass6Colors9slategrayE B 90
_ZN4Sass6Colors9slategreyE B 90
_ZN4Sass6Colors9steelblueE B 90
_ZN4Sass6Colors9turquoiseE B 90
_ZN4Sass6Cssize12append_blockEPNS_5BlockES2_ T
_ZN4Sass6Cssize15slice_by_bubbleEPNS_5BlockE T
_ZN4Sass6Cssize6bubbleEPNS_10AtRootRuleE T
_ZN4Sass6Cssize6bubbleEPNS_12CssMediaRuleE T
_ZN4Sass6Cssize6bubbleEPNS_12SupportsRuleE T
_ZN4Sass6Cssize6bubbleEPNS_6AtRuleE T
_ZN4Sass6Cssize6parentEv T
_ZN4Sass6Cssize7flattenEPKNS_5BlockE T
_ZN4Sass6Cssize8debubbleEPNS_5BlockEPNS_9StatementE T
_ZN4Sass6Cssize8fallbackIPNS_10AssignmentEEEPNS_9StatementET_ W
_ZN4Sass6Cssize8fallbackIPNS_10AtRootRuleEEEPNS_9StatementET_ W
_ZN4Sass6Cssize8fallbackIPNS_10Color_HSLAEEEPNS_9StatementET_ W
_ZN4Sass6Cssize8fallbackIPNS_10Color_RGBAEEEPNS_9StatementET_ W
_ZN4Sass6Cssize8fallbackIPNS_10DefinitionEEEPNS_9StatementET_ W
_ZN4Sass6Cssize8fallbackIPNS_10ExtendRuleEEEPNS_9StatementET_ W
_ZN4Sass6Cssize8fallbackIPNS_10IDSelectorEEEPNS_9StatementET_ W
_ZN4Sass6Cssize8fallbackIPNS_10Mixin_CallEEEPNS_9StatementET_ W
_ZN4Sass6Cssize8fallbackIPNS_10ParametersEEEPNS_9StatementET_ W
_ZN4Sass6Cssize8fallbackIPNS_11DeclarationEEEPNS_9StatementET_ W
_ZN4Sass6Cssize8fallbackIPNS_11Import_StubEEEPNS_9StatementET_ W
_ZN4Sass6Cssize8fallbackIPNS_11Media_QueryEEEPNS_9StatementET_ W
_ZN4Sass6Cssize8fallbackIPNS_11WarningRuleEEEPNS_9StatementET_ W
_ZN4Sass6Cssize8fallbackIPNS_12CssMediaRuleEEEPNS_9StatementET_ W
_ZN4Sass6Cssize8fallbackIPNS_12Custom_ErrorEEEPNS_9StatementET_ W
_ZN4Sass6Cssize8fallbackIPNS_12SelectorListEEEPNS_9StatementET_ W
_ZN4Sass6Cssize8fallbackIPNS_12SupportsRuleEEEPNS_9StatementET_ W
_ZN4Sass6Cssize8fallbackIPNS_12TypeSelectorEEEPNS_9StatementET_ W
_ZN4Sass6Cssize8fallbackIPNS_13At_Root_QueryEEEPNS_9StatementET_ W
_ZN4Sass6Cssize8fallbackIPNS_13ClassSelectorEEEPNS_9StatementET_ W
_ZN4Sass6Cssize8fallbackIPNS_13CssMediaQueryEEEPNS_9StatementET_ W
_ZN4Sass6Cssize8fallbackIPNS_13Function_CallEEEPNS_9StatementET_ W
_ZN4Sass6Cssize8fallbackIPNS_13Keyframe_RuleEEEPNS_9StatementET_ W
_ZN4Sass6Cssize8fallbackIPNS_13String_QuotedEEEPNS_9StatementET_ W
_ZN4Sass6Cssize8fallbackIPNS_13String_SchemaEEEPNS_9StatementET_ W
_ZN4Sass6Cssize8fallbackIPNS_14Custom_WarningEEEPNS_9StatementET_ W
_ZN4Sass6Cssize8fallbackIPNS_14PseudoSelectorEEEPNS_9StatementET_ W
_ZN4Sass6Cssize8fallbackIPNS_15ComplexSelectorEEEPNS_9StatementET_ W
_ZN4Sass6Cssize8fallbackIPNS_15Selector_SchemaEEEPNS_9StatementET_ W
_ZN4Sass6Cssize8fallbackIPNS_15String_ConstantEEEPNS_9StatementET_ W
_ZN4Sass6Cssize8fallbackIPNS_16CompoundSelectorEEEPNS_9StatementET_ W
_ZN4Sass6Cssize8fallbackIPNS_16Parent_ReferenceEEEPNS_9StatementET_ W
_ZN4Sass6Cssize8fallbackIPNS_16SupportsNegationEEEPNS_9StatementET_ W
_ZN4Sass6Cssize8fallbackIPNS_16Unary_ExpressionEEEPNS_9StatementET_ W
_ZN4Sass6Cssize8fallbackIPNS_17AttributeSelectorEEEPNS_9StatementET_ W
_ZN4Sass6Cssize8fallbackIPNS_17Binary_ExpressionEEEPNS_9StatementET_ W
_ZN4Sass6Cssize8fallbackIPNS_17SelectorComponentEEEPNS_9StatementET_ W
_ZN4Sass6Cssize8fallbackIPNS_17SupportsConditionEEEPNS_9StatementET_ W
_ZN4Sass6Cssize8fallbackIPNS_17SupportsOperationEEEPNS_9StatementET_ W
_ZN4Sass6Cssize8fallbackIPNS_18SelectorCombinatorEEEPNS_9StatementET_ W
_ZN4Sass6Cssize8fallbackIPNS_19PlaceholderSelectorEEEPNS_9StatementET_ W
_ZN4Sass6Cssize8fallbackIPNS_19SupportsDeclarationEEEPNS_9StatementET_ W
_ZN4Sass6Cssize8fallbackIPNS_22Media_Query_ExpressionEEEPNS_9StatementET_ W
_ZN4Sass6Cssize8fallbackIPNS_22Supports_InterpolationEEEPNS_9StatementET_ W
_ZN4Sass6Cssize8fallbackIPNS_2IfEEEPNS_9StatementET_ W
_ZN4Sass6Cssize8fallbackIPNS_3MapEEEPNS_9StatementET_ W
_ZN4Sass6Cssize8fallbackIPNS_4ListEEEPNS_9StatementET_ W
_ZN4Sass6Cssize8fallbackIPNS_4NullEEEPNS_9StatementET_ W
_ZN4Sass6Cssize8fallbackIPNS_5BlockEEEPNS_9StatementET_ W
_ZN4Sass6Cssize8fallbackIPNS_5ColorEEEPNS_9StatementET_ W
_ZN4Sass6Cssize8fallbackIPNS_5TraceEEEPNS_9StatementET_ W
_ZN4Sass6Cssize8fallbackIPNS_6AtRuleEEEPNS_9StatementET_ W
_ZN4Sass6Cssize8fallbackIPNS_6BubbleEEEPNS_9StatementET_ W
_ZN4Sass6Cssize8fallbackIPNS_6ImportEEEPNS_9StatementET_ W
_ZN4Sass6Cssize8fallbackIPNS_6NumberEEEPNS_9StatementET_ W
_ZN4Sass6Cssize8fallbackIPNS_6ReturnEEEPNS_9StatementET_ W
_ZN4Sass6Cssize8fallbackIPNS_7BooleanEEEPNS_9StatementET_ W
_ZN4Sass6Cssize8fallbackIPNS_7CommentEEEPNS_9StatementET_ W
_ZN4Sass6Cssize8fallbackIPNS_7ContentEEEPNS_9StatementET_ W
_ZN4Sass6Cssize8fallbackIPNS_7ForRuleEEEPNS_9StatementET_ W
_ZN4Sass6Cssize8fallbackIPNS_8AST_NodeEEEPNS_9StatementET_ W
_ZN4Sass6Cssize8fallbackIPNS_8ArgumentEEEPNS_9StatementET_ W
_ZN4Sass6Cssize8fallbackIPNS_8EachRuleEEEPNS_9StatementET_ W
_ZN4Sass6Cssize8fallbackIPNS_8FunctionEEEPNS_9StatementET_ W
_ZN4Sass6Cssize8fallbackIPNS_8VariableEEEPNS_9StatementET_ W
_ZN4Sass6Cssize8fallbackIPNS_9ArgumentsEEEPNS_9StatementET_ W
_ZN4Sass6Cssize8fallbackIPNS_9DebugRuleEEEPNS_9StatementET_ W
_ZN4Sass6Cssize8fallbackIPNS_9ErrorRuleEEEPNS_9StatementET_ W
_ZN4Sass6Cssize8fallbackIPNS_9MediaRuleEEEPNS_9StatementET_ W
_ZN4Sass6Cssize8fallbackIPNS_9ParameterEEEPNS_9StatementET_ W
_ZN4Sass6Cssize8fallbackIPNS_9StyleRuleEEEPNS_9StatementET_ W
_ZN4Sass6Cssize8fallbackIPNS_9WhileRuleEEEPNS_9StatementET_ W
_ZN4Sass6Cssize9bubblableEPNS_9StatementE T
_ZN4Sass6CssizeC1ERNS_7ContextE T
_ZN4Sass6CssizeC2ERNS_7ContextE T
_ZN4Sass6CssizeD1Ev W
_ZN4Sass6CssizeD2Ev W
_ZN4Sass6CssizeclEPNS_10AtRootRuleE T
_ZN4Sass6CssizeclEPNS_11DeclarationE T
_ZN4Sass6CssizeclEPNS_12CssMediaRuleE T
_ZN4Sass6CssizeclEPNS_12SupportsRuleE T
_ZN4Sass6CssizeclEPNS_13Keyframe_RuleE T
_ZN4Sass6CssizeclEPNS_4NullE T
_ZN4Sass6CssizeclEPNS_5BlockE T
_ZN4Sass6CssizeclEPNS_5TraceE T
_ZN4Sass6CssizeclEPNS_6AtRuleE T
_ZN4Sass6CssizeclEPNS_9StyleRuleE T
_ZN4Sass6Expand11environmentEv T
_ZN4Sass6Expand12append_blockEPNS_5BlockE W
_ZN4Sass6Expand15popNullSelectorEv T
_ZN4Sass6Expand16getOriginalStackEv T
_ZN4Sass6Expand16getSelectorStackEv T
_ZN4Sass6Expand16pushNullSelectorEv T
_ZN4Sass6Expand17mergeMediaQueriesERKSt6vectorINS_10SharedImplINS_13CssMediaQueryEEESaIS4_EES8_ T
_ZN4Sass6Expand19pushToOriginalStackENS_10SharedImplINS_12SelectorListEEE T
_ZN4Sass6Expand19pushToSelectorStackENS_10SharedImplINS_12SelectorListEEE T
_ZN4Sass6Expand20popFromOriginalStackEv T
_ZN4Sass6Expand20popFromSelectorStackEv T
_ZN4Sass6Expand8originalEv T
_ZN4Sass6Expand8selectorEv T
_ZN4Sass6ExpandC1ERNS_7ContextEPNS_11EnvironmentINS_10SharedImplINS_8AST_NodeEEEEEPSt6vectorINS4_INS_12SelectorListEEESaISB_EESE_ T
_ZN4Sass6ExpandC2ERNS_7ContextEPNS_11EnvironmentINS_10SharedImplINS_8AST_NodeEEEEEPSt6vectorINS4_INS_12SelectorListEEESaISB_EESE_ T
_ZN4Sass6ExpandD1Ev W
_ZN4Sass6ExpandD2Ev W
_ZN4Sass6ExpandclEPNS_10AssignmentE T
_ZN4Sass6ExpandclEPNS_10AtRootRuleE T
_ZN4Sass6ExpandclEPNS_10DefinitionE T
_ZN4Sass6ExpandclEPNS_10ExtendRuleE T
_ZN4Sass6ExpandclEPNS_10Mixin_CallE T
_ZN4Sass6ExpandclEPNS_11DeclarationE T
_ZN4Sass6ExpandclEPNS_11Import_StubE T
_ZN4Sass6ExpandclEPNS_11WarningRuleE T
_ZN4Sass6ExpandclEPNS_12SupportsRuleE T
_ZN4Sass6ExpandclEPNS_2IfE T
_ZN4Sass6ExpandclEPNS_5BlockE T
_ZN4Sass6ExpandclEPNS_6AtRuleE T
_ZN4Sass6ExpandclEPNS_6ImportE T
_ZN4Sass6ExpandclEPNS_6ReturnE T
_ZN4Sass6ExpandclEPNS_7CommentE T
_ZN4Sass6ExpandclEPNS_7ContentE T
_ZN4Sass6ExpandclEPNS_7ForRuleE T
_ZN4Sass6ExpandclEPNS_8EachRuleE T
_ZN4Sass6ExpandclEPNS_9DebugRuleE T
_ZN4Sass6ExpandclEPNS_9ErrorRuleE T
_ZN4Sass6ExpandclEPNS_9MediaRuleE T
_ZN4Sass6ExpandclEPNS_9StyleRuleE T
_ZN4Sass6ExpandclEPNS_9WhileRuleE T
_ZN4Sass6HashedINS_10SharedImplINS_10ExpressionEEES3_NS1_INS_3MapEEEE10reset_hashEv W
_ZN4Sass6HashedINS_10SharedImplINS_10ExpressionEEES3_NS1_INS_3MapEEEE19reset_duplicate_keyEv W
_ZN4Sass6HashedINS_10SharedImplINS_10ExpressionEEES3_NS1_INS_3MapEEEE20adjust_after_pushingESt4pairIS3_S3_E W
_ZN4Sass6HashedINS_10SharedImplINS_10ExpressionEEES3_NS1_INS_3MapEEEEC1ERKS6_ W
_ZN4Sass6HashedINS_10SharedImplINS_10ExpressionEEES3_NS1_INS_3MapEEEEC1Em W
_ZN4Sass6HashedINS_10SharedImplINS_10ExpressionEEES3_NS1_INS_3MapEEEEC2ERKS6_ W
_ZN4Sass6HashedINS_10SharedImplINS_10ExpressionEEES3_NS1_INS_3MapEEEEC2Em W
_ZN4Sass6HashedINS_10SharedImplINS_10ExpressionEEES3_NS1_INS_3MapEEEED0Ev W
_ZN4Sass6HashedINS_10SharedImplINS_10ExpressionEEES3_NS1_INS_3MapEEEED1Ev W
_ZN4Sass6HashedINS_10SharedImplINS_10ExpressionEEES3_NS1_INS_3MapEEEED2Ev W
_ZN4Sass6HashedINS_10SharedImplINS_10ExpressionEEES3_NS1_INS_3MapEEEElsESt4pairIS3_S3_E W
_ZN4Sass6HashedINS_10SharedImplINS_10ExpressionEEES3_NS1_INS_3MapEEEEpLEPS6_ W
_ZN4Sass6Import14import_queriesENS_10SharedImplINS_4ListEEE W
_ZN4Sass6Import4incsEv T
_ZN4Sass6Import4urlsEv T
_ZN4Sass6Import7performEPNS_9OperationINSt7__cxx1112basic_stringIcSt11char_traitsIcESaIcEEEEE W
_ZN4Sass6Import7performEPNS_9OperationIP10Sass_ValueEE W
_ZN4Sass6Import7performEPNS_9OperationIPNS_10ExpressionEEE W
_ZN4Sass6Import7performEPNS_9OperationIPNS_17SupportsConditionEEE W
_ZN4Sass6Import7performEPNS_9OperationIPNS_5ValueEEE W
_ZN4Sass6Import7performEPNS_9OperationIPNS_8AST_NodeEEE W
_ZN4Sass6Import7performEPNS_9OperationIPNS_8SelectorEEE W
_ZN4Sass6Import7performEPNS_9OperationIPNS_9StatementEEE W
_ZN4Sass6Import7performEPNS_9OperationIvEE W
_ZN4Sass6ImportC1ENS_10SourceSpanE T
_ZN4Sass6ImportC1EPKS0_ T
_ZN4Sass6ImportC2ENS_10SourceSpanE T
_ZN4Sass6ImportC2EPKS0_ T
_ZN4Sass6ImportD0Ev W
_ZN4Sass6ImportD1Ev W
_ZN4Sass6ImportD2Ev W
_ZN4Sass6Number4zeroEb W
_ZN4Sass6Number4zeroEv W
_ZN4Sass6Number5valueEd W
_ZN4Sass6Number6reduceEv T
_ZN4Sass6Number7performEPNS_9OperationINSt7__cxx1112basic_stringIcSt11char_traitsIcESaIcEEEEE W
_ZN4Sass6Number7performEPNS_9OperationIP10Sass_ValueEE W
_ZN4Sass6Number7performEPNS_9OperationIPNS_10ExpressionEEE W
_ZN4Sass6Number7performEPNS_9OperationIPNS_17SupportsConditionEEE W
_ZN4Sass6Number7performEPNS_9OperationIPNS_5ValueEEE W
_ZN4Sass6Number7performEPNS_9OperationIPNS_8AST_NodeEEE W
_ZN4Sass6Number7performEPNS_9OperationIPNS_8SelectorEEE W
_ZN4Sass6Number7performEPNS_9OperationIPNS_9StatementEEE W
_ZN4Sass6Number7performEPNS_9OperationIvEE W
_ZN4Sass6Number9normalizeEv T
_ZN4Sass6Number9type_nameB5cxx11Ev W
_ZN4Sass6NumberC1ENS_10SourceSpanEdNSt7__cxx1112basic_stringIcSt11char_traitsIcESaIcEEEb T
_ZN4Sass6NumberC1EPKS0_ T
_ZN4Sass6NumberC1ERKS0_ W
_ZN4Sass6NumberC2ENS_10SourceSpanEdNSt7__cxx1112basic_stringIcSt11char_traitsIcESaIcEEEb T
_ZN4Sass6NumberC2EPKS0_ T
_ZN4Sass6NumberC2ERKS0_ W
_ZN4Sass6NumberD0Ev W
_ZN4Sass6NumberD1Ev W
_ZN4Sass6NumberD2Ev W
_ZN4Sass6Offset3addEPKcS2_ T
_ZN4Sass6Offset4initEPKcS2_ T
_ZN4Sass6OffsetC1EPKc T
_ZN4Sass6OffsetC1ERKNSt7__cxx1112basic_stringIcSt11char_traitsIcESaIcEEE T
_ZN4Sass6OffsetC1Ec T
_ZN4Sass6OffsetC1Emm T
_ZN4Sass6OffsetC2EPKc T
_ZN4Sass6OffsetC2ERKNSt7__cxx1112basic_stringIcSt11char_traitsIcESaIcEEE T
_ZN4Sass6OffsetC2Ec T
_ZN4Sass6OffsetC2Emm T
_ZN4Sass6OffsetpLERKS0_ T
_ZN4Sass6Output10get_bufferEv T
_ZN4Sass6Output13fallback_implEPNS_8AST_NodeE T
_ZN4Sass6OutputC1ER19Sass_Output_Options T
_ZN4Sass6OutputC2ER19Sass_Output_Options T
_ZN4Sass6OutputD0Ev T
_ZN4Sass6OutputD1Ev T
_ZN4Sass6OutputD2Ev T
_ZN4Sass6OutputclEPNS_12CssMediaRuleE T
_ZN4Sass6OutputclEPNS_12SupportsRuleE T
_ZN4Sass6OutputclEPNS_13Keyframe_RuleE T
_ZN4Sass6OutputclEPNS_13String_QuotedE T
_ZN4Sass6OutputclEPNS_15String_ConstantE T
_ZN4Sass6OutputclEPNS_3MapE T
_ZN4Sass6OutputclEPNS_6AtRuleE T
_ZN4Sass6OutputclEPNS_6ImportE T
_ZN4Sass6OutputclEPNS_6NumberE T
_ZN4Sass6OutputclEPNS_7CommentE T
_ZN4Sass6OutputclEPNS_9StyleRuleE T
_ZN4Sass6Parser10lex_interpIXadL_ZNS_8Prelexer18re_string_uri_openEPKcEEXadL_ZNS2_19re_string_uri_closeES4_EEEENS_10SharedImplINS_10ExpressionEEEv W
_ZN4Sass6Parser10lex_interpIXadL_ZNS_8Prelexer21re_string_double_openEPKcEEXadL_ZNS2_22re_string_double_closeES4_EEEENS_10SharedImplINS_10ExpressionEEEv W
_ZN4Sass6Parser10lex_interpIXadL_ZNS_8Prelexer21re_string_single_openEPKcEEXadL_ZNS2_22re_string_single_closeES4_EEEENS_10SharedImplINS_10ExpressionEEEv W
_ZN4Sass6Parser10parse_listEb T
_ZN4Sass6Parser11parse_blockEb T
_ZN4Sass6Parser11parse_debugEv T
_ZN4Sass6Parser11parse_errorEv T
_ZN4Sass6Parser11parse_valueEv T
_ZN4Sass6Parser12lex_variableEv T
_ZN4Sass6Parser12lexed_numberERKNS_10SourceSpanERKNSt7__cxx1112basic_stringIcSt11char_traitsIcESaIcEEE T
_ZN4Sass6Parser12lexed_numberERKNSt7__cxx1112basic_stringIcSt11char_traitsIcESaIcEEE W
_ZN4Sass6Parser12parse_factorEv T
_ZN4Sass6Parser12parse_importEv T
_ZN4Sass6Parser12parse_stringEv T
_ZN4Sass6Parser12peek_newlineEPKc T
_ZN4Sass6Parser13fold_operandsENS_10SharedImplINS_10ExpressionEEERSt6vectorIS3_SaIS3_EENS_7OperandE T
_ZN4Sass6Parser13fold_operandsENS_10SharedImplINS_10ExpressionEEERSt6vectorIS3_SaIS3_EERS4_INS_7OperandESaIS8_EEm T
_ZN4Sass6Parser13parse_rulesetE9Lookahead T
_ZN4Sass6Parser13parse_warningEv T
_ZN4Sass6Parser14lex_identifierEv T
_ZN4Sass6Parser14lex_interp_uriEv T
_ZN4Sass6Parser14parseMediaRuleEv T
_ZN4Sass6Parser14parse_argumentEv T
_ZN4Sass6Parser14parse_relationEv T
_ZN4Sass6Parser14parse_selectorEPNS_10SourceDataERNS_7ContextESt6vectorINS_9BacktraceESaIS6_EEb T
_ZN4Sass6Parser15lexed_dimensionERKNS_10SourceSpanERKNSt7__cxx1112basic_stringIcSt11char_traitsIcESaIcEEE T
_ZN4Sass6Parser15lexed_dimensionERKNSt7__cxx1112basic_stringIcSt11char_traitsIcESaIcEEE W
_ZN4Sass6Parser15lexed_hex_colorERKNS_10SourceSpanERKNSt7__cxx1112basic_stringIcSt11char_traitsIcESaIcEEE T
_ZN4Sass6Parser15lexed_hex_colorERKNSt7__cxx1112basic_stringIcSt11char_traitsIcESaIcEEE W
_ZN4Sass6Parser15parseIdentifierB5cxx11Ev T
_ZN4Sass6Parser15parse_argumentsEv T
_ZN4Sass6Parser15parse_css_blockEb T
_ZN4Sass6Parser15parse_directiveEv T
_ZN4Sass6Parser15parse_operatorsEv T
_ZN4Sass6Parser15parse_parameterEv T
_ZN4Sass6Parser16lexed_percentageERKNS_10SourceSpanERKNSt7__cxx1112basic_stringIcSt11char_traitsIcESaIcEEE T
_ZN4Sass6Parser16lexed_percentageERKNSt7__cxx1112basic_stringIcSt11char_traitsIcESaIcEEE W
_ZN4Sass6Parser16parse_assignmentEv T
_ZN4Sass6Parser16parse_block_nodeEb T
_ZN4Sass6Parser16parse_comma_listEb T
_ZN4Sass6Parser16parse_definitionENS_10Definition4TypeE T
_ZN4Sass6Parser16parse_expressionEv T
_ZN4Sass6Parser16parse_parametersEv T
_ZN4Sass6Parser16parse_space_listEv T
_ZN4Sass6Parser17lex_interp_stringEv T
_ZN4Sass6Parser17lex_interpolationEv T
_ZN4Sass6Parser17parseSelectorListEb T
_ZN4Sass6Parser17parse_block_nodesEb T
_ZN4Sass6Parser17parse_conjunctionEv T
_ZN4Sass6Parser17parse_declarationEv T
_ZN4Sass6Parser17parse_disjunctionEv T
_ZN4Sass6Parser17parse_ie_propertyEv T
_ZN4Sass6Parser17parse_media_queryEv T
_ZN4Sass6Parser18advanceToNextTokenEv T
_ZN4Sass6Parser18parseCssMediaQueryEv T
_ZN4Sass6Parser18parse_bracket_listEv T
_ZN4Sass6Parser18parse_if_directiveEb T
_ZN4Sass6Parser18parse_static_valueEv T
_ZN4Sass6Parser18parse_value_schemaEPKc T
_ZN4Sass6Parser19lookahead_for_valueEPKc T
_ZN4Sass6Parser19parse_at_root_blockEv T
_ZN4Sass6Parser19parse_at_root_queryEv T
_ZN4Sass6Parser19parse_calc_functionEv T
_ZN4Sass6Parser19parse_for_directiveEv T
_ZN4Sass6Parser19parse_function_callEv T
_ZN4Sass6Parser19parse_media_queriesEv T
_ZN4Sass6Parser20parseComplexSelectorEb T
_ZN4Sass6Parser20parseCssMediaQueriesEv T
_ZN4Sass6Parser20parse_block_commentsEb T
_ZN4Sass6Parser20parse_each_directiveEv T
_ZN4Sass6Parser20parse_ie_keyword_argEv T
_ZN4Sass6Parser21lookahead_for_includeEPKc T
_ZN4Sass6Parser21parseCompoundSelectorEv T
_ZN4Sass6Parser21parse_pseudo_selectorEv T
_ZN4Sass6Parser21parse_selector_schemaEPKcb T
_ZN4Sass6Parser21parse_simple_selectorEv T
_ZN4Sass6Parser21parse_while_directiveEv T
_ZN4Sass6Parser22lookahead_for_selectorEPKc T
_ZN4Sass6Parser22parse_almost_any_valueEv T
_ZN4Sass6Parser22parse_media_expressionEv T
_ZN4Sass6Parser22parse_return_directiveEv T
_ZN4Sass6Parser23parse_charset_directiveEv T
_ZN4Sass6Parser23parse_content_directiveEv T
_ZN4Sass6Parser23parse_identifier_schemaEv T
_ZN4Sass6Parser23parse_include_directiveEv T
_ZN4Sass6Parser23parse_negated_selector2Ev T
_ZN4Sass6Parser23parse_supports_negationEv T
_ZN4Sass6Parser23parse_supports_operatorEb T
_ZN4Sass6Parser23re_attr_sensitive_closeEPKc T
_ZN4Sass6Parser24parse_attribute_selectorEv T
_ZN4Sass6Parser24parse_css_variable_valueEv T
_ZN4Sass6Parser24parse_interpolated_chunkENS_5TokenEbb T
_ZN4Sass6Parser24parse_supports_conditionEb T
_ZN4Sass6Parser24parse_supports_directiveEv T
_ZN4Sass6Parser25parse_url_function_stringEv T
_ZN4Sass6Parser25re_attr_insensitive_closeEPKc T
_ZN4Sass6Parser26lex_almost_any_value_charsEv T
_ZN4Sass6Parser26lex_almost_any_value_tokenEv T
_ZN4Sass6Parser26parse_function_call_schemaEv T
_ZN4Sass6Parser26parse_supports_declarationEv T
_ZN4Sass6Parser27parse_url_function_argumentEv T
_ZN4Sass6Parser28parse_supports_interpolationEv T
_ZN4Sass6Parser34parse_supports_condition_in_parensEb T
_ZN4Sass6Parser3lexIXadL_ZNS0_23re_attr_sensitive_closeEPKcEEEES3_bb W
_ZN4Sass6Parser3lexIXadL_ZNS0_25re_attr_insensitive_closeEPKcEEEES3_bb W
_ZN4Sass6Parser3lexIXadL_ZNS_8Prelexer10at_keywordEPKcEEEES4_bb W
_ZN4Sass6Parser3lexIXadL_ZNS_8Prelexer10class_charIXadL_ZNS_9Constants10static_opsEEEEEPKcS6_EEEES6_bb W
_ZN4Sass6Parser3lexIXadL_ZNS_8Prelexer10class_nameEPKcEEEES4_bb W
_ZN4Sass6Parser3lexIXadL_ZNS_8Prelexer10identifierEPKcEEEES4_bb W
_ZN4Sass6Parser3lexIXadL_ZNS_8Prelexer10kwd_extendEPKcEEEES4_bb W
_ZN4Sass6Parser3lexIXadL_ZNS_8Prelexer10kwd_importEPKcEEEES4_bb W
_ZN4Sass6Parser3lexIXadL_ZNS_8Prelexer10percentageEPKcEEEES4_bb W
_ZN4Sass6Parser3lexIXadL_ZNS_8Prelexer10pseudo_notEPKcEEEES4_bb W
_ZN4Sass6Parser3lexIXadL_ZNS_8Prelexer10uri_prefixEPKcEEEES4_bb W
_ZN4Sass6Parser3lexIXadL_ZNS_8Prelexer11global_flagEPKcEEEES4_bb W
_ZN4Sass6Parser3lexIXadL_ZNS_8Prelexer11ie_propertyEPKcEEEES4_bb W
_ZN4Sass6Parser3lexIXadL_ZNS_8Prelexer11interpolantEPKcEEEES4_bb W
_ZN4Sass6Parser3lexIXadL_ZNS_8Prelexer11kwd_at_rootEPKcEEEES4_bb W
_ZN4Sass6Parser3lexIXadL_ZNS_8Prelexer11kwd_throughEPKcEEEES4_bb W
_ZN4Sass6Parser3lexIXadL_ZNS_8Prelexer11placeholderEPKcEEEES4_bb W
_ZN4Sass6Parser3lexIXadL_ZNS_8Prelexer12alternativesIXadL_ZNS2_10identifierEPKcEEXadL_ZNS2_7exactlyILc42EEES5_S5_EEJXadL_ZNS2_7exactlyIXadL_ZNS_9Constants8warn_kwdEEEEES5_S5_EEXadL_ZNS7_IXadL_ZNS8_9error_kwdEEEEES5_S5_EEXadL_ZNS7_IXadL_ZNS8_9debug_kwdEEEEES5_S5_EEEEES5_S5_EEEES5_bb W
_ZN4Sass6Parser3lexIXadL_ZNS_8Prelexer12alternativesIXadL_ZNS2_11exact_matchEPKcEEXadL_ZNS2_11class_matchES5_EEJXadL_ZNS2_10dash_matchES5_EEXadL_ZNS2_12prefix_matchES5_EEXadL_ZNS2_12suffix_matchES5_EEXadL_ZNS2_15substring_matchES5_EEEEES5_S5_EEEES5_bb W
_ZN4Sass6Parser3lexIXadL_ZNS_8Prelexer12alternativesIXadL_ZNS2_17identifier_schemaEPKcEEXadL_ZNS2_10identifierES5_EEJEEES5_S5_EEEES5_bb W
_ZN4Sass6Parser3lexIXadL_ZNS_8Prelexer12alternativesIXadL_ZNS2_3hexEPKcEEXadL_ZNS2_4hex0ES5_EEJEEES5_S5_EEEES5_bb W
_ZN4Sass6Parser3lexIXadL_ZNS_8Prelexer12alternativesIXadL_ZNS2_6spacesEPKcEEXadL_ZNS2_13block_commentES5_EEJEEES5_S5_EEEES5_bb W
_ZN4Sass6Parser3lexIXadL_ZNS_8Prelexer12alternativesIXadL_ZNS2_7exactlyILc37EEEPKcS6_EEXadL_ZNS4_ILc45EEES6_S6_EEJXadL_ZNS4_ILc43EEES6_S6_EEEEES6_S6_EEEES6_bb W
_ZN4Sass6Parser3lexIXadL_ZNS_8Prelexer12alternativesIXadL_ZNS2_7exactlyILc40EEEPKcS6_EEXadL_ZNS4_ILc91EEES6_S6_EEJXadL_ZNS4_ILc123EEES6_S6_EEEEES6_S6_EEEES6_bb W
_ZN4Sass6Parser3lexIXadL_ZNS_8Prelexer12alternativesIXadL_ZNS2_7exactlyILc41EEEPKcS6_EEXadL_ZNS4_ILc93EEES6_S6_EEJXadL_ZNS4_ILc125EEES6_S6_EEEEES6_S6_EEEES6_bb W
_ZN4Sass6Parser3lexIXadL_ZNS_8Prelexer12alternativesIXadL_ZNS2_8variableEPKcEEXadL_ZNS2_6numberES5_EEJXadL_ZNS2_27static_reference_combinatorES5_EEEEES5_S5_EEEES5_bb W
_ZN4Sass6Parser3lexIXadL_ZNS_8Prelexer12css_commentsEPKcEEEES4_bb W
_ZN4Sass6Parser3lexIXadL_ZNS_8Prelexer12default_flagEPKcEEEES4_bb W
_ZN4Sass6Parser3lexIXadL_ZNS_8Prelexer12kwd_functionEPKcEEEES4_bb W
_ZN4Sass6Parser3lexIXadL_ZNS_8Prelexer12kwd_optionalEPKcEEEES4_bb W
_ZN4Sass6Parser3lexIXadL_ZNS_8Prelexer12static_valueEPKcEEEES4_bb W
_ZN4Sass6Parser3lexIXadL_ZNS_8Prelexer13block_commentEPKcEEEES4_bb W
_ZN4Sass6Parser3lexIXadL_ZNS_8Prelexer13kwd_importantEPKcEEEES4_bb W
_ZN4Sass6Parser3lexIXadL_ZNS_8Prelexer13pseudo_prefixEPKcEEEES4_bb W
_ZN4Sass6Parser3lexIXadL_ZNS_8Prelexer13quoted_stringEPKcEEEES4_bb W
_ZN4Sass6Parser3lexIXadL_ZNS_8Prelexer14attribute_nameEPKcEEEES4_bb W
_ZN4Sass6Parser3lexIXadL_ZNS_8Prelexer14css_whitespaceEPKcEEEES4_bb W
_ZN4Sass6Parser3lexIXadL_ZNS_8Prelexer14real_uri_valueEPKcEEEES4_bb W
_ZN4Sass6Parser3lexIXadL_ZNS_8Prelexer15optional_spacesEPKcEEEES4_bb W
_ZN4Sass6Parser3lexIXadL_ZNS_8Prelexer15real_uri_suffixEPKcEEEES4_bb W
_ZN4Sass6Parser3lexIXadL_ZNS_8Prelexer16elseif_directiveEPKcEEEES4_bb W
_ZN4Sass6Parser3lexIXadL_ZNS_8Prelexer16kwd_if_directiveEPKcEEEES4_bb W
_ZN4Sass6Parser3lexIXadL_ZNS_8Prelexer16re_type_selectorEPKcEEEES4_bb W
_ZN4Sass6Parser3lexIXadL_ZNS_8Prelexer16skip_over_scopesIXadL_ZNS2_7exactlyILc40EEEPKcS6_EEXadL_ZNS4_ILc41EEES6_S6_EEEES6_S6_EEEES6_bb W
_ZN4Sass6Parser3lexIXadL_ZNS_8Prelexer17functional_schemaEPKcEEEES4_bb W
_ZN4Sass6Parser3lexIXadL_ZNS_8Prelexer17identifier_schemaEPKcEEEES4_bb W
_ZN4Sass6Parser3lexIXadL_ZNS_8Prelexer17kwd_for_directiveEPKcEEEES4_bb W
_ZN4Sass6Parser3lexIXadL_ZNS_8Prelexer18css_variable_valueEPKcEEEES4_bb W
_ZN4Sass6Parser3lexIXadL_ZNS_8Prelexer18kwd_each_directiveEPKcEEEES4_bb W
_ZN4Sass6Parser3lexIXadL_ZNS_8Prelexer18kwd_else_directiveEPKcEEEES4_bb W
_ZN4Sass6Parser3lexIXadL_ZNS_8Prelexer18re_string_uri_openEPKcEEEES4_bb W
_ZN4Sass6Parser3lexIXadL_ZNS_8Prelexer19kwd_while_directiveEPKcEEEES4_bb W
_ZN4Sass6Parser3lexIXadL_ZNS_8Prelexer19re_string_uri_closeEPKcEEEES4_bb W
_ZN4Sass6Parser3lexIXadL_ZNS_8Prelexer20kwd_return_directiveEPKcEEEES4_bb W
_ZN4Sass6Parser3lexIXadL_ZNS_8Prelexer20re_static_expressionEPKcEEEES4_bb W
_ZN4Sass6Parser3lexIXadL_ZNS_8Prelexer21kwd_charset_directiveEPKcEEEES4_bb W
_ZN4Sass6Parser3lexIXadL_ZNS_8Prelexer21kwd_content_directiveEPKcEEEES4_bb W
_ZN4Sass6Parser3lexIXadL_ZNS_8Prelexer21kwd_include_directiveEPKcEEEES4_bb W
_ZN4Sass6Parser3lexIXadL_ZNS_8Prelexer21re_string_double_openEPKcEEEES4_bb W
_ZN4Sass6Parser3lexIXadL_ZNS_8Prelexer21re_string_single_openEPKcEEEES4_bb W
_ZN4Sass6Parser3lexIXadL_ZNS_8Prelexer22kwd_supports_directiveEPKcEEEES4_bb W
_ZN4Sass6Parser3lexIXadL_ZNS_8Prelexer22re_string_double_closeEPKcEEEES4_bb W
_ZN4Sass6Parser3lexIXadL_ZNS_8Prelexer22re_string_single_closeEPKcEEEES4_bb W
_ZN4Sass6Parser3lexIXadL_ZNS_8Prelexer23optional_css_whitespaceEPKcEEEES4_bb W
_ZN4Sass6Parser3lexIXadL_ZNS_8Prelexer28css_variable_top_level_valueEPKcEEEES4_bb W
_ZN4Sass6Parser3lexIXadL_ZNS_8Prelexer4hexaEPKcEEEES4_bb W
_ZN4Sass6Parser3lexIXadL_ZNS_8Prelexer6kwd_eqEPKcEEEES4_bb W
_ZN4Sass6Parser3lexIXadL_ZNS_8Prelexer6kwd_gtEPKcEEEES4_bb W
_ZN4Sass6Parser3lexIXadL_ZNS_8Prelexer6kwd_inEPKcEEEES4_bb W
_ZN4Sass6Parser3lexIXadL_ZNS_8Prelexer6kwd_ltEPKcEEEES4_bb W
_ZN4Sass6Parser3lexIXadL_ZNS_8Prelexer6kwd_orEPKcEEEES4_bb W
_ZN4Sass6Parser3lexIXadL_ZNS_8Prelexer6kwd_toEPKcEEEES4_bb W
_ZN4Sass6Parser3lexIXadL_ZNS_8Prelexer6numberEPKcEEEES4_bb W
_ZN4Sass6Parser3lexIXadL_ZNS_8Prelexer6spacesEPKcEEEES4_bb W
_ZN4Sass6Parser3lexIXadL_ZNS_8Prelexer7exactlyILc123EEEPKcS5_EEEES5_bb W
_ZN4Sass6Parser3lexIXadL_ZNS_8Prelexer7exactlyILc125EEEPKcS5_EEEES5_bb W
_ZN4Sass6Parser3lexIXadL_ZNS_8Prelexer7exactlyILc36EEEPKcS5_EEEES5_bb W
_ZN4Sass6Parser3lexIXadL_ZNS_8Prelexer7exactlyILc38EEEPKcS5_EEEES5_bb W
_ZN4Sass6Parser3lexIXadL_ZNS_8Prelexer7exactlyILc40EEEPKcS5_EEEES5_bb W
_ZN4Sass6Parser3lexIXadL_ZNS_8Prelexer7exactlyILc41EEEPKcS5_EEEES5_bb W
_ZN4Sass6Parser3lexIXadL_ZNS_8Prelexer7exactlyILc43EEEPKcS5_EEEES5_bb W
_ZN4Sass6Parser3lexIXadL_ZNS_8Prelexer7exactlyILc44EEEPKcS5_EEEES5_bb W
_ZN4Sass6Parser3lexIXadL_ZNS_8Prelexer7exactlyILc45EEEPKcS5_EEEES5_bb W
_ZN4Sass6Parser3lexIXadL_ZNS_8Prelexer7exactlyILc47EEEPKcS5_EEEES5_bb W
_ZN4Sass6Parser3lexIXadL_ZNS_8Prelexer7exactlyILc58EEEPKcS5_EEEES5_bb W
_ZN4Sass6Parser3lexIXadL_ZNS_8Prelexer7exactlyILc59EEEPKcS5_EEEES5_bb W
_ZN4Sass6Parser3lexIXadL_ZNS_8Prelexer7exactlyILc61EEEPKcS5_EEEES5_bb W
_ZN4Sass6Parser3lexIXadL_ZNS_8Prelexer7exactlyILc91EEEPKcS5_EEEES5_bb W
_ZN4Sass6Parser3lexIXadL_ZNS_8Prelexer7exactlyILc93EEEPKcS5_EEEES5_bb W
_ZN4Sass6Parser3lexIXadL_ZNS_8Prelexer7exactlyIXadL_ZNS_9Constants11hash_lbraceEEEEEPKcS6_EEEES6_bb W
_ZN4Sass6Parser3lexIXadL_ZNS_8Prelexer7exactlyIXadL_ZNS_9Constants25selector_combinator_childEEEEEPKcS6_EEEES6_bb W
_ZN4Sass6Parser3lexIXadL_ZNS_8Prelexer7exactlyIXadL_ZNS_9Constants27selector_combinator_generalEEEEEPKcS6_EEEES6_bb W
_ZN4Sass6Parser3lexIXadL_ZNS_8Prelexer7exactlyIXadL_ZNS_9Constants28selector_combinator_adjacentEEEEEPKcS6_EEEES6_bb W
_ZN4Sass6Parser3lexIXadL_ZNS_8Prelexer7exactlyIXadL_ZNS_9Constants6rbraceEEEEEPKcS6_EEEES6_bb W
_ZN4Sass6Parser3lexIXadL_ZNS_8Prelexer7exactlyIXadL_ZNS_9Constants8ellipsisEEEEEPKcS6_EEEES6_bb W
_ZN4Sass6Parser3lexIXadL_ZNS_8Prelexer7exactlyIXadL_ZNS_9Constants8else_kwdEEEEEPKcS6_EEEES6_bb W
_ZN4Sass6Parser3lexIXadL_ZNS_8Prelexer7id_nameEPKcEEEES4_bb W
_ZN4Sass6Parser3lexIXadL_ZNS_8Prelexer7kwd_andEPKcEEEES4_bb W
_ZN4Sass6Parser3lexIXadL_ZNS_8Prelexer7kwd_dbgEPKcEEEES4_bb W
_ZN4Sass6Parser3lexIXadL_ZNS_8Prelexer7kwd_errEPKcEEEES4_bb W
_ZN4Sass6Parser3lexIXadL_ZNS_8Prelexer7kwd_gteEPKcEEEES4_bb W
_ZN4Sass6Parser3lexIXadL_ZNS_8Prelexer7kwd_lteEPKcEEEES4_bb W
_ZN4Sass6Parser3lexIXadL_ZNS_8Prelexer7kwd_neqEPKcEEEES4_bb W
_ZN4Sass6Parser3lexIXadL_ZNS_8Prelexer7kwd_notEPKcEEEES4_bb W
_ZN4Sass6Parser3lexIXadL_ZNS_8Prelexer8kwd_fromEPKcEEEES4_bb W
_ZN4Sass6Parser3lexIXadL_ZNS_8Prelexer8kwd_nullEPKcEEEES4_bb W
_ZN4Sass6Parser3lexIXadL_ZNS_8Prelexer8kwd_onlyEPKcEEEES4_bb W
_ZN4Sass6Parser3lexIXadL_ZNS_8Prelexer8kwd_trueEPKcEEEES4_bb W
_ZN4Sass6Parser3lexIXadL_ZNS_8Prelexer8kwd_warnEPKcEEEES4_bb W
_ZN4Sass6Parser3lexIXadL_ZNS_8Prelexer8one_plusIXadL_ZNS2_12alternativesIXadL_ZNS2_7exactlyILc62EEEPKcS7_EEXadL_ZNS2_8sequenceIXadL_ZNS5_ILc92EEES7_S7_EEXadL_ZNS2_8any_charES7_EEJEEES7_S7_EEJXadL_ZNS8_IXadL_ZNS2_6negateIXadL_ZNS8_IXadL_ZNS2_7exactlyIXadL_ZNS_9Constants7url_kwdEEEEES7_S7_EEXadL_ZNS5_ILc40EEES7_S7_EEJEEES7_S7_EEEES7_S7_EEXadL_ZNS2_14neg_class_charIXadL_ZNSB_22almost_any_value_classEEEEES7_S7_EEJEEES7_S7_EEXadL_ZNS8_IXadL_ZNS5_ILc47EEES7_S7_EEXadL_ZNS9_IXadL_ZNS4_IXadL_ZNS5_ILc47EEES7_S7_EEXadL_ZNS5_ILc42EEES7_S7_EEJEEES7_S7_EEEES7_S7_EEJEEES7_S7_EEXadL_ZNS8_IXadL_ZNS5_ILc92EEES7_S7_EEXadL_ZNS5_ILc35EEES7_S7_EEJXadL_ZNS9_IXadL_ZNS5_ILc123EEES7_S7_EEEES7_S7_EEEEES7_S7_EEXadL_ZNS8_IXadL_ZNS5_ILc33EEES7_S7_EEXadL_ZNS9_IXadL_ZNS2_5alphaES7_EEEES7_S7_EEJEEES7_S7_EEEEES7_S7_EEEES7_S7_EEEES7_bb W
_ZN4Sass6Parser3lexIXadL_ZNS_8Prelexer8one_plusIXadL_ZNS2_7exactlyILc58EEEPKcS6_EEEES6_S6_EEEES6_bb W
_ZN4Sass6Parser3lexIXadL_ZNS_8Prelexer8sequenceIXadL_ZNS2_10percentageEPKcEEXadL_ZNS2_9lookaheadIXadL_ZNS2_6numberES5_EEEES5_S5_EEJEEES5_S5_EEEES5_bb W
_ZN4Sass6Parser3lexIXadL_ZNS_8Prelexer8sequenceIXadL_ZNS2_12alternativesIXadL_ZNS2_3hexEPKcEEXadL_ZNS2_4hex0ES6_EEJEEES6_S6_EEXadL_ZNS2_6negateIXadL_ZNS2_7exactlyILc45EEES6_S6_EEEES6_S6_EEJEEES6_S6_EEEES6_bb W
_ZN4Sass6Parser3lexIXadL_ZNS_8Prelexer8sequenceIXadL_ZNS2_13quoted_stringEPKcEEXadL_ZNS2_15optional_spacesES5_EEJXadL_ZNS2_7exactlyILc59EEES5_S5_EEEEES5_S5_EEEES5_bb W
_ZN4Sass6Parser3lexIXadL_ZNS_8Prelexer8sequenceIXadL_ZNS2_13quoted_stringEPKcEEXadL_ZNS2_9lookaheadIXadL_ZNS2_7exactlyILc45EEES5_S5_EEEES5_S5_EEJEEES5_S5_EEEES5_bb W
_ZN4Sass6Parser3lexIXadL_ZNS_8Prelexer8sequenceIXadL_ZNS2_14css_whitespaceEPKcEEXadL_ZNS2_11insensitiveIXadL_ZNS_9Constants6of_kwdEEEEES5_S5_EEJEEES5_S5_EEEES5_bb W
_ZN4Sass6Parser3lexIXadL_ZNS_8Prelexer8sequenceIXadL_ZNS2_16static_componentEPKcEEXadL_ZNS2_8one_plusIXadL_ZNS2_17strict_identifierES5_EEEES5_S5_EEJEEES5_S5_EEEES5_bb W
_ZN4Sass6Parser3lexIXadL_ZNS_8Prelexer8sequenceIXadL_ZNS2_3hexEPKcEEXadL_ZNS2_6negateIXadL_ZNS2_7exactlyILc45EEES5_S5_EEEES5_S5_EEJEEES5_S5_EEEES5_bb W
_ZN4Sass6Parser3lexIXadL_ZNS_8Prelexer8sequenceIXadL_ZNS2_6negateIXadL_ZNS2_5digitEPKcEEEES6_S6_EEXadL_ZNS2_7exactlyILc45EEES6_S6_EEJEEES6_S6_EEEES6_bb W
_ZN4Sass6Parser3lexIXadL_ZNS_8Prelexer8sequenceIXadL_ZNS2_6numberEPKcEEXadL_ZNS2_9lookaheadIXadL_ZNS3_IXadL_ZNS2_2opES5_EEXadL_ZNS2_6numberES5_EEJEEES5_S5_EEEES5_S5_EEJEEES5_S5_EEEES5_bb W
_ZN4Sass6Parser3lexIXadL_ZNS_8Prelexer8sequenceIXadL_ZNS2_7exactlyILc35EEEPKcS6_EEXadL_ZNS2_10identifierES6_EEJEEES6_S6_EEEES6_bb W
_ZN4Sass6Parser3lexIXadL_ZNS_8Prelexer8sequenceIXadL_ZNS2_7exactlyILc36EEEPKcS6_EEXadL_ZNS2_10identifierES6_EEJEEES6_S6_EEEES6_bb W
_ZN4Sass6Parser3lexIXadL_ZNS_8Prelexer8sequenceIXadL_ZNS2_7kwd_notEPKcEEEES5_S5_EEEES5_bb W
_ZN4Sass6Parser3lexIXadL_ZNS_8Prelexer8sequenceIXadL_ZNS2_8binomialEPKcEEXadL_ZNS2_13word_boundaryES5_EEJEEES5_S5_EEEES5_bb W
_ZN4Sass6Parser3lexIXadL_ZNS_8Prelexer8sequenceIXadL_ZNS2_8optionalIXadL_ZNS2_13pseudo_prefixEPKcEEEES6_S6_EEXadL_ZNS2_10identifierES6_EEJEEES6_S6_EEEES6_bb W
_ZN4Sass6Parser3lexIXadL_ZNS_8Prelexer8sequenceIXadL_ZNS2_8optionalIXadL_ZNS2_7exactlyILc42EEEPKcS7_EEEES7_S7_EEXadL_ZNS2_10identifierES7_EEJXadL_ZNS2_9zero_plusIXadL_ZNS2_13block_commentES7_EEEES7_S7_EEEEES7_S7_EEEES7_bb W
_ZN4Sass6Parser3lexIXadL_ZNS_8Prelexer8sequenceIXadL_ZNS2_8optionalIXadL_ZNS2_7exactlyILc42EEEPKcS7_EEEES7_S7_EEXadL_ZNS2_17identifier_schemaES7_EEJEEES7_S7_EEEES7_bb W
_ZN4Sass6Parser3lexIXadL_ZNS_8Prelexer8sequenceIXadL_ZNS2_8sequenceIXadL_ZNS2_10identifierEPKcEEXadL_ZNS2_8optionalIXadL_ZNS2_13block_commentES6_EEEES6_S6_EEJXadL_ZNS2_7exactlyILc40EEES6_S6_EEEEES6_S6_EEEES6_S6_EEEES6_bb W
_ZN4Sass6Parser3lexIXadL_ZNS_8Prelexer8sequenceIXadL_ZNS2_9dimensionEPKcEEXadL_ZNS2_8optionalIXadL_ZNS3_IXadL_ZNS2_7exactlyILc45EEES5_S5_EEXadL_ZNS2_9lookaheadIXadL_ZNS2_12alternativesIXadL_ZNS2_5spaceES5_EEEES5_S5_EEEES5_S5_EEJEEES5_S5_EEEES5_S5_EEJEEES5_S5_EEEES5_bb W
_ZN4Sass6Parser3lexIXadL_ZNS_8Prelexer8variableEPKcEEEES4_bb W
_ZN4Sass6Parser3lexIXadL_ZNS_8Prelexer9ampersandEPKcEEEES4_bb W
_ZN4Sass6Parser3lexIXadL_ZNS_8Prelexer9dimensionEPKcEEEES4_bb W
_ZN4Sass6Parser3lexIXadL_ZNS_8Prelexer9kwd_falseEPKcEEEES4_bb W
_ZN4Sass6Parser3lexIXadL_ZNS_8Prelexer9kwd_mediaEPKcEEEES4_bb W
_ZN4Sass6Parser3lexIXadL_ZNS_8Prelexer9kwd_mixinEPKcEEEES4_bb W
_ZN4Sass6Parser3lexIXadL_ZNS_8Prelexer9kwd_usingEPKcEEEES4_bb W
_ZN4Sass6Parser4peekIXadL_ZNS_8Prelexer10class_charIXadL_ZNS_9Constants23complex_selector_delimsEEEEEPKcS6_EEEES6_S6_ W
_ZN4Sass6Parser4peekIXadL_ZNS_8Prelexer10class_charIXadL_ZNS_9Constants23selector_combinator_opsEEEEEPKcS6_EEEES6_S6_ W
_ZN4Sass6Parser4peekIXadL_ZNS_8Prelexer10non_greedyIXadL_ZNS2_12alternativesIXadL_ZNS2_13block_commentEPKcEEXadL_ZNS2_8sequenceIXadL_ZNS2_11interpolantES6_EEXadL_ZNS2_8optionalIXadL_ZNS2_13quoted_stringES6_EEEES6_S6_EEJEEES6_S6_EEJXadL_ZNS2_10identifierES6_EEXadL_ZNS2_8variableES6_EEXadL_ZNS7_IXadL_ZNS2_16parenthese_scopeES6_EEXadL_ZNS2_11interpolantES6_EEJXadL_ZNS8_IXadL_ZNS2_13quoted_stringES6_EEEES6_S6_EEEEES6_S6_EEEEES6_S6_EEXadL_ZNS2_8sequenceIXadL_ZNS4_IXadL_ZNS2_7exactlyILc123EEES6_S6_EEXadL_ZNSA_ILc125EEES6_S6_EEJXadL_ZNSA_ILc59EEES6_S6_EEEEES6_S6_EEEES6_S6_EEEES6_S6_EEEES6_S6_ W
_ZN4Sass6Parser4peekIXadL_ZNS_8Prelexer10pseudo_notEPKcEEEES4_S4_ W
_ZN4Sass6Parser4peekIXadL_ZNS_8Prelexer10uri_prefixEPKcEEEES4_S4_ W
_ZN4Sass6Parser4peekIXadL_ZNS_8Prelexer11end_of_fileEPKcEEEES4_S4_ W
_ZN4Sass6Parser4peekIXadL_ZNS_8Prelexer11ie_propertyEPKcEEEES4_S4_ W
_ZN4Sass6Parser4peekIXadL_ZNS_8Prelexer12alternativesIXadL_ZNS2_10class_charIXadL_ZNS_9Constants20selector_list_delimsEEEEEPKcS7_EEEES7_S7_EEEES7_S7_ W
_ZN4Sass6Parser4peekIXadL_ZNS_8Prelexer12alternativesIXadL_ZNS2_11end_of_fileEPKcEEXadL_ZNS2_7exactlyILc123EEES5_S5_EEJEEES5_S5_EEEES5_S5_ W
_ZN4Sass6Parser4peekIXadL_ZNS_8Prelexer12alternativesIXadL_ZNS2_11end_of_fileEPKcEEXadL_ZNS2_7exactlyILc123EEES5_S5_EEJXadL_ZNS6_ILc44EEES5_S5_EEEEES5_S5_EEEES5_S5_ W
_ZN4Sass6Parser4peekIXadL_ZNS_8Prelexer12alternativesIXadL_ZNS2_12default_flagEPKcEEXadL_ZNS2_11global_flagES5_EEJEEES5_S5_EEEES5_S5_ W
_ZN4Sass6Parser4peekIXadL_ZNS_8Prelexer12alternativesIXadL_ZNS2_18kwd_with_directiveEPKcEEXadL_ZNS2_21kwd_without_directiveES5_EEJEEES5_S5_EEEES5_S5_ W
_ZN4Sass6Parser4peekIXadL_ZNS_8Prelexer12alternativesIXadL_ZNS2_5alphaEPKcEEEES5_S5_EEEES5_S5_ W
_ZN4Sass6Parser4peekIXadL_ZNS_8Prelexer12alternativesIXadL_ZNS2_6kwd_eqEPKcEEXadL_ZNS2_7kwd_neqES5_EEJXadL_ZNS2_7kwd_gteES5_EEXadL_ZNS2_6kwd_gtES5_EEXadL_ZNS2_7kwd_lteES5_EEXadL_ZNS2_6kwd_ltES5_EEEEES5_S5_EEEES5_S5_ W
_ZN4Sass6Parser4peekIXadL_ZNS_8Prelexer12alternativesIXadL_ZNS2_7exactlyILc41EEEPKcS6_EEXadL_ZNS4_ILc93EEES6_S6_EEJXadL_ZNS4_ILc125EEES6_S6_EEEEES6_S6_EEEES6_S6_ W
_ZN4Sass6Parser4peekIXadL_ZNS_8Prelexer12alternativesIXadL_ZNS2_7exactlyILc44EEEPKcS6_EEXadL_ZNS4_ILc123EEES6_S6_EEJXadL_ZNS4_ILc59EEES6_S6_EEEEES6_S6_EEEES6_S6_ W
_ZN4Sass6Parser4peekIXadL_ZNS_8Prelexer12alternativesIXadL_ZNS2_7exactlyILc59EEEPKcS6_EEXadL_ZNS2_11end_of_fileES6_EEJEEES6_S6_EEEES6_S6_ W
_ZN4Sass6Parser4peekIXadL_ZNS_8Prelexer12alternativesIXadL_ZNS2_7exactlyILc59EEEPKcS6_EEXadL_ZNS4_ILc125EEES6_S6_EEJXadL_ZNS2_11end_of_fileES6_EEEEES6_S6_EEEES6_S6_ W
_ZN4Sass6Parser4peekIXadL_ZNS_8Prelexer12css_commentsEPKcEEEES4_S4_ W
_ZN4Sass6Parser4peekIXadL_ZNS_8Prelexer12static_valueEPKcEEEES4_S4_ W
_ZN4Sass6Parser4peekIXadL_ZNS_8Prelexer12value_schemaEPKcEEEES4_S4_ W
_ZN4Sass6Parser4peekIXadL_ZNS_8Prelexer13re_functionalEPKcEEEES4_S4_ W
_ZN4Sass6Parser4peekIXadL_ZNS_8Prelexer14ie_keyword_argEPKcEEEES4_S4_ W
_ZN4Sass6Parser4peekIXadL_ZNS_8Prelexer15list_terminatorEPKcEEEES4_S4_ W
_ZN4Sass6Parser4peekIXadL_ZNS_8Prelexer15optional_spacesEPKcEEEES4_S4_ W
_ZN4Sass6Parser4peekIXadL_ZNS_8Prelexer16parenthese_scopeEPKcEEEES4_S4_ W
_ZN4Sass6Parser4peekIXadL_ZNS_8Prelexer16re_selector_listEPKcEEEES4_S4_ W
_ZN4Sass6Parser4peekIXadL_ZNS_8Prelexer16skip_over_scopesIXadL_ZNS2_7exactlyILc40EEEPKcS6_EEXadL_ZNS4_ILc41EEES6_S6_EEEES6_S6_EEEES6_S6_ W
_ZN4Sass6Parser4peekIXadL_ZNS_8Prelexer18re_pseudo_selectorEPKcEEEES4_S4_ W
_ZN4Sass6Parser4peekIXadL_ZNS_8Prelexer20ie_keyword_arg_valueEPKcEEEES4_S4_ W
_ZN4Sass6Parser4peekIXadL_ZNS_8Prelexer21space_list_terminatorEPKcEEEES4_S4_ W
_ZN4Sass6Parser4peekIXadL_ZNS_8Prelexer23optional_css_whitespaceEPKcEEEES4_S4_ W
_ZN4Sass6Parser4peekIXadL_ZNS_8Prelexer5spaceEPKcEEEES4_S4_ W
_ZN4Sass6Parser4peekIXadL_ZNS_8Prelexer6spacesEPKcEEEES4_S4_ W
_ZN4Sass6Parser4peekIXadL_ZNS_8Prelexer7exactlyILc123EEEPKcS5_EEEES5_S5_ W
_ZN4Sass6Parser4peekIXadL_ZNS_8Prelexer7exactlyILc125EEEPKcS5_EEEES5_S5_ W
_ZN4Sass6Parser4peekIXadL_ZNS_8Prelexer7exactlyILc36EEEPKcS5_EEEES5_S5_ W
_ZN4Sass6Parser4peekIXadL_ZNS_8Prelexer7exactlyILc40EEEPKcS5_EEEES5_S5_ W
_ZN4Sass6Parser4peekIXadL_ZNS_8Prelexer7exactlyILc41EEEPKcS5_EEEES5_S5_ W
_ZN4Sass6Parser4peekIXadL_ZNS_8Prelexer7exactlyILc43EEEPKcS5_EEEES5_S5_ W
_ZN4Sass6Parser4peekIXadL_ZNS_8Prelexer7exactlyILc44EEEPKcS5_EEEES5_S5_ W
_ZN4Sass6Parser4peekIXadL_ZNS_8Prelexer7exactlyILc45EEEPKcS5_EEEES5_S5_ W
_ZN4Sass6Parser4peekIXadL_ZNS_8Prelexer7exactlyILc58EEEPKcS5_EEEES5_S5_ W
_ZN4Sass6Parser4peekIXadL_ZNS_8Prelexer7exactlyILc59EEEPKcS5_EEEES5_S5_ W
_ZN4Sass6Parser4peekIXadL_ZNS_8Prelexer7exactlyIXadL_ZNS_9Constants11hash_lbraceEEEEEPKcS6_EEEES6_S6_ W
_ZN4Sass6Parser4peekIXadL_ZNS_8Prelexer7exactlyIXadL_ZNS_9Constants6rbraceEEEEEPKcS6_EEEES6_S6_ W
_ZN4Sass6Parser4peekIXadL_ZNS_8Prelexer8sequenceIXadL_ZNS2_10uri_prefixEPKcEEXadL_ZNS2_1WES5_EEJXadL_ZNS2_14real_uri_valueES5_EEEEES5_S5_EEEES5_S5_ W
_ZN4Sass6Parser4peekIXadL_ZNS_8Prelexer8sequenceIXadL_ZNS2_12calc_fn_callEPKcEEXadL_ZNS2_7exactlyILc40EEES5_S5_EEJEEES5_S5_EEEES5_S5_ W
_ZN4Sass6Parser4peekIXadL_ZNS_8Prelexer8sequenceIXadL_ZNS2_15optional_spacesEPKcEEXadL_ZNS2_7exactlyIXadL_ZNS_9Constants6rbraceEEEEES5_S5_EEJEEES5_S5_EEEES5_S5_ W
_ZN4Sass6Parser4peekIXadL_ZNS_8Prelexer8sequenceIXadL_ZNS2_6negateIXadL_ZNS2_15unsigned_numberEPKcEEEES6_S6_EEXadL_ZNS2_7exactlyILc45EEES6_S6_EEJXadL_ZNS4_IXadL_ZNS2_15unsigned_numberES6_EEEES6_S6_EEEEES6_S6_EEEES6_S6_ W
_ZN4Sass6Parser4peekIXadL_ZNS_8Prelexer8sequenceIXadL_ZNS2_6negateIXadL_ZNS2_15unsigned_numberEPKcEEEES6_S6_EEXadL_ZNS2_7exactlyILc45EEES6_S6_EEJXadL_ZNS4_IXadL_ZNS2_5spaceES6_EEEES6_S6_EEEEES6_S6_EEEES6_S6_ W
_ZN4Sass6Parser4peekIXadL_ZNS_8Prelexer8sequenceIXadL_ZNS2_7exactlyILc45EEEPKcS6_EEXadL_ZNS4_ILc45EEES6_S6_EEJEEES6_S6_EEEES6_S6_ W
_ZN4Sass6Parser4peekIXadL_ZNS_8Prelexer8sequenceIXadL_ZNS2_7exactlyIXadL_ZNS_9Constants11hash_lbraceEEEEEPKcS7_EEXadL_ZNS4_IXadL_ZNS5_6rbraceEEEEES7_S7_EEJEEES7_S7_EEEES7_S7_ W
_ZN4Sass6Parser4peekIXadL_ZNS_8Prelexer8sequenceIXadL_ZNS2_8variableEPKcEEXadL_ZNS2_21optional_css_commentsES5_EEJXadL_ZNS2_7exactlyILc58EEES5_S5_EEEEES5_S5_EEEES5_S5_ W
_ZN4Sass6Parser4peekIXadL_ZNS_8Prelexer8sequenceIXadL_ZNS2_9zero_plusIXadL_ZNS2_7exactlyILc45EEEPKcS7_EEEES7_S7_EEXadL_ZNS2_10identifierES7_EEJEEES7_S7_EEEES7_S7_ W
_ZN4Sass6Parser4peekIXadL_ZNS_8Prelexer8variableEPKcEEEES4_S4_ W
_ZN4Sass6Parser4peekIXadL_ZNS_8Prelexer9no_spacesEPKcEEEES4_S4_ W
_ZN4Sass6Parser5errorENSt7__cxx1112basic_stringIcSt11char_traitsIcESaIcEEE T
_ZN4Sass6Parser5matchIXadL_ZNS_8Prelexer13re_functionalEPKcEEEES4_S4_ W
_ZN4Sass6Parser5matchIXadL_ZNS_8Prelexer8sequenceIXadL_ZNS2_21optional_css_commentsEPKcEEXadL_ZNS2_7exactlyILc123EEES5_S5_EEJEEES5_S5_EEEES5_S5_ W
_ZN4Sass6Parser5matchIXadL_ZNS_8Prelexer8sequenceIXadL_ZNS2_21optional_css_commentsEPKcEEXadL_ZNS2_7exactlyILc59EEES5_S5_EEJEEES5_S5_EEEES5_S5_ W
_ZN4Sass6Parser5matchIXadL_ZNS_8Prelexer9ampersandEPKcEEEES4_S4_ W
_ZN4Sass6Parser5parseEv T
_ZN4Sass6Parser5sneakIXadL_ZNS0_23re_attr_sensitive_closeEPKcEEEES3_S3_ W
_ZN4Sass6Parser5sneakIXadL_ZNS0_25re_attr_insensitive_closeEPKcEEEES3_S3_ W
_ZN4Sass6Parser5sneakIXadL_ZNS_8Prelexer10at_keywordEPKcEEEES4_S4_ W
_ZN4Sass6Parser5sneakIXadL_ZNS_8Prelexer10class_charIXadL_ZNS_9Constants10static_opsEEEEEPKcS6_EEEES6_S6_ W
_ZN4Sass6Parser5sneakIXadL_ZNS_8Prelexer10class_charIXadL_ZNS_9Constants23complex_selector_delimsEEEEEPKcS6_EEEES6_S6_ W
_ZN4Sass6Parser5sneakIXadL_ZNS_8Prelexer10class_charIXadL_ZNS_9Constants23selector_combinator_opsEEEEEPKcS6_EEEES6_S6_ W
_ZN4Sass6Parser5sneakIXadL_ZNS_8Prelexer10class_nameEPKcEEEES4_S4_ W
_ZN4Sass6Parser5sneakIXadL_ZNS_8Prelexer10identifierEPKcEEEES4_S4_ W
_ZN4Sass6Parser5sneakIXadL_ZNS_8Prelexer10kwd_extendEPKcEEEES4_S4_ W
_ZN4Sass6Parser5sneakIXadL_ZNS_8Prelexer10kwd_importEPKcEEEES4_S4_ W
_ZN4Sass6Parser5sneakIXadL_ZNS_8Prelexer10non_greedyIXadL_ZNS2_12alternativesIXadL_ZNS2_13block_commentEPKcEEXadL_ZNS2_8sequenceIXadL_ZNS2_11interpolantES6_EEXadL_ZNS2_8optionalIXadL_ZNS2_13quoted_stringES6_EEEES6_S6_EEJEEES6_S6_EEJXadL_ZNS2_10identifierES6_EEXadL_ZNS2_8variableES6_EEXadL_ZNS7_IXadL_ZNS2_16parenthese_scopeES6_EEXadL_ZNS2_11interpolantES6_EEJXadL_ZNS8_IXadL_ZNS2_13quoted_stringES6_EEEES6_S6_EEEEES6_S6_EEEEES6_S6_EEXadL_ZNS2_8sequenceIXadL_ZNS4_IXadL_ZNS2_7exactlyILc123EEES6_S6_EEXadL_ZNSA_ILc125EEES6_S6_EEJXadL_ZNSA_ILc59EEES6_S6_EEEEES6_S6_EEEES6_S6_EEEES6_S6_EEEES6_S6_ W
_ZN4Sass6Parser5sneakIXadL_ZNS_8Prelexer10percentageEPKcEEEES4_S4_ W
_ZN4Sass6Parser5sneakIXadL_ZNS_8Prelexer10pseudo_notEPKcEEEES4_S4_ W
_ZN4Sass6Parser5sneakIXadL_ZNS_8Prelexer10uri_prefixEPKcEEEES4_S4_ W
_ZN4Sass6Parser5sneakIXadL_ZNS_8Prelexer11end_of_fileEPKcEEEES4_S4_ W
_ZN4Sass6Parser5sneakIXadL_ZNS_8Prelexer11global_flagEPKcEEEES4_S4_ W
_ZN4Sass6Parser5sneakIXadL_ZNS_8Prelexer11ie_propertyEPKcEEEES4_S4_ W
_ZN4Sass6Parser5sneakIXadL_ZNS_8Prelexer11interpolantEPKcEEEES4_S4_ W
_ZN4Sass6Parser5sneakIXadL_ZNS_8Prelexer11kwd_at_rootEPKcEEEES4_S4_ W
_ZN4Sass6Parser5sneakIXadL_ZNS_8Prelexer11kwd_throughEPKcEEEES4_S4_ W
_ZN4Sass6Parser5sneakIXadL_ZNS_8Prelexer11placeholderEPKcEEEES4_S4_ W
_ZN4Sass6Parser5sneakIXadL_ZNS_8Prelexer12alternativesIXadL_ZNS2_10class_charIXadL_ZNS_9Constants20selector_list_delimsEEEEEPKcS7_EEEES7_S7_EEEES7_S7_ W
_ZN4Sass6Parser5sneakIXadL_ZNS_8Prelexer12alternativesIXadL_ZNS2_10identifierEPKcEEXadL_ZNS2_7exactlyILc42EEES5_S5_EEJXadL_ZNS2_7exactlyIXadL_ZNS_9Constants8warn_kwdEEEEES5_S5_EEXadL_ZNS7_IXadL_ZNS8_9error_kwdEEEEES5_S5_EEXadL_ZNS7_IXadL_ZNS8_9debug_kwdEEEEES5_S5_EEEEES5_S5_EEEES5_S5_ W
_ZN4Sass6Parser5sneakIXadL_ZNS_8Prelexer12alternativesIXadL_ZNS2_11end_of_fileEPKcEEXadL_ZNS2_7exactlyILc123EEES5_S5_EEJEEES5_S5_EEEES5_S5_ W
_ZN4Sass6Parser5sneakIXadL_ZNS_8Prelexer12alternativesIXadL_ZNS2_11end_of_fileEPKcEEXadL_ZNS2_7exactlyILc123EEES5_S5_EEJXadL_ZNS6_ILc44EEES5_S5_EEEEES5_S5_EEEES5_S5_ W
_ZN4Sass6Parser5sneakIXadL_ZNS_8Prelexer12alternativesIXadL_ZNS2_11exact_matchEPKcEEXadL_ZNS2_11class_matchES5_EEJXadL_ZNS2_10dash_matchES5_EEXadL_ZNS2_12prefix_matchES5_EEXadL_ZNS2_12suffix_matchES5_EEXadL_ZNS2_15substring_matchES5_EEEEES5_S5_EEEES5_S5_ W
_ZN4Sass6Parser5sneakIXadL_ZNS_8Prelexer12alternativesIXadL_ZNS2_12default_flagEPKcEEXadL_ZNS2_11global_flagES5_EEJEEES5_S5_EEEES5_S5_ W
_ZN4Sass6Parser5sneakIXadL_ZNS_8Prelexer12alternativesIXadL_ZNS2_17identifier_schemaEPKcEEXadL_ZNS2_10identifierES5_EEJEEES5_S5_EEEES5_S5_ W
_ZN4Sass6Parser5sneakIXadL_ZNS_8Prelexer12alternativesIXadL_ZNS2_18kwd_with_directiveEPKcEEXadL_ZNS2_21kwd_without_directiveES5_EEJEEES5_S5_EEEES5_S5_ W
_ZN4Sass6Parser5sneakIXadL_ZNS_8Prelexer12alternativesIXadL_ZNS2_3hexEPKcEEXadL_ZNS2_4hex0ES5_EEJEEES5_S5_EEEES5_S5_ W
_ZN4Sass6Parser5sneakIXadL_ZNS_8Prelexer12alternativesIXadL_ZNS2_5alphaEPKcEEEES5_S5_EEEES5_S5_ W
_ZN4Sass6Parser5sneakIXadL_ZNS_8Prelexer12alternativesIXadL_ZNS2_6kwd_eqEPKcEEXadL_ZNS2_7kwd_neqES5_EEJXadL_ZNS2_7kwd_gteES5_EEXadL_ZNS2_6kwd_gtES5_EEXadL_ZNS2_7kwd_lteES5_EEXadL_ZNS2_6kwd_ltES5_EEEEES5_S5_EEEES5_S5_ W
_ZN4Sass6Parser5sneakIXadL_ZNS_8Prelexer12alternativesIXadL_ZNS2_6spacesEPKcEEXadL_ZNS2_13block_commentES5_EEJEEES5_S5_EEEES5_S5_ W
_ZN4Sass6Parser5sneakIXadL_ZNS_8Prelexer12alternativesIXadL_ZNS2_7exactlyILc37EEEPKcS6_EEXadL_ZNS4_ILc45EEES6_S6_EEJXadL_ZNS4_ILc43EEES6_S6_EEEEES6_S6_EEEES6_S6_ W
_ZN4Sass6Parser5sneakIXadL_ZNS_8Prelexer12alternativesIXadL_ZNS2_7exactlyILc40EEEPKcS6_EEXadL_ZNS4_ILc91EEES6_S6_EEJXadL_ZNS4_ILc123EEES6_S6_EEEEES6_S6_EEEES6_S6_ W
_ZN4Sass6Parser5sneakIXadL_ZNS_8Prelexer12alternativesIXadL_ZNS2_7exactlyILc41EEEPKcS6_EEXadL_ZNS4_ILc93EEES6_S6_EEJXadL_ZNS4_ILc125EEES6_S6_EEEEES6_S6_EEEES6_S6_ W
_ZN4Sass6Parser5sneakIXadL_ZNS_8Prelexer12alternativesIXadL_ZNS2_7exactlyILc44EEEPKcS6_EEXadL_ZNS4_ILc123EEES6_S6_EEJXadL_ZNS4_ILc59EEES6_S6_EEEEES6_S6_EEEES6_S6_ W
_ZN4Sass6Parser5sneakIXadL_ZNS_8Prelexer12alternativesIXadL_ZNS2_7exactlyILc59EEEPKcS6_EEXadL_ZNS2_11end_of_fileES6_EEJEEES6_S6_EEEES6_S6_ W
_ZN4Sass6Parser5sneakIXadL_ZNS_8Prelexer12alternativesIXadL_ZNS2_7exactlyILc59EEEPKcS6_EEXadL_ZNS4_ILc125EEES6_S6_EEJXadL_ZNS2_11end_of_fileES6_EEEEES6_S6_EEEES6_S6_ W
_ZN4Sass6Parser5sneakIXadL_ZNS_8Prelexer12alternativesIXadL_ZNS2_8variableEPKcEEXadL_ZNS2_6numberES5_EEJXadL_ZNS2_27static_reference_combinatorES5_EEEEES5_S5_EEEES5_S5_ W
_ZN4Sass6Parser5sneakIXadL_ZNS_8Prelexer12css_commentsEPKcEEEES4_S4_ W
_ZN4Sass6Parser5sneakIXadL_ZNS_8Prelexer12default_flagEPKcEEEES4_S4_ W
_ZN4Sass6Parser5sneakIXadL_ZNS_8Prelexer12kwd_functionEPKcEEEES4_S4_ W
_ZN4Sass6Parser5sneakIXadL_ZNS_8Prelexer12kwd_optionalEPKcEEEES4_S4_ W
_ZN4Sass6Parser5sneakIXadL_ZNS_8Prelexer12static_valueEPKcEEEES4_S4_ W
_ZN4Sass6Parser5sneakIXadL_ZNS_8Prelexer12value_schemaEPKcEEEES4_S4_ W
_ZN4Sass6Parser5sneakIXadL_ZNS_8Prelexer13block_commentEPKcEEEES4_S4_ W
_ZN4Sass6Parser5sneakIXadL_ZNS_8Prelexer13kwd_importantEPKcEEEES4_S4_ W
_ZN4Sass6Parser5sneakIXadL_ZNS_8Prelexer13pseudo_prefixEPKcEEEES4_S4_ W
_ZN4Sass6Parser5sneakIXadL_ZNS_8Prelexer13quoted_stringEPKcEEEES4_S4_ W
_ZN4Sass6Parser5sneakIXadL_ZNS_8Prelexer13re_functionalEPKcEEEES4_S4_ W
_ZN4Sass6Parser5sneakIXadL_ZNS_8Prelexer14attribute_nameEPKcEEEES4_S4_ W
_ZN4Sass6Parser5sneakIXadL_ZNS_8Prelexer14css_whitespaceEPKcEEEES4_S4_ W
_ZN4Sass6Parser5sneakIXadL_ZNS_8Prelexer14ie_keyword_argEPKcEEEES4_S4_ W
_ZN4Sass6Parser5sneakIXadL_ZNS_8Prelexer14real_uri_valueEPKcEEEES4_S4_ W
_ZN4Sass6Parser5sneakIXadL_ZNS_8Prelexer15list_terminatorEPKcEEEES4_S4_ W
_ZN4Sass6Parser5sneakIXadL_ZNS_8Prelexer15optional_spacesEPKcEEEES4_S4_ W
_ZN4Sass6Parser5sneakIXadL_ZNS_8Prelexer15real_uri_suffixEPKcEEEES4_S4_ W
_ZN4Sass6Parser5sneakIXadL_ZNS_8Prelexer16elseif_directiveEPKcEEEES4_S4_ W
_ZN4Sass6Parser5sneakIXadL_ZNS_8Prelexer16kwd_if_directiveEPKcEEEES4_S4_ W
_ZN4Sass6Parser5sneakIXadL_ZNS_8Prelexer16parenthese_scopeEPKcEEEES4_S4_ W
_ZN4Sass6Parser5sneakIXadL_ZNS_8Prelexer16re_selector_listEPKcEEEES4_S4_ W
_ZN4Sass6Parser5sneakIXadL_ZNS_8Prelexer16re_type_selectorEPKcEEEES4_S4_ W
_ZN4Sass6Parser5sneakIXadL_ZNS_8Prelexer16skip_over_scopesIXadL_ZNS2_7exactlyILc40EEEPKcS6_EEXadL_ZNS4_ILc41EEES6_S6_EEEES6_S6_EEEES6_S6_ W
_ZN4Sass6Parser5sneakIXadL_ZNS_8Prelexer17functional_schemaEPKcEEEES4_S4_ W
_ZN4Sass6Parser5sneakIXadL_ZNS_8Prelexer17identifier_schemaEPKcEEEES4_S4_ W
_ZN4Sass6Parser5sneakIXadL_ZNS_8Prelexer17kwd_for_directiveEPKcEEEES4_S4_ W
_ZN4Sass6Parser5sneakIXadL_ZNS_8Prelexer18css_variable_valueEPKcEEEES4_S4_ W
_ZN4Sass6Parser5sneakIXadL_ZNS_8Prelexer18kwd_each_directiveEPKcEEEES4_S4_ W
_ZN4Sass6Parser5sneakIXadL_ZNS_8Prelexer18kwd_else_directiveEPKcEEEES4_S4_ W
_ZN4Sass6Parser5sneakIXadL_ZNS_8Prelexer18re_pseudo_selectorEPKcEEEES4_S4_ W
_ZN4Sass6Parser5sneakIXadL_ZNS_8Prelexer18re_string_uri_openEPKcEEEES4_S4_ W
_ZN4Sass6Parser5sneakIXadL_ZNS_8Prelexer19kwd_while_directiveEPKcEEEES4_S4_ W
_ZN4Sass6Parser5sneakIXadL_ZNS_8Prelexer19re_string_uri_closeEPKcEEEES4_S4_ W
_ZN4Sass6Parser5sneakIXadL_ZNS_8Prelexer20ie_keyword_arg_valueEPKcEEEES4_S4_ W
_ZN4Sass6Parser5sneakIXadL_ZNS_8Prelexer20kwd_return_directiveEPKcEEEES4_S4_ W
_ZN4Sass6Parser5sneakIXadL_ZNS_8Prelexer20re_static_expressionEPKcEEEES4_S4_ W
_ZN4Sass6Parser5sneakIXadL_ZNS_8Prelexer21kwd_charset_directiveEPKcEEEES4_S4_ W
_ZN4Sass6Parser5sneakIXadL_ZNS_8Prelexer21kwd_content_directiveEPKcEEEES4_S4_ W
_ZN4Sass6Parser5sneakIXadL_ZNS_8Prelexer21kwd_include_directiveEPKcEEEES4_S4_ W
_ZN4Sass6Parser5sneakIXadL_ZNS_8Prelexer21re_string_double_openEPKcEEEES4_S4_ W
_ZN4Sass6Parser5sneakIXadL_ZNS_8Prelexer21re_string_single_openEPKcEEEES4_S4_ W
_ZN4Sass6Parser5sneakIXadL_ZNS_8Prelexer21space_list_terminatorEPKcEEEES4_S4_ W
_ZN4Sass6Parser5sneakIXadL_ZNS_8Prelexer22kwd_supports_directiveEPKcEEEES4_S4_ W
_ZN4Sass6Parser5sneakIXadL_ZNS_8Prelexer22re_string_double_closeEPKcEEEES4_S4_ W
_ZN4Sass6Parser5sneakIXadL_ZNS_8Prelexer22re_string_single_closeEPKcEEEES4_S4_ W
_ZN4Sass6Parser5sneakIXadL_ZNS_8Prelexer23optional_css_whitespaceEPKcEEEES4_S4_ W
_ZN4Sass6Parser5sneakIXadL_ZNS_8Prelexer28css_variable_top_level_valueEPKcEEEES4_S4_ W
_ZN4Sass6Parser5sneakIXadL_ZNS_8Prelexer4hexaEPKcEEEES4_S4_ W
_ZN4Sass6Parser5sneakIXadL_ZNS_8Prelexer5spaceEPKcEEEES4_S4_ W
_ZN4Sass6Parser5sneakIXadL_ZNS_8Prelexer6kwd_eqEPKcEEEES4_S4_ W
_ZN4Sass6Parser5sneakIXadL_ZNS_8Prelexer6kwd_gtEPKcEEEES4_S4_ W
_ZN4Sass6Parser5sneakIXadL_ZNS_8Prelexer6kwd_inEPKcEEEES4_S4_ W
_ZN4Sass6Parser5sneakIXadL_ZNS_8Prelexer6kwd_ltEPKcEEEES4_S4_ W
_ZN4Sass6Parser5sneakIXadL_ZNS_8Prelexer6kwd_orEPKcEEEES4_S4_ W
_ZN4Sass6Parser5sneakIXadL_ZNS_8Prelexer6kwd_toEPKcEEEES4_S4_ W
_ZN4Sass6Parser5sneakIXadL_ZNS_8Prelexer6numberEPKcEEEES4_S4_ W
_ZN4Sass6Parser5sneakIXadL_ZNS_8Prelexer6spacesEPKcEEEES4_S4_ W
_ZN4Sass6Parser5sneakIXadL_ZNS_8Prelexer7exactlyILc123EEEPKcS5_EEEES5_S5_ W
_ZN4Sass6Parser5sneakIXadL_ZNS_8Prelexer7exactlyILc125EEEPKcS5_EEEES5_S5_ W
_ZN4Sass6Parser5sneakIXadL_ZNS_8Prelexer7exactlyILc36EEEPKcS5_EEEES5_S5_ W
_ZN4Sass6Parser5sneakIXadL_ZNS_8Prelexer7exactlyILc38EEEPKcS5_EEEES5_S5_ W
_ZN4Sass6Parser5sneakIXadL_ZNS_8Prelexer7exactlyILc40EEEPKcS5_EEEES5_S5_ W
_ZN4Sass6Parser5sneakIXadL_ZNS_8Prelexer7exactlyILc41EEEPKcS5_EEEES5_S5_ W
_ZN4Sass6Parser5sneakIXadL_ZNS_8Prelexer7exactlyILc43EEEPKcS5_EEEES5_S5_ W
_ZN4Sass6Parser5sneakIXadL_ZNS_8Prelexer7exactlyILc44EEEPKcS5_EEEES5_S5_ W
_ZN4Sass6Parser5sneakIXadL_ZNS_8Prelexer7exactlyILc45EEEPKcS5_EEEES5_S5_ W
_ZN4Sass6Parser5sneakIXadL_ZNS_8Prelexer7exactlyILc47EEEPKcS5_EEEES5_S5_ W
_ZN4Sass6Parser5sneakIXadL_ZNS_8Prelexer7exactlyILc58EEEPKcS5_EEEES5_S5_ W
_ZN4Sass6Parser5sneakIXadL_ZNS_8Prelexer7exactlyILc59EEEPKcS5_EEEES5_S5_ W
_ZN4Sass6Parser5sneakIXadL_ZNS_8Prelexer7exactlyILc61EEEPKcS5_EEEES5_S5_ W
_ZN4Sass6Parser5sneakIXadL_ZNS_8Prelexer7exactlyILc91EEEPKcS5_EEEES5_S5_ W
_ZN4Sass6Parser5sneakIXadL_ZNS_8Prelexer7exactlyILc93EEEPKcS5_EEEES5_S5_ W
_ZN4Sass6Parser5sneakIXadL_ZNS_8Prelexer7exactlyIXadL_ZNS_9Constants11hash_lbraceEEEEEPKcS6_EEEES6_S6_ W
_ZN4Sass6Parser5sneakIXadL_ZNS_8Prelexer7exactlyIXadL_ZNS_9Constants25selector_combinator_childEEEEEPKcS6_EEEES6_S6_ W
_ZN4Sass6Parser5sneakIXadL_ZNS_8Prelexer7exactlyIXadL_ZNS_9Constants27selector_combinator_generalEEEEEPKcS6_EEEES6_S6_ W
_ZN4Sass6Parser5sneakIXadL_ZNS_8Prelexer7exactlyIXadL_ZNS_9Constants28selector_combinator_adjacentEEEEEPKcS6_EEEES6_S6_ W
_ZN4Sass6Parser5sneakIXadL_ZNS_8Prelexer7exactlyIXadL_ZNS_9Constants6rbraceEEEEEPKcS6_EEEES6_S6_ W
_ZN4Sass6Parser5sneakIXadL_ZNS_8Prelexer7exactlyIXadL_ZNS_9Constants8ellipsisEEEEEPKcS6_EEEES6_S6_ W
_ZN4Sass6Parser5sneakIXadL_ZNS_8Prelexer7exactlyIXadL_ZNS_9Constants8else_kwdEEEEEPKcS6_EEEES6_S6_ W
_ZN4Sass6Parser5sneakIXadL_ZNS_8Prelexer7id_nameEPKcEEEES4_S4_ W
_ZN4Sass6Parser5sneakIXadL_ZNS_8Prelexer7kwd_andEPKcEEEES4_S4_ W
_ZN4Sass6Parser5sneakIXadL_ZNS_8Prelexer7kwd_dbgEPKcEEEES4_S4_ W
_ZN4Sass6Parser5sneakIXadL_ZNS_8Prelexer7kwd_errEPKcEEEES4_S4_ W
_ZN4Sass6Parser5sneakIXadL_ZNS_8Prelexer7kwd_gteEPKcEEEES4_S4_ W
_ZN4Sass6Parser5sneakIXadL_ZNS_8Prelexer7kwd_lteEPKcEEEES4_S4_ W
_ZN4Sass6Parser5sneakIXadL_ZNS_8Prelexer7kwd_neqEPKcEEEES4_S4_ W
_ZN4Sass6Parser5sneakIXadL_ZNS_8Prelexer7kwd_notEPKcEEEES4_S4_ W
_ZN4Sass6Parser5sneakIXadL_ZNS_8Prelexer8kwd_fromEPKcEEEES4_S4_ W
_ZN4Sass6Parser5sneakIXadL_ZNS_8Prelexer8kwd_nullEPKcEEEES4_S4_ W
_ZN4Sass6Parser5sneakIXadL_ZNS_8Prelexer8kwd_onlyEPKcEEEES4_S4_ W
_ZN4Sass6Parser5sneakIXadL_ZNS_8Prelexer8kwd_trueEPKcEEEES4_S4_ W
_ZN4Sass6Parser5sneakIXadL_ZNS_8Prelexer8kwd_warnEPKcEEEES4_S4_ W
_ZN4Sass6Parser5sneakIXadL_ZNS_8Prelexer8one_plusIXadL_ZNS2_12alternativesIXadL_ZNS2_7exactlyILc62EEEPKcS7_EEXadL_ZNS2_8sequenceIXadL_ZNS5_ILc92EEES7_S7_EEXadL_ZNS2_8any_charES7_EEJEEES7_S7_EEJXadL_ZNS8_IXadL_ZNS2_6negateIXadL_ZNS8_IXadL_ZNS2_7exactlyIXadL_ZNS_9Constants7url_kwdEEEEES7_S7_EEXadL_ZNS5_ILc40EEES7_S7_EEJEEES7_S7_EEEES7_S7_EEXadL_ZNS2_14neg_class_charIXadL_ZNSB_22almost_any_value_classEEEEES7_S7_EEJEEES7_S7_EEXadL_ZNS8_IXadL_ZNS5_ILc47EEES7_S7_EEXadL_ZNS9_IXadL_ZNS4_IXadL_ZNS5_ILc47EEES7_S7_EEXadL_ZNS5_ILc42EEES7_S7_EEJEEES7_S7_EEEES7_S7_EEJEEES7_S7_EEXadL_ZNS8_IXadL_ZNS5_ILc92EEES7_S7_EEXadL_ZNS5_ILc35EEES7_S7_EEJXadL_ZNS9_IXadL_ZNS5_ILc123EEES7_S7_EEEES7_S7_EEEEES7_S7_EEXadL_ZNS8_IXadL_ZNS5_ILc33EEES7_S7_EEXadL_ZNS9_IXadL_ZNS2_5alphaES7_EEEES7_S7_EEJEEES7_S7_EEEEES7_S7_EEEES7_S7_EEEES7_S7_ W
_ZN4Sass6Parser5sneakIXadL_ZNS_8Prelexer8one_plusIXadL_ZNS2_7exactlyILc58EEEPKcS6_EEEES6_S6_EEEES6_S6_ W
_ZN4Sass6Parser5sneakIXadL_ZNS_8Prelexer8sequenceIXadL_ZNS2_10percentageEPKcEEXadL_ZNS2_9lookaheadIXadL_ZNS2_6numberES5_EEEES5_S5_EEJEEES5_S5_EEEES5_S5_ W
_ZN4Sass6Parser5sneakIXadL_ZNS_8Prelexer8sequenceIXadL_ZNS2_10uri_prefixEPKcEEXadL_ZNS2_1WES5_EEJXadL_ZNS2_14real_uri_valueES5_EEEEES5_S5_EEEES5_S5_ W
_ZN4Sass6Parser5sneakIXadL_ZNS_8Prelexer8sequenceIXadL_ZNS2_12alternativesIXadL_ZNS2_3hexEPKcEEXadL_ZNS2_4hex0ES6_EEJEEES6_S6_EEXadL_ZNS2_6negateIXadL_ZNS2_7exactlyILc45EEES6_S6_EEEES6_S6_EEJEEES6_S6_EEEES6_S6_ W
_ZN4Sass6Parser5sneakIXadL_ZNS_8Prelexer8sequenceIXadL_ZNS2_12calc_fn_callEPKcEEXadL_ZNS2_7exactlyILc40EEES5_S5_EEJEEES5_S5_EEEES5_S5_ W
_ZN4Sass6Parser5sneakIXadL_ZNS_8Prelexer8sequenceIXadL_ZNS2_13quoted_stringEPKcEEXadL_ZNS2_15optional_spacesES5_EEJXadL_ZNS2_7exactlyILc59EEES5_S5_EEEEES5_S5_EEEES5_S5_ W
_ZN4Sass6Parser5sneakIXadL_ZNS_8Prelexer8sequenceIXadL_ZNS2_13quoted_stringEPKcEEXadL_ZNS2_9lookaheadIXadL_ZNS2_7exactlyILc45EEES5_S5_EEEES5_S5_EEJEEES5_S5_EEEES5_S5_ W
_ZN4Sass6Parser5sneakIXadL_ZNS_8Prelexer8sequenceIXadL_ZNS2_14css_whitespaceEPKcEEXadL_ZNS2_11insensitiveIXadL_ZNS_9Constants6of_kwdEEEEES5_S5_EEJEEES5_S5_EEEES5_S5_ W
_ZN4Sass6Parser5sneakIXadL_ZNS_8Prelexer8sequenceIXadL_ZNS2_15optional_spacesEPKcEEXadL_ZNS2_7exactlyIXadL_ZNS_9Constants6rbraceEEEEES5_S5_EEJEEES5_S5_EEEES5_S5_ W
_ZN4Sass6Parser5sneakIXadL_ZNS_8Prelexer8sequenceIXadL_ZNS2_16static_componentEPKcEEXadL_ZNS2_8one_plusIXadL_ZNS2_17strict_identifierES5_EEEES5_S5_EEJEEES5_S5_EEEES5_S5_ W
_ZN4Sass6Parser5sneakIXadL_ZNS_8Prelexer8sequenceIXadL_ZNS2_3hexEPKcEEXadL_ZNS2_6negateIXadL_ZNS2_7exactlyILc45EEES5_S5_EEEES5_S5_EEJEEES5_S5_EEEES5_S5_ W
_ZN4Sass6Parser5sneakIXadL_ZNS_8Prelexer8sequenceIXadL_ZNS2_6negateIXadL_ZNS2_15unsigned_numberEPKcEEEES6_S6_EEXadL_ZNS2_7exactlyILc45EEES6_S6_EEJXadL_ZNS4_IXadL_ZNS2_15unsigned_numberES6_EEEES6_S6_EEEEES6_S6_EEEES6_S6_ W
_ZN4Sass6Parser5sneakIXadL_ZNS_8Prelexer8sequenceIXadL_ZNS2_6negateIXadL_ZNS2_15unsigned_numberEPKcEEEES6_S6_EEXadL_ZNS2_7exactlyILc45EEES6_S6_EEJXadL_ZNS4_IXadL_ZNS2_5spaceES6_EEEES6_S6_EEEEES6_S6_EEEES6_S6_ W
_ZN4Sass6Parser5sneakIXadL_ZNS_8Prelexer8sequenceIXadL_ZNS2_6negateIXadL_ZNS2_5digitEPKcEEEES6_S6_EEXadL_ZNS2_7exactlyILc45EEES6_S6_EEJEEES6_S6_EEEES6_S6_ W
_ZN4Sass6Parser5sneakIXadL_ZNS_8Prelexer8sequenceIXadL_ZNS2_6numberEPKcEEXadL_ZNS2_9lookaheadIXadL_ZNS3_IXadL_ZNS2_2opES5_EEXadL_ZNS2_6numberES5_EEJEEES5_S5_EEEES5_S5_EEJEEES5_S5_EEEES5_S5_ W
_ZN4Sass6Parser5sneakIXadL_ZNS_8Prelexer8sequenceIXadL_ZNS2_7exactlyILc35EEEPKcS6_EEXadL_ZNS2_10identifierES6_EEJEEES6_S6_EEEES6_S6_ W
_ZN4Sass6Parser5sneakIXadL_ZNS_8Prelexer8sequenceIXadL_ZNS2_7exactlyILc36EEEPKcS6_EEXadL_ZNS2_10identifierES6_EEJEEES6_S6_EEEES6_S6_ W
_ZN4Sass6Parser5sneakIXadL_ZNS_8Prelexer8sequenceIXadL_ZNS2_7exactlyILc45EEEPKcS6_EEXadL_ZNS4_ILc45EEES6_S6_EEJEEES6_S6_EEEES6_S6_ W
_ZN4Sass6Parser5sneakIXadL_ZNS_8Prelexer8sequenceIXadL_ZNS2_7exactlyIXadL_ZNS_9Constants11hash_lbraceEEEEEPKcS7_EEXadL_ZNS4_IXadL_ZNS5_6rbraceEEEEES7_S7_EEJEEES7_S7_EEEES7_S7_ W
_ZN4Sass6Parser5sneakIXadL_ZNS_8Prelexer8sequenceIXadL_ZNS2_7kwd_notEPKcEEEES5_S5_EEEES5_S5_ W
_ZN4Sass6Parser5sneakIXadL_ZNS_8Prelexer8sequenceIXadL_ZNS2_8binomialEPKcEEXadL_ZNS2_13word_boundaryES5_EEJEEES5_S5_EEEES5_S5_ W
_ZN4Sass6Parser5sneakIXadL_ZNS_8Prelexer8sequenceIXadL_ZNS2_8optionalIXadL_ZNS2_13pseudo_prefixEPKcEEEES6_S6_EEXadL_ZNS2_10identifierES6_EEJEEES6_S6_EEEES6_S6_ W
_ZN4Sass6Parser5sneakIXadL_ZNS_8Prelexer8sequenceIXadL_ZNS2_8optionalIXadL_ZNS2_7exactlyILc42EEEPKcS7_EEEES7_S7_EEXadL_ZNS2_10identifierES7_EEJXadL_ZNS2_9zero_plusIXadL_ZNS2_13block_commentES7_EEEES7_S7_EEEEES7_S7_EEEES7_S7_ W
_ZN4Sass6Parser5sneakIXadL_ZNS_8Prelexer8sequenceIXadL_ZNS2_8optionalIXadL_ZNS2_7exactlyILc42EEEPKcS7_EEEES7_S7_EEXadL_ZNS2_17identifier_schemaES7_EEJEEES7_S7_EEEES7_S7_ W
_ZN4Sass6Parser5sneakIXadL_ZNS_8Prelexer8sequenceIXadL_ZNS2_8sequenceIXadL_ZNS2_10identifierEPKcEEXadL_ZNS2_8optionalIXadL_ZNS2_13block_commentES6_EEEES6_S6_EEJXadL_ZNS2_7exactlyILc40EEES6_S6_EEEEES6_S6_EEEES6_S6_EEEES6_S6_ W
_ZN4Sass6Parser5sneakIXadL_ZNS_8Prelexer8sequenceIXadL_ZNS2_8variableEPKcEEXadL_ZNS2_21optional_css_commentsES5_EEJXadL_ZNS2_7exactlyILc58EEES5_S5_EEEEES5_S5_EEEES5_S5_ W
_ZN4Sass6Parser5sneakIXadL_ZNS_8Prelexer8sequenceIXadL_ZNS2_9dimensionEPKcEEXadL_ZNS2_8optionalIXadL_ZNS3_IXadL_ZNS2_7exactlyILc45EEES5_S5_EEXadL_ZNS2_9lookaheadIXadL_ZNS2_12alternativesIXadL_ZNS2_5spaceES5_EEEES5_S5_EEEES5_S5_EEJEEES5_S5_EEEES5_S5_EEJEEES5_S5_EEEES5_S5_ W
_ZN4Sass6Parser5sneakIXadL_ZNS_8Prelexer8sequenceIXadL_ZNS2_9zero_plusIXadL_ZNS2_7exactlyILc45EEEPKcS7_EEEES7_S7_EEXadL_ZNS2_10identifierES7_EEJEEES7_S7_EEEES7_S7_ W
_ZN4Sass6Parser5sneakIXadL_ZNS_8Prelexer8variableEPKcEEEES4_S4_ W
_ZN4Sass6Parser5sneakIXadL_ZNS_8Prelexer9ampersandEPKcEEEES4_S4_ W
_ZN4Sass6Parser5sneakIXadL_ZNS_8Prelexer9dimensionEPKcEEEES4_S4_ W
_ZN4Sass6Parser5sneakIXadL_ZNS_8Prelexer9kwd_falseEPKcEEEES4_S4_ W
_ZN4Sass6Parser5sneakIXadL_ZNS_8Prelexer9kwd_mediaEPKcEEEES4_S4_ W
_ZN4Sass6Parser5sneakIXadL_ZNS_8Prelexer9kwd_mixinEPKcEEEES4_S4_ W
_ZN4Sass6Parser5sneakIXadL_ZNS_8Prelexer9kwd_usingEPKcEEEES4_S4_ W
_ZN4Sass6Parser5sneakIXadL_ZNS_8Prelexer9no_spacesEPKcEEEES4_S4_ W
_ZN4Sass6Parser7lex_cssIXadL_ZNS0_23re_attr_sensitive_closeEPKcEEEES3_v W
_ZN4Sass6Parser7lex_cssIXadL_ZNS0_25re_attr_insensitive_closeEPKcEEEES3_v W
_ZN4Sass6Parser7lex_cssIXadL_ZNS_8Prelexer10class_charIXadL_ZNS_9Constants10static_opsEEEEEPKcS6_EEEES6_v W
_ZN4Sass6Parser7lex_cssIXadL_ZNS_8Prelexer10identifierEPKcEEEES4_v W
_ZN4Sass6Parser7lex_cssIXadL_ZNS_8Prelexer12alternativesIXadL_ZNS2_11exact_matchEPKcEEXadL_ZNS2_11class_matchES5_EEJXadL_ZNS2_10dash_matchES5_EEXadL_ZNS2_12prefix_matchES5_EEXadL_ZNS2_12suffix_matchES5_EEXadL_ZNS2_15substring_matchES5_EEEEES5_S5_EEEES5_v W
_ZN4Sass6Parser7lex_cssIXadL_ZNS_8Prelexer12kwd_optionalEPKcEEEES4_v W
_ZN4Sass6Parser7lex_cssIXadL_ZNS_8Prelexer13quoted_stringEPKcEEEES4_v W
_ZN4Sass6Parser7lex_cssIXadL_ZNS_8Prelexer14attribute_nameEPKcEEEES4_v W
_ZN4Sass6Parser7lex_cssIXadL_ZNS_8Prelexer16elseif_directiveEPKcEEEES4_v W
_ZN4Sass6Parser7lex_cssIXadL_ZNS_8Prelexer18kwd_else_directiveEPKcEEEES4_v W
_ZN4Sass6Parser7lex_cssIXadL_ZNS_8Prelexer6kwd_orEPKcEEEES4_v W
_ZN4Sass6Parser7lex_cssIXadL_ZNS_8Prelexer7exactlyILc123EEEPKcS5_EEEES5_v W
_ZN4Sass6Parser7lex_cssIXadL_ZNS_8Prelexer7exactlyILc125EEEPKcS5_EEEES5_v W
_ZN4Sass6Parser7lex_cssIXadL_ZNS_8Prelexer7exactlyILc40EEEPKcS5_EEEES5_v W
_ZN4Sass6Parser7lex_cssIXadL_ZNS_8Prelexer7exactlyILc41EEEPKcS5_EEEES5_v W
_ZN4Sass6Parser7lex_cssIXadL_ZNS_8Prelexer7exactlyILc43EEEPKcS5_EEEES5_v W
_ZN4Sass6Parser7lex_cssIXadL_ZNS_8Prelexer7exactlyILc44EEEPKcS5_EEEES5_v W
_ZN4Sass6Parser7lex_cssIXadL_ZNS_8Prelexer7exactlyILc58EEEPKcS5_EEEES5_v W
_ZN4Sass6Parser7lex_cssIXadL_ZNS_8Prelexer7exactlyILc59EEEPKcS5_EEEES5_v W
_ZN4Sass6Parser7lex_cssIXadL_ZNS_8Prelexer7exactlyILc91EEEPKcS5_EEEES5_v W
_ZN4Sass6Parser7lex_cssIXadL_ZNS_8Prelexer7exactlyILc93EEEPKcS5_EEEES5_v W
_ZN4Sass6Parser7lex_cssIXadL_ZNS_8Prelexer7exactlyIXadL_ZNS_9Constants8ellipsisEEEEEPKcS6_EEEES6_v W
_ZN4Sass6Parser7lex_cssIXadL_ZNS_8Prelexer7kwd_andEPKcEEEES4_v W
_ZN4Sass6Parser7lex_cssIXadL_ZNS_8Prelexer8one_plusIXadL_ZNS2_7exactlyILc58EEEPKcS6_EEEES6_S6_EEEES6_v W
_ZN4Sass6Parser7lex_cssIXadL_ZNS_8Prelexer8sequenceIXadL_ZNS2_6negateIXadL_ZNS2_5digitEPKcEEEES6_S6_EEXadL_ZNS2_7exactlyILc45EEES6_S6_EEJEEES6_S6_EEEES6_v W
_ZN4Sass6Parser7lex_cssIXadL_ZNS_8Prelexer8sequenceIXadL_ZNS2_8binomialEPKcEEXadL_ZNS2_13word_boundaryES5_EEJEEES5_S5_EEEES5_v W
_ZN4Sass6Parser7lex_cssIXadL_ZNS_8Prelexer8variableEPKcEEEES4_v W
_ZN4Sass6Parser8peek_cssIXadL_ZNS_8Prelexer10class_charIXadL_ZNS_9Constants23complex_selector_delimsEEEEEPKcS6_EEEES6_S6_ W
_ZN4Sass6Parser8peek_cssIXadL_ZNS_8Prelexer10class_charIXadL_ZNS_9Constants23selector_combinator_opsEEEEEPKcS6_EEEES6_S6_ W
_ZN4Sass6Parser8peek_cssIXadL_ZNS_8Prelexer10uri_prefixEPKcEEEES4_S4_ W
_ZN4Sass6Parser8peek_cssIXadL_ZNS_8Prelexer11end_of_fileEPKcEEEES4_S4_ W
_ZN4Sass6Parser8peek_cssIXadL_ZNS_8Prelexer12alternativesIXadL_ZNS2_10class_charIXadL_ZNS_9Constants20selector_list_delimsEEEEEPKcS7_EEEES7_S7_EEEES7_S7_ W
_ZN4Sass6Parser8peek_cssIXadL_ZNS_8Prelexer12alternativesIXadL_ZNS2_11end_of_fileEPKcEEXadL_ZNS2_7exactlyILc123EEES5_S5_EEJEEES5_S5_EEEES5_S5_ W
_ZN4Sass6Parser8peek_cssIXadL_ZNS_8Prelexer12alternativesIXadL_ZNS2_11end_of_fileEPKcEEXadL_ZNS2_7exactlyILc123EEES5_S5_EEJXadL_ZNS6_ILc44EEES5_S5_EEEEES5_S5_EEEES5_S5_ W
_ZN4Sass6Parser8peek_cssIXadL_ZNS_8Prelexer12alternativesIXadL_ZNS2_7exactlyILc59EEEPKcS6_EEXadL_ZNS2_11end_of_fileES6_EEJEEES6_S6_EEEES6_S6_ W
_ZN4Sass6Parser8peek_cssIXadL_ZNS_8Prelexer12alternativesIXadL_ZNS2_7exactlyILc59EEEPKcS6_EEXadL_ZNS4_ILc125EEES6_S6_EEJXadL_ZNS2_11end_of_fileES6_EEEEES6_S6_EEEES6_S6_ W
_ZN4Sass6Parser8peek_cssIXadL_ZNS_8Prelexer12static_valueEPKcEEEES4_S4_ W
_ZN4Sass6Parser8peek_cssIXadL_ZNS_8Prelexer15list_terminatorEPKcEEEES4_S4_ W
_ZN4Sass6Parser8peek_cssIXadL_ZNS_8Prelexer21space_list_terminatorEPKcEEEES4_S4_ W
_ZN4Sass6Parser8peek_cssIXadL_ZNS_8Prelexer23optional_css_whitespaceEPKcEEEES4_S4_ W
_ZN4Sass6Parser8peek_cssIXadL_ZNS_8Prelexer7exactlyILc123EEEPKcS5_EEEES5_S5_ W
_ZN4Sass6Parser8peek_cssIXadL_ZNS_8Prelexer7exactlyILc125EEEPKcS5_EEEES5_S5_ W
_ZN4Sass6Parser8peek_cssIXadL_ZNS_8Prelexer7exactlyILc40EEEPKcS5_EEEES5_S5_ W
_ZN4Sass6Parser8peek_cssIXadL_ZNS_8Prelexer7exactlyILc41EEEPKcS5_EEEES5_S5_ W
_ZN4Sass6Parser8peek_cssIXadL_ZNS_8Prelexer7exactlyILc43EEEPKcS5_EEEES5_S5_ W
_ZN4Sass6Parser8peek_cssIXadL_ZNS_8Prelexer7exactlyILc44EEEPKcS5_EEEES5_S5_ W
_ZN4Sass6Parser8peek_cssIXadL_ZNS_8Prelexer8sequenceIXadL_ZNS2_7exactlyIXadL_ZNS_9Constants11hash_lbraceEEEEEPKcS7_EEXadL_ZNS4_IXadL_ZNS5_6rbraceEEEEES7_S7_EEJEEES7_S7_EEEES7_S7_ W
_ZN4Sass6Parser8peek_cssIXadL_ZNS_8Prelexer8sequenceIXadL_ZNS2_8variableEPKcEEXadL_ZNS2_21optional_css_commentsES5_EEJXadL_ZNS2_7exactlyILc58EEES5_S5_EEEEES5_S5_EEEES5_S5_ W
_ZN4Sass6Parser8peek_cssIXadL_ZNS_8Prelexer8sequenceIXadL_ZNS2_9zero_plusIXadL_ZNS2_7exactlyILc45EEEPKcS7_EEEES7_S7_EEXadL_ZNS2_10identifierES7_EEJEEES7_S7_EEEES7_S7_ W
_ZN4Sass6Parser8read_bomEv T
_ZN4Sass6Parser9css_errorERKNSt7__cxx1112basic_stringIcSt11char_traitsIcESaIcEEES8_S8_b T
_ZN4Sass6Parser9parse_mapEv T
_ZN4Sass6ParserC1EPNS_10SourceDataERNS_7ContextESt6vectorINS_9BacktraceESaIS6_EEb T
_ZN4Sass6ParserC2EPNS_10SourceDataERNS_7ContextESt6vectorINS_9BacktraceESaIS6_EEb T
_ZN4Sass6ParserD1Ev W
_ZN4Sass6ParserD2Ev W
_ZN4Sass6Return7performEPNS_9OperationINSt7__cxx1112basic_stringIcSt11char_traitsIcESaIcEEEEE W
_ZN4Sass6Return7performEPNS_9OperationIP10Sass_ValueEE W
_ZN4Sass6Return7performEPNS_9OperationIPNS_10ExpressionEEE W
_ZN4Sass6Return7performEPNS_9OperationIPNS_17SupportsConditionEEE W
_ZN4Sass6Return7performEPNS_9OperationIPNS_5ValueEEE W
_ZN4Sass6Return7performEPNS_9OperationIPNS_8AST_NodeEEE W
_ZN4Sass6Return7performEPNS_9OperationIPNS_8SelectorEEE W
_ZN4Sass6Return7performEPNS_9OperationIPNS_9StatementEEE W
_ZN4Sass6Return7performEPNS_9OperationIvEE W
_ZN4Sass6ReturnC1ENS_10SourceSpanENS_10SharedImplINS_10ExpressionEEE T
_ZN4Sass6ReturnC1EPKS0_ T
_ZN4Sass6ReturnC2ENS_10SourceSpanENS_10SharedImplINS_10ExpressionEEE T
_ZN4Sass6ReturnC2EPKS0_ T
_ZN4Sass6ReturnD0Ev W
_ZN4Sass6ReturnD1Ev W
_ZN4Sass6ReturnD2Ev W
_ZN4Sass6String7performEPNS_9OperationINSt7__cxx1112basic_stringIcSt11char_traitsIcESaIcEEEEE W
_ZN4Sass6String7performEPNS_9OperationIP10Sass_ValueEE W
_ZN4Sass6String7performEPNS_9OperationIPNS_10ExpressionEEE W
_ZN4Sass6String7performEPNS_9OperationIPNS_17SupportsConditionEEE W
_ZN4Sass6String7performEPNS_9OperationIPNS_5ValueEEE W
_ZN4Sass6String7performEPNS_9OperationIPNS_8AST_NodeEEE W
_ZN4Sass6String7performEPNS_9OperationIPNS_8SelectorEEE W
_ZN4Sass6String7performEPNS_9OperationIPNS_9StatementEEE W
_ZN4Sass6String7performEPNS_9OperationIvEE W
_ZN4Sass6StringC1ENS_10SourceSpanEb T
_ZN4Sass6StringC1EPKS0_ T
_ZN4Sass6StringC2ENS_10SourceSpanEb T
_ZN4Sass6StringC2EPKS0_ T
_ZN4Sass6StringD0Ev W
_ZN4Sass6StringD1Ev W
_ZN4Sass6StringD2Ev W
_ZN4Sass6absmodIdEET_RKS1_S3_ W
_ZN4Sass6expandISt6vectorINS_10SharedImplINS_15ComplexSelectorEEESaIS4_EEPFS6_RKS4_RKNS2_INS_14PseudoSelectorEEERKNS2_INS_12CssMediaRuleEEEEJSA_SE_EEET_RKSJ_T0_DpT1_ W
_ZN4Sass6hasAnyISt6vectorINS_10SharedImplINS_15ComplexSelectorEEESaIS4_EEPFbPKS3_S8_mEJS4_mEEEbRKT_T0_DpT1_ W
_ZN4Sass6hasAnyISt6vectorINS_10SharedImplINS_15ComplexSelectorEEESaIS4_EEPFbRKS4_EJEEEbRKT_T0_DpT1_ W
_ZN4Sass7Boolean5valueEb W
_ZN4Sass7Boolean7performEPNS_9OperationINSt7__cxx1112basic_stringIcSt11char_traitsIcESaIcEEEEE W
_ZN4Sass7Boolean7performEPNS_9OperationIP10Sass_ValueEE W
_ZN4Sass7Boolean7performEPNS_9OperationIPNS_10ExpressionEEE W
_ZN4Sass7Boolean7performEPNS_9OperationIPNS_17SupportsConditionEEE W
_ZN4Sass7Boolean7performEPNS_9OperationIPNS_5ValueEEE W
_ZN4Sass7Boolean7performEPNS_9OperationIPNS_8AST_NodeEEE W
_ZN4Sass7Boolean7performEPNS_9OperationIPNS_8SelectorEEE W
_ZN4Sass7Boolean7performEPNS_9OperationIPNS_9StatementEEE W
_ZN4Sass7Boolean7performEPNS_9OperationIvEE W
_ZN4Sass7Boolean8is_falseEv W
_ZN4Sass7Boolean9type_nameB5cxx11Ev W
_ZN4Sass7BooleanC1ENS_10SourceSpanEb T
_ZN4Sass7BooleanC1EPKS0_ T
_ZN4Sass7BooleanC2ENS_10SourceSpanEb T
_ZN4Sass7BooleanC2EPKS0_ T
_ZN4Sass7BooleanD0Ev W
_ZN4Sass7BooleanD1Ev W
_ZN4Sass7BooleanD2Ev W
_ZN4Sass7BooleancvbEv W
_ZN4Sass7Comment7performEPNS_9OperationINSt7__cxx1112basic_stringIcSt11char_traitsIcESaIcEEEEE W
_ZN4Sass7Comment7performEPNS_9OperationIP10Sass_ValueEE W
_ZN4Sass7Comment7performEPNS_9OperationIPNS_10ExpressionEEE W
_ZN4Sass7Comment7performEPNS_9OperationIPNS_17SupportsConditionEEE W
_ZN4Sass7Comment7performEPNS_9OperationIPNS_5ValueEEE W
_ZN4Sass7Comment7performEPNS_9OperationIPNS_8AST_NodeEEE W
_ZN4Sass7Comment7performEPNS_9OperationIPNS_8SelectorEEE W
_ZN4Sass7Comment7performEPNS_9OperationIPNS_9StatementEEE W
_ZN4Sass7Comment7performEPNS_9OperationIvEE W
_ZN4Sass7CommentC1ENS_10SourceSpanENS_10SharedImplINS_6StringEEEb T
_ZN4Sass7CommentC1EPKS0_ T
_ZN4Sass7CommentC2ENS_10SourceSpanENS_10SharedImplINS_6StringEEEb T
_ZN4Sass7CommentC2EPKS0_ T
_ZN4Sass7CommentD0Ev W
_ZN4Sass7CommentD1Ev W
_ZN4Sass7CommentD2Ev W
_ZN4Sass7Content7performEPNS_9OperationINSt7__cxx1112basic_stringIcSt11char_traitsIcESaIcEEEEE W
_ZN4Sass7Content7performEPNS_9OperationIP10Sass_ValueEE W
_ZN4Sass7Content7performEPNS_9OperationIPNS_10ExpressionEEE W
_ZN4Sass7Content7performEPNS_9OperationIPNS_17SupportsConditionEEE W
_ZN4Sass7Content7performEPNS_9OperationIPNS_5ValueEEE W
_ZN4Sass7Content7performEPNS_9OperationIPNS_8AST_NodeEEE W
_ZN4Sass7Content7performEPNS_9OperationIPNS_8SelectorEEE W
_ZN4Sass7Content7performEPNS_9OperationIPNS_9StatementEEE W
_ZN4Sass7Content7performEPNS_9OperationIvEE W
_ZN4Sass7ContentC1ENS_10SourceSpanENS_10SharedImplINS_9ArgumentsEEE T
_ZN4Sass7ContentC1EPKS0_ T
_ZN4Sass7ContentC2ENS_10SourceSpanENS_10SharedImplINS_9ArgumentsEEE T
_ZN4Sass7ContentC2EPKS0_ T
_ZN4Sass7ContentD0Ev W
_ZN4Sass7ContentD1Ev W
_ZN4Sass7ContentD2Ev W
_ZN4Sass7Context10import_urlEPNS_6ImportENSt7__cxx1112basic_stringIcSt11char_traitsIcESaIcEEERKS8_ T
_ZN4Sass7Context11call_loaderERKNSt7__cxx1112basic_stringIcSt11char_traitsIcESaIcEEEPKcRNS_10SourceSpanEPNS_6ImportESt6vectorIP13Sass_ImporterSaISH_EEb T
_ZN4Sass7Context11load_importERKNS_8ImporterENS_10SourceSpanE T
_ZN4Sass7Context12add_c_headerEP13Sass_Importer T
_ZN4Sass7Context12call_headersERKNSt7__cxx1112basic_stringIcSt11char_traitsIcESaIcEEEPKcRNS_10SourceSpanEPNS_6ImportE W
_ZN4Sass7Context12output_styleEv W
_ZN4Sass7Context13find_includesERKNS_8ImporterE T
_ZN4Sass7Context13render_srcmapEv T
_ZN4Sass7Context14add_c_functionEP13Sass_Function T
_ZN4Sass7Context14add_c_importerEP13Sass_Importer T
_ZN4Sass7Context14call_importersERKNSt7__cxx1112basic_stringIcSt11char_traitsIcESaIcEEEPKcRNS_10SourceSpanEPNS_6ImportE W
_ZN4Sass7Context17register_resourceERKNS_7IncludeERKNS_8ResourceE T
_ZN4Sass7Context17register_resourceERKNS_7IncludeERKNS_8ResourceERNS_10SourceSpanE T
_ZN4Sass7Context18get_included_filesB5cxx11Ebm T
_ZN4Sass7Context20apply_custom_headersENS_10SharedImplINS_5BlockEEEPKcNS_10SourceSpanE T
_ZN4Sass7Context20collect_plugin_pathsEP11string_list T
_ZN4Sass7Context20collect_plugin_pathsEPKc T
_ZN4Sass7Context21collect_include_pathsEP11string_list T
_ZN4Sass7Context21collect_include_pathsEPKc T
_ZN4Sass7Context25format_source_mapping_urlERKNSt7__cxx1112basic_stringIcSt11char_traitsIcESaIcEEE T
_ZN4Sass7Context26format_embedded_source_mapB5cxx11Ev T
_ZN4Sass7Context3cwdB5cxx11Ev W
_ZN4Sass7Context6renderENS_10SharedImplINS_5BlockEEE T
_ZN4Sass7Context7compileEv T
_ZN4Sass7ContextC1ER12Sass_Context T
_ZN4Sass7ContextC2ER12Sass_Context T
_ZN4Sass7ContextD0Ev T
_ZN4Sass7ContextD1Ev T
_ZN4Sass7ContextD2Ev T
_ZN4Sass7Emitter10get_bufferB5cxx11Ev T
_ZN4Sass7Emitter11append_charEc T
_ZN4Sass7Emitter12append_tokenERKNSt7__cxx1112basic_stringIcSt11char_traitsIcESaIcEEEPKNS_8AST_NodeE T
_ZN4Sass7Emitter12set_filenameERKNSt7__cxx1112basic_stringIcSt11char_traitsIcESaIcEEE T
_ZN4Sass7Emitter13append_stringERKNSt7__cxx1112basic_stringIcSt11char_traitsIcESaIcEEE T
_ZN4Sass7Emitter13append_wspaceERKNSt7__cxx1112basic_stringIcSt11char_traitsIcESaIcEEE T
_ZN4Sass7Emitter13render_srcmapB5cxx11ERNS_7ContextE T
_ZN4Sass7Emitter14prepend_outputERKNS_12OutputBufferE T
_ZN4Sass7Emitter14prepend_stringERKNSt7__cxx1112basic_stringIcSt11char_traitsIcESaIcEEE T
_ZN4Sass7Emitter15flush_schedulesEv T
_ZN4Sass7Emitter16add_open_mappingEPKNS_8AST_NodeE T
_ZN4Sass7Emitter16add_source_indexEm T
_ZN4Sass7Emitter16append_delimiterEv T
_ZN4Sass7Emitter16schedule_mappingEPKNS_8AST_NodeE T
_ZN4Sass7Emitter17add_close_mappingEPKNS_8AST_NodeE T
_ZN4Sass7Emitter18append_indentationEv T
_ZN4Sass7Emitter19append_scope_closerEPNS_8AST_NodeE T
_ZN4Sass7Emitter19append_scope_openerEPNS_8AST_NodeE T
_ZN4Sass7Emitter21append_optional_spaceEv T
_ZN4Sass7Emitter22append_colon_separatorEv T
_ZN4Sass7Emitter22append_comma_separatorEv T
_ZN4Sass7Emitter22append_mandatory_spaceEv T
_ZN4Sass7Emitter23append_special_linefeedEv T
_ZN4Sass7Emitter24append_optional_linefeedEv T
_ZN4Sass7Emitter25append_mandatory_linefeedEv T
_ZN4Sass7Emitter5remapERKNS_10SourceSpanE T
_ZN4Sass7Emitter6bufferB5cxx11Ev W
_ZN4Sass7Emitter6outputEv W
_ZN4Sass7Emitter8finalizeEb T
_ZN4Sass7Emitter9last_charEv T
_ZN4Sass7EmitterC1ER19Sass_Output_Options T
_ZN4Sass7EmitterC1ERKS0_ W
_ZN4Sass7EmitterC2ER19Sass_Output_Options T
_ZN4Sass7EmitterC2ERKS0_ W
_ZN4Sass7EmitterD0Ev W
_ZN4Sass7EmitterD1Ev W
_ZN4Sass7EmitterD2Ev W
_ZN4Sass7ForRule7performEPNS_9OperationINSt7__cxx1112basic_stringIcSt11char_traitsIcESaIcEEEEE W
_ZN4Sass7ForRule7performEPNS_9OperationIP10Sass_ValueEE W
_ZN4Sass7ForRule7performEPNS_9OperationIPNS_10ExpressionEEE W
_ZN4Sass7ForRule7performEPNS_9OperationIPNS_17SupportsConditionEEE W
_ZN4Sass7ForRule7performEPNS_9OperationIPNS_5ValueEEE W
_ZN4Sass7ForRule7performEPNS_9OperationIPNS_8AST_NodeEEE W
_ZN4Sass7ForRule7performEPNS_9OperationIPNS_8SelectorEEE W
_ZN4Sass7ForRule7performEPNS_9OperationIPNS_9StatementEEE W
_ZN4Sass7ForRule7performEPNS_9OperationIvEE W
_ZN4Sass7ForRuleC1ENS_10SourceSpanENSt7__cxx1112basic_stringIcSt11char_traitsIcESaIcEEENS_10SharedImplINS_10ExpressionEEESA_NS8_INS_5BlockEEEb T
_ZN4Sass7ForRuleC1EPKS0_ T
_ZN4Sass7ForRuleC2ENS_10SourceSpanENSt7__cxx1112basic_stringIcSt11char_traitsIcESaIcEEENS_10SharedImplINS_10ExpressionEEESA_NS8_INS_5BlockEEEb T
_ZN4Sass7ForRuleC2EPKS0_ T
_ZN4Sass7ForRuleD0Ev W
_ZN4Sass7ForRuleD1Ev W
_ZN4Sass7ForRuleD2Ev W
_ZN4Sass7IncludeC1EOS0_ W
_ZN4Sass7IncludeC1ERKNS_8ImporterENSt7__cxx1112basic_stringIcSt11char_traitsIcESaIcEEE W
_ZN4Sass7IncludeC1ERKS0_ W
_ZN4Sass7IncludeC2EOS0_ W
_ZN4Sass7IncludeC2ERKNS_8ImporterENSt7__cxx1112basic_stringIcSt11char_traitsIcESaIcEEE W
_ZN4Sass7IncludeC2ERKS0_ W
_ZN4Sass7IncludeD1Ev W
_ZN4Sass7IncludeD2Ev W
_ZN4Sass7IncludeaSEOS0_ W
_ZN4Sass7IncludeaSERKS0_ W
_ZN4Sass7Inspect8lbracketB5cxx11EPNS_4ListE T
_ZN4Sass7Inspect8rbracketB5cxx11EPNS_4ListE T
_ZN4Sass7InspectC1ERKNS_7EmitterE T
_ZN4Sass7InspectC2ERKNS_7EmitterE T
_ZN4Sass7InspectD0Ev T
_ZN4Sass7InspectD1Ev T
_ZN4Sass7InspectD2Ev T
_ZN4Sass7InspectclEPNS_10AssignmentE T
_ZN4Sass7InspectclEPNS_10AtRootRuleE T
_ZN4Sass7InspectclEPNS_10Color_HSLAE T
_ZN4Sass7InspectclEPNS_10Color_RGBAE T
_ZN4Sass7InspectclEPNS_10DefinitionE T
_ZN4Sass7InspectclEPNS_10ExtendRuleE T
_ZN4Sass7InspectclEPNS_10IDSelectorE T
_ZN4Sass7InspectclEPNS_10Mixin_CallE T
_ZN4Sass7InspectclEPNS_10ParametersE T
_ZN4Sass7InspectclEPNS_11DeclarationE T
_ZN4Sass7InspectclEPNS_11Import_StubE T
_ZN4Sass7InspectclEPNS_11Media_QueryE T
_ZN4Sass7InspectclEPNS_11WarningRuleE T
_ZN4Sass7InspectclEPNS_12CssMediaRuleE T
_ZN4Sass7InspectclEPNS_12Custom_ErrorE T
_ZN4Sass7InspectclEPNS_12SelectorListE T
_ZN4Sass7InspectclEPNS_12SupportsRuleE T
_ZN4Sass7InspectclEPNS_12TypeSelectorE T
_ZN4Sass7InspectclEPNS_13At_Root_QueryE T
_ZN4Sass7InspectclEPNS_13ClassSelectorE T
_ZN4Sass7InspectclEPNS_13CssMediaQueryE T
_ZN4Sass7InspectclEPNS_13Function_CallE T
_ZN4Sass7InspectclEPNS_13Keyframe_RuleE T
_ZN4Sass7InspectclEPNS_13String_QuotedE T
_ZN4Sass7InspectclEPNS_13String_SchemaE T
_ZN4Sass7InspectclEPNS_14Custom_WarningE T
_ZN4Sass7InspectclEPNS_14PseudoSelectorE T
_ZN4Sass7InspectclEPNS_15ComplexSelectorE T
_ZN4Sass7InspectclEPNS_15Selector_SchemaE T
_ZN4Sass7InspectclEPNS_15String_ConstantE T
_ZN4Sass7InspectclEPNS_16CompoundSelectorE T
_ZN4Sass7InspectclEPNS_16Parent_ReferenceE T
_ZN4Sass7InspectclEPNS_16SupportsNegationE T
_ZN4Sass7InspectclEPNS_16Unary_ExpressionE T
_ZN4Sass7InspectclEPNS_17AttributeSelectorE T
_ZN4Sass7InspectclEPNS_17Binary_ExpressionE T
_ZN4Sass7InspectclEPNS_17SelectorComponentE T
_ZN4Sass7InspectclEPNS_17SupportsOperationE T
_ZN4Sass7InspectclEPNS_18SelectorCombinatorE T
_ZN4Sass7InspectclEPNS_19PlaceholderSelectorE T
_ZN4Sass7InspectclEPNS_19SupportsDeclarationE T
_ZN4Sass7InspectclEPNS_22Media_Query_ExpressionE T
_ZN4Sass7InspectclEPNS_22Supports_InterpolationE T
_ZN4Sass7InspectclEPNS_2IfE T
_ZN4Sass7InspectclEPNS_3MapE T
_ZN4Sass7InspectclEPNS_4ListE T
_ZN4Sass7InspectclEPNS_4NullE T
_ZN4Sass7InspectclEPNS_5BlockE T
_ZN4Sass7InspectclEPNS_6AtRuleE T
_ZN4Sass7InspectclEPNS_6BubbleE T
_ZN4Sass7InspectclEPNS_6ImportE T
_ZN4Sass7InspectclEPNS_6NumberE T
_ZN4Sass7InspectclEPNS_6ReturnE T
_ZN4Sass7InspectclEPNS_7BooleanE T
_ZN4Sass7InspectclEPNS_7CommentE T
_ZN4Sass7InspectclEPNS_7ContentE T
_ZN4Sass7InspectclEPNS_7ForRuleE T
_ZN4Sass7InspectclEPNS_8ArgumentE T
_ZN4Sass7InspectclEPNS_8EachRuleE T
_ZN4Sass7InspectclEPNS_8FunctionE T
_ZN4Sass7InspectclEPNS_8VariableE T
_ZN4Sass7InspectclEPNS_9ArgumentsE T
_ZN4Sass7InspectclEPNS_9DebugRuleE T
_ZN4Sass7InspectclEPNS_9ErrorRuleE T
_ZN4Sass7InspectclEPNS_9MediaRuleE T
_ZN4Sass7InspectclEPNS_9ParameterE T
_ZN4Sass7InspectclEPNS_9StyleRuleE T
_ZN4Sass7InspectclEPNS_9WhileRuleE T
_ZN4Sass7Listize7performEPNS_8AST_NodeE T
_ZN4Sass7Listize8fallbackIPNS_10AssignmentEEEPNS_10ExpressionET_ W
_ZN4Sass7Listize8fallbackIPNS_10AtRootRuleEEEPNS_10ExpressionET_ W
_ZN4Sass7Listize8fallbackIPNS_10Color_HSLAEEEPNS_10ExpressionET_ W
_ZN4Sass7Listize8fallbackIPNS_10Color_RGBAEEEPNS_10ExpressionET_ W
_ZN4Sass7Listize8fallbackIPNS_10DefinitionEEEPNS_10ExpressionET_ W
_ZN4Sass7Listize8fallbackIPNS_10ExtendRuleEEEPNS_10ExpressionET_ W
_ZN4Sass7Listize8fallbackIPNS_10IDSelectorEEEPNS_10ExpressionET_ W
_ZN4Sass7Listize8fallbackIPNS_10Mixin_CallEEEPNS_10ExpressionET_ W
_ZN4Sass7Listize8fallbackIPNS_10ParametersEEEPNS_10ExpressionET_ W
_ZN4Sass7Listize8fallbackIPNS_11DeclarationEEEPNS_10ExpressionET_ W
_ZN4Sass7Listize8fallbackIPNS_11Import_StubEEEPNS_10ExpressionET_ W
_ZN4Sass7Listize8fallbackIPNS_11Media_QueryEEEPNS_10ExpressionET_ W
_ZN4Sass7Listize8fallbackIPNS_11WarningRuleEEEPNS_10ExpressionET_ W
_ZN4Sass7Listize8fallbackIPNS_12CssMediaRuleEEEPNS_10ExpressionET_ W
_ZN4Sass7Listize8fallbackIPNS_12Custom_ErrorEEEPNS_10ExpressionET_ W
_ZN4Sass7Listize8fallbackIPNS_12SelectorListEEEPNS_10ExpressionET_ W
_ZN4Sass7Listize8fallbackIPNS_12SupportsRuleEEEPNS_10ExpressionET_ W
_ZN4Sass7Listize8fallbackIPNS_12TypeSelectorEEEPNS_10ExpressionET_ W
_ZN4Sass7Listize8fallbackIPNS_13At_Root_QueryEEEPNS_10ExpressionET_ W
_ZN4Sass7Listize8fallbackIPNS_13ClassSelectorEEEPNS_10ExpressionET_ W
_ZN4Sass7Listize8fallbackIPNS_13CssMediaQueryEEEPNS_10ExpressionET_ W
_ZN4Sass7Listize8fallbackIPNS_13Function_CallEEEPNS_10ExpressionET_ W
_ZN4Sass7Listize8fallbackIPNS_13Keyframe_RuleEEEPNS_10ExpressionET_ W
_ZN4Sass7Listize8fallbackIPNS_13String_QuotedEEEPNS_10ExpressionET_ W
_ZN4Sass7Listize8fallbackIPNS_13String_SchemaEEEPNS_10ExpressionET_ W
_ZN4Sass7Listize8fallbackIPNS_14Custom_WarningEEEPNS_10ExpressionET_ W
_ZN4Sass7Listize8fallbackIPNS_14PseudoSelectorEEEPNS_10ExpressionET_ W
_ZN4Sass7Listize8fallbackIPNS_15ComplexSelectorEEEPNS_10ExpressionET_ W
_ZN4Sass7Listize8fallbackIPNS_15Selector_SchemaEEEPNS_10ExpressionET_ W
_ZN4Sass7Listize8fallbackIPNS_15String_ConstantEEEPNS_10ExpressionET_ W
_ZN4Sass7Listize8fallbackIPNS_16CompoundSelectorEEEPNS_10ExpressionET_ W
_ZN4Sass7Listize8fallbackIPNS_16Parent_ReferenceEEEPNS_10ExpressionET_ W
_ZN4Sass7Listize8fallbackIPNS_16SupportsNegationEEEPNS_10ExpressionET_ W
_ZN4Sass7Listize8fallbackIPNS_16Unary_ExpressionEEEPNS_10ExpressionET_ W
_ZN4Sass7Listize8fallbackIPNS_17AttributeSelectorEEEPNS_10ExpressionET_ W
_ZN4Sass7Listize8fallbackIPNS_17Binary_ExpressionEEEPNS_10ExpressionET_ W
_ZN4Sass7Listize8fallbackIPNS_17SelectorComponentEEEPNS_10ExpressionET_ W
_ZN4Sass7Listize8fallbackIPNS_17SupportsConditionEEEPNS_10ExpressionET_ W
_ZN4Sass7Listize8fallbackIPNS_17SupportsOperationEEEPNS_10ExpressionET_ W
_ZN4Sass7Listize8fallbackIPNS_18SelectorCombinatorEEEPNS_10ExpressionET_ W
_ZN4Sass7Listize8fallbackIPNS_19PlaceholderSelectorEEEPNS_10ExpressionET_ W
_ZN4Sass7Listize8fallbackIPNS_19SupportsDeclarationEEEPNS_10ExpressionET_ W
_ZN4Sass7Listize8fallbackIPNS_22Media_Query_ExpressionEEEPNS_10ExpressionET_ W
_ZN4Sass7Listize8fallbackIPNS_22Supports_InterpolationEEEPNS_10ExpressionET_ W
_ZN4Sass7Listize8fallbackIPNS_2IfEEEPNS_10ExpressionET_ W
_ZN4Sass7Listize8fallbackIPNS_3MapEEEPNS_10ExpressionET_ W
_ZN4Sass7Listize8fallbackIPNS_4ListEEEPNS_10ExpressionET_ W
_ZN4Sass7Listize8fallbackIPNS_4NullEEEPNS_10ExpressionET_ W
_ZN4Sass7Listize8fallbackIPNS_5BlockEEEPNS_10ExpressionET_ W
_ZN4Sass7Listize8fallbackIPNS_5ColorEEEPNS_10ExpressionET_ W
_ZN4Sass7Listize8fallbackIPNS_5TraceEEEPNS_10ExpressionET_ W
_ZN4Sass7Listize8fallbackIPNS_6AtRuleEEEPNS_10ExpressionET_ W
_ZN4Sass7Listize8fallbackIPNS_6BubbleEEEPNS_10ExpressionET_ W
_ZN4Sass7Listize8fallbackIPNS_6ImportEEEPNS_10ExpressionET_ W
_ZN4Sass7Listize8fallbackIPNS_6NumberEEEPNS_10ExpressionET_ W
_ZN4Sass7Listize8fallbackIPNS_6ReturnEEEPNS_10ExpressionET_ W
_ZN4Sass7Listize8fallbackIPNS_7BooleanEEEPNS_10ExpressionET_ W
_ZN4Sass7Listize8fallbackIPNS_7CommentEEEPNS_10ExpressionET_ W
_ZN4Sass7Listize8fallbackIPNS_7ContentEEEPNS_10ExpressionET_ W
_ZN4Sass7Listize8fallbackIPNS_7ForRuleEEEPNS_10ExpressionET_ W
_ZN4Sass7Listize8fallbackIPNS_8AST_NodeEEEPNS_10ExpressionET_ W
_ZN4Sass7Listize8fallbackIPNS_8ArgumentEEEPNS_10ExpressionET_ W
_ZN4Sass7Listize8fallbackIPNS_8EachRuleEEEPNS_10ExpressionET_ W
_ZN4Sass7Listize8fallbackIPNS_8FunctionEEEPNS_10ExpressionET_ W
_ZN4Sass7Listize8fallbackIPNS_8VariableEEEPNS_10ExpressionET_ W
_ZN4Sass7Listize8fallbackIPNS_9ArgumentsEEEPNS_10ExpressionET_ W
_ZN4Sass7Listize8fallbackIPNS_9DebugRuleEEEPNS_10ExpressionET_ W
_ZN4Sass7Listize8fallbackIPNS_9ErrorRuleEEEPNS_10ExpressionET_ W
_ZN4Sass7Listize8fallbackIPNS_9MediaRuleEEEPNS_10ExpressionET_ W
_ZN4Sass7Listize8fallbackIPNS_9ParameterEEEPNS_10ExpressionET_ W
_ZN4Sass7Listize8fallbackIPNS_9StyleRuleEEEPNS_10ExpressionET_ W
_ZN4Sass7Listize8fallbackIPNS_9WhileRuleEEEPNS_10ExpressionET_ W
_ZN4Sass7ListizeC1Ev T
_ZN4Sass7ListizeC2Ev T
_ZN4Sass7ListizeD1Ev W
_ZN4Sass7ListizeD2Ev W
_ZN4Sass7ListizeclEPNS_12SelectorListE T
_ZN4Sass7ListizeclEPNS_15ComplexSelectorE T
_ZN4Sass7ListizeclEPNS_16CompoundSelectorE T
_ZN4Sass7MappingC1ERKNS_8PositionES3_ W
_ZN4Sass7MappingC2ERKNS_8PositionES3_ W
_ZN4Sass7OperandC1E7Sass_OPbb W
_ZN4Sass7OperandC2E7Sass_OPbb W
_ZN4Sass7Plugins11get_headersEv W
_ZN4Sass7Plugins11load_pluginERKNSt7__cxx1112basic_stringIcSt11char_traitsIcESaIcEEE T
_ZN4Sass7Plugins12load_pluginsERKNSt7__cxx1112basic_stringIcSt11char_traitsIcESaIcEEE T
_ZN4Sass7Plugins13get_functionsEv W
_ZN4Sass7Plugins13get_importersEv W
_ZN4Sass7PluginsC1Ev T
_ZN4Sass7PluginsC2Ev T
_ZN4Sass7PluginsD1Ev T
_ZN4Sass7PluginsD2Ev T
_ZN4Sass7flattenISt6vectorINS_10SharedImplINS_17SelectorComponentEEESaIS4_EEEET_RKS1_IS7_SaIS7_EE W
_ZN4Sass7hasRootEPKNS_16CompoundSelectorE T
_ZN4Sass7processERNSt7__cxx1112basic_stringIcSt11char_traitsIcESaIcEEERNS_9converterE T
_ZN4Sass7unquoteERKNSt7__cxx1112basic_stringIcSt11char_traitsIcESaIcEEEPcbb T
_ZN4Sass7warningENSt7__cxx1112basic_stringIcSt11char_traitsIcESaIcEEENS_10SourceSpanE T
_ZN4Sass8AST_Node13cloneChildrenEv W
_ZN4Sass8AST_Node13update_pstateERKNS_10SourceSpanE T
_ZN4Sass8AST_Node4findEPFbNS_10SharedImplIS0_EEE W
_ZN4Sass8AST_Node6pstateENS_10SourceSpanE W
_ZN4Sass8AST_NodeC1ENS_10SourceSpanE W
_ZN4Sass8AST_NodeC1EPKS0_ W
_ZN4Sass8AST_NodeC1ERKS0_ W
_ZN4Sass8AST_NodeC2ENS_10SourceSpanE W
_ZN4Sass8AST_NodeC2EPKS0_ W
_ZN4Sass8AST_NodeC2ERKS0_ W
_ZN4Sass8AST_NodeD0Ev W
_ZN4Sass8AST_NodeD1Ev W
_ZN4Sass8AST_NodeD2Ev W
_ZN4Sass8Argument11set_delayedEb T
_ZN4Sass8Argument5valueENS_10SharedImplINS_10ExpressionEEE W
_ZN4Sass8Argument7performEPNS_9OperationINSt7__cxx1112basic_stringIcSt11char_traitsIcESaIcEEEEE W
_ZN4Sass8Argument7performEPNS_9OperationIP10Sass_ValueEE W
_ZN4Sass8Argument7performEPNS_9OperationIPNS_10ExpressionEEE W
_ZN4Sass8Argument7performEPNS_9OperationIPNS_17SupportsConditionEEE W
_ZN4Sass8Argument7performEPNS_9OperationIPNS_5ValueEEE W
_ZN4Sass8Argument7performEPNS_9OperationIPNS_8AST_NodeEEE W
_ZN4Sass8Argument7performEPNS_9OperationIPNS_8SelectorEEE W
_ZN4Sass8Argument7performEPNS_9OperationIPNS_9StatementEEE W
_ZN4Sass8Argument7performEPNS_9OperationIvEE W
_ZN4Sass8ArgumentC1ENS_10SourceSpanENS_10SharedImplINS_10ExpressionEEENSt7__cxx1112basic_stringIcSt11char_traitsIcESaIcEEEbb T
_ZN4Sass8ArgumentC1EPKS0_ T
_ZN4Sass8ArgumentC2ENS_10SourceSpanENS_10SharedImplINS_10ExpressionEEENSt7__cxx1112basic_stringIcSt11char_traitsIcESaIcEEEbb T
_ZN4Sass8ArgumentC2EPKS0_ T
_ZN4Sass8ArgumentD0Ev W
_ZN4Sass8ArgumentD1Ev W
_ZN4Sass8ArgumentD2Ev W
_ZN4Sass8EachRule7performEPNS_9OperationINSt7__cxx1112basic_stringIcSt11char_traitsIcESaIcEEEEE W
_ZN4Sass8EachRule7performEPNS_9OperationIP10Sass_ValueEE W
_ZN4Sass8EachRule7performEPNS_9OperationIPNS_10ExpressionEEE W
_ZN4Sass8EachRule7performEPNS_9OperationIPNS_17SupportsConditionEEE W
_ZN4Sass8EachRule7performEPNS_9OperationIPNS_5ValueEEE W
_ZN4Sass8EachRule7performEPNS_9OperationIPNS_8AST_NodeEEE W
_ZN4Sass8EachRule7performEPNS_9OperationIPNS_8SelectorEEE W
_ZN4Sass8EachRule7performEPNS_9OperationIPNS_9StatementEEE W
_ZN4Sass8EachRule7performEPNS_9OperationIvEE W
_ZN4Sass8EachRuleC1ENS_10SourceSpanESt6vectorINSt7__cxx1112basic_stringIcSt11char_traitsIcESaIcEEESaIS8_EENS_10SharedImplINS_10ExpressionEEENSB_INS_5BlockEEE T
_ZN4Sass8EachRuleC1EPKS0_ T
_ZN4Sass8EachRuleC2ENS_10SourceSpanESt6vectorINSt7__cxx1112basic_stringIcSt11char_traitsIcESaIcEEESaIS8_EENS_10SharedImplINS_10ExpressionEEENSB_INS_5BlockEEE T
_ZN4Sass8EachRuleC2EPKS0_ T
_ZN4Sass8EachRuleD0Ev W
_ZN4Sass8EachRuleD1Ev W
_ZN4Sass8EachRuleD2Ev W
_ZN4Sass8Extender10extendListERKNS_10SharedImplINS_12SelectorListEEERKSt13unordered_mapINS1_INS_14SimpleSelectorEEENS_11ordered_mapINS1_INS_15ComplexSelectorEEENS_9ExtensionENS_7ObjHashENS_11ObjEqualityESaISt4pairIKSB_SC_EEEESD_SE_SaISF_IKS8_SJ_EEERKNS1_INS_12CssMediaRuleEEE T
_ZN4Sass8Extender11addSelectorERKNS_10SharedImplINS_12SelectorListEEERKNS1_INS_12CssMediaRuleEEE T
_ZN4Sass8Extender11rotateSliceERSt6vectorINS_10SharedImplINS_15ComplexSelectorEEESaIS4_EEmm T
_ZN4Sass8Extender12addExtensionERKNS_10SharedImplINS_12SelectorListEEERKNS1_INS_14SimpleSelectorEEERKNS1_INS_12CssMediaRuleEEEb T
_ZN4Sass8Extender12extendPseudoERKNS_10SharedImplINS_14PseudoSelectorEEERKSt13unordered_mapINS1_INS_14SimpleSelectorEEENS_11ordered_mapINS1_INS_15ComplexSelectorEEENS_9ExtensionENS_7ObjHashENS_11ObjEqualityESaISt4pairIKSB_SC_EEEESD_SE_SaISF_IKS8_SJ_EEERKNS1_INS_12CssMediaRuleEEE T
_ZN4Sass8Extender12extendSimpleERKNS_10SharedImplINS_14SimpleSelectorEEERKSt13unordered_mapIS3_NS_11ordered_mapINS1_INS_15ComplexSelectorEEENS_9ExtensionENS_7ObjHashENS_11ObjEqualityESaISt4pairIKS9_SA_EEEESB_SC_SaISD_IS4_SH_EEERKNS1_INS_12CssMediaRuleEEEPSt13unordered_setIS3_SB_SC_SaIS3_EE T
_ZN4Sass8Extender13extendComplexERKNS_10SharedImplINS_15ComplexSelectorEEERKSt13unordered_mapINS1_INS_14SimpleSelectorEEENS_11ordered_mapIS3_NS_9ExtensionENS_7ObjHashENS_11ObjEqualityESaISt4pairIS4_SA_EEEESB_SC_SaISD_IKS8_SG_EEERKNS1_INS_12CssMediaRuleEEE T
_ZN4Sass8Extender13hasExactlyOneERKNS_10SharedImplINS_15ComplexSelectorEEE T
_ZN4Sass8Extender14extendCompoundERKNS_10SharedImplINS_16CompoundSelectorEEERKSt13unordered_mapINS1_INS_14SimpleSelectorEEENS_11ordered_mapINS1_INS_15ComplexSelectorEEENS_9ExtensionENS_7ObjHashENS_11ObjEqualityESaISt4pairIKSB_SC_EEEESD_SE_SaISF_IKS8_SJ_EEERKNS1_INS_12CssMediaRuleEEEb T
_ZN4Sass8Extender14hasMoreThanOneERKNS_10SharedImplINS_15ComplexSelectorEEE T
_ZN4Sass8Extender14mergeExtensionERKNS_9ExtensionES3_ T
_ZN4Sass8Extender15dontTrimComplexEPKNS_15ComplexSelectorES3_m T
_ZN4Sass8Extender15extendOrReplaceERNS_10SharedImplINS_12SelectorListEEERKS3_S6_NS0_10ExtendModeERSt6vectorINS_9BacktraceESaIS9_EE T
_ZN4Sass8Extender16registerSelectorERKNS_10SharedImplINS_12SelectorListEEES5_ T
_ZN4Sass8Extender19extendPseudoComplexERKNS_10SharedImplINS_15ComplexSelectorEEERKNS1_INS_14PseudoSelectorEEERKNS1_INS_12CssMediaRuleEEE T
_ZN4Sass8Extender24extendExistingExtensionsERKSt6vectorINS_9ExtensionESaIS2_EERKSt13unordered_mapINS_10SharedImplINS_14SimpleSelectorEEENS_11ordered_mapINS8_INS_15ComplexSelectorEEES2_NS_7ObjHashENS_11ObjEqualityESaISt4pairIKSD_S2_EEEESE_SF_SaISG_IKSA_SK_EEE T
_ZN4Sass8Extender24extendExistingStyleRulesERKSt13unordered_setINS_10SharedImplINS_12SelectorListEEENS_10ObjPtrHashENS_14ObjPtrEqualityESaIS4_EERKSt13unordered_mapINS2_INS_14SimpleSelectorEEENS_11ordered_mapINS2_INS_15ComplexSelectorEEENS_9ExtensionENS_7ObjHashENS_11ObjEqualityESaISt4pairIKSG_SH_EEEESI_SJ_SaISK_IKSD_SO_EEE T
_ZN4Sass8Extender6extendERNS_10SharedImplINS_12SelectorListEEERKS3_S6_RSt6vectorINS_9BacktraceESaIS8_EE T
_ZN4Sass8Extender7replaceERNS_10SharedImplINS_12SelectorListEEERKS3_S6_RSt6vectorINS_9BacktraceESaIS8_EE T
_ZN4Sass8ExtenderC1ENS0_10ExtendModeERSt6vectorINS_9BacktraceESaIS3_EE T
_ZN4Sass8ExtenderC1ERSt6vectorINS_9BacktraceESaIS2_EE T
_ZN4Sass8ExtenderC2ENS0_10ExtendModeERSt6vectorINS_9BacktraceESaIS3_EE T
_ZN4Sass8ExtenderC2ERSt6vectorINS_9BacktraceESaIS2_EE T
_ZN4Sass8ExtenderD1Ev W
_ZN4Sass8ExtenderD2Ev W
_ZN4Sass8Function4nameB5cxx11Ev T
_ZN4Sass8Function7performEPNS_9OperationINSt7__cxx1112basic_stringIcSt11char_traitsIcESaIcEEEEE W
_ZN4Sass8Function7performEPNS_9OperationIP10Sass_ValueEE W
_ZN4Sass8Function7performEPNS_9OperationIPNS_10ExpressionEEE W
_ZN4Sass8Function7performEPNS_9OperationIPNS_17SupportsConditionEEE W
_ZN4Sass8Function7performEPNS_9OperationIPNS_5ValueEEE W
_ZN4Sass8Function7performEPNS_9OperationIPNS_8AST_NodeEEE W
_ZN4Sass8Function7performEPNS_9OperationIPNS_8SelectorEEE W
_ZN4Sass8Function7performEPNS_9OperationIPNS_9StatementEEE W
_ZN4Sass8Function7performEPNS_9OperationIvEE W
_ZN4Sass8FunctionC1ENS_10SourceSpanENS_10SharedImplINS_10DefinitionEEEb T
_ZN4Sass8FunctionC1EPKS0_ T
_ZN4Sass8FunctionC2ENS_10SourceSpanENS_10SharedImplINS_10DefinitionEEEb T
_ZN4Sass8FunctionC2EPKS0_ T
_ZN4Sass8FunctionD0Ev W
_ZN4Sass8FunctionD1Ev W
_ZN4Sass8FunctionD2Ev W
_ZN4Sass8ImporterC1ENSt7__cxx1112basic_stringIcSt11char_traitsIcESaIcEEES6_ W
_ZN4Sass8ImporterC1EOS0_ W
_ZN4Sass8ImporterC1ERKS0_ W
_ZN4Sass8ImporterC2ENSt7__cxx1112basic_stringIcSt11char_traitsIcESaIcEEES6_ W
_ZN4Sass8ImporterC2EOS0_ W
_ZN4Sass8ImporterC2ERKS0_ W
_ZN4Sass8ImporterD1Ev W
_ZN4Sass8ImporterD2Ev W
_ZN4Sass8ImporteraSEOS0_ W
_ZN4Sass8ImporteraSERKS0_ W
_ZN4Sass8ItplFile13getSourceSpanEv T
_ZN4Sass8ItplFileC1EPKcRKNS_10SourceSpanE T
_ZN4Sass8ItplFileC2EPKcRKNS_10SourceSpanE T
_ZN4Sass8ItplFileD0Ev W
_ZN4Sass8ItplFileD1Ev W
_ZN4Sass8ItplFileD2Ev W
_ZN4Sass8Position3addEPKcS2_ T
_ZN4Sass8PositionC1Em T
_ZN4Sass8PositionC1EmRKNS_6OffsetE T
_ZN4Sass8PositionC1Emm T
_ZN4Sass8PositionC1Emmm T
_ZN4Sass8PositionC2Em T
_ZN4Sass8PositionC2EmRKNS_6OffsetE T
_ZN4Sass8PositionC2Emm T
_ZN4Sass8PositionC2Emmm T
_ZN4Sass8PositionpLERKNS_6OffsetE T
_ZN4Sass8PreValueC1ENS_10SourceSpanEbbbNS_10Expression4TypeE T
_ZN4Sass8PreValueC1EPKS0_ T
_ZN4Sass8PreValueC1ERKS0_ W
_ZN4Sass8PreValueC2ENS_10SourceSpanEbbbNS_10Expression4TypeE T
_ZN4Sass8PreValueC2EPKS0_ T
_ZN4Sass8PreValueC2ERKS0_ W
_ZN4Sass8PreValueD0Ev W
_ZN4Sass8PreValueD1Ev W
_ZN4Sass8PreValueD2Ev W
_ZN4Sass8Prelexer10at_keywordEPKc T
_ZN4Sass8Prelexer10char_rangeILc48ELc57EEEPKcS3_ W
_ZN4Sass8Prelexer10char_rangeILc65ELc70EEEPKcS3_ W
_ZN4Sass8Prelexer10char_rangeILc97ELc102EEEPKcS3_ W
_ZN4Sass8Prelexer10char_rangeILc97ELc122EEEPKcS3_ W
_ZN4Sass8Prelexer10class_charIXadL_ZNS_9Constants10sign_charsEEEEEPKcS4_ W
_ZN4Sass8Prelexer10class_charIXadL_ZNS_9Constants10static_opsEEEEEPKcS4_ W
_ZN4Sass8Prelexer10class_charIXadL_ZNS_9Constants14real_uri_charsEEEEEPKcS4_ W
_ZN4Sass8Prelexer10class_charIXadL_ZNS_9Constants20selector_list_delimsEEEEEPKcS4_ W
_ZN4Sass8Prelexer10class_charIXadL_ZNS_9Constants22selector_lookahead_opsEEEEEPKcS4_ W
_ZN4Sass8Prelexer10class_charIXadL_ZNS_9Constants23complex_selector_delimsEEEEEPKcS4_ W
_ZN4Sass8Prelexer10class_charIXadL_ZNS_9Constants23selector_combinator_opsEEEEEPKcS4_ W
_ZN4Sass8Prelexer10class_charIXadL_ZNS_9Constants8op_charsEEEEEPKcS4_ W
_ZN4Sass8Prelexer10class_nameEPKc T
_ZN4Sass8Prelexer10dash_matchEPKc T
_ZN4Sass8Prelexer10escape_seqEPKc T
_ZN4Sass8Prelexer10find_firstILc58EEEPKcS3_ W
_ZN4Sass8Prelexer10identifierEPKc T
_ZN4Sass8Prelexer10kwd_extendEPKc T
_ZN4Sass8Prelexer10kwd_importEPKc T
_ZN4Sass8Prelexer10non_greedyIXadL_ZNS0_12alternativesIXadL_ZNS0_10class_charIXadL_ZNS_9Constants14real_uri_charsEEEEEPKcS6_EEXadL_ZNS0_13uri_characterES6_EEJXadL_ZNS0_8NONASCIIES6_EEXadL_ZNS0_6ESCAPEES6_EEEEES6_S6_EEXadL_ZNS2_IXadL_ZNS0_15real_uri_suffixES6_EEXadL_ZNS0_7exactlyIXadL_ZNS4_11hash_lbraceEEEEES6_S6_EEJEEES6_S6_EEEES6_S6_ W
_ZN4Sass8Prelexer10non_greedyIXadL_ZNS0_12alternativesIXadL_ZNS0_10class_charIXadL_ZNS_9Constants14real_uri_charsEEEEEPKcS6_EEXadL_ZNS0_13uri_characterES6_EEJXadL_ZNS0_8NONASCIIES6_EEXadL_ZNS0_6ESCAPEES6_EEEEES6_S6_EEXadL_ZNS2_IXadL_ZNS0_8sequenceIXadL_ZNS0_1WES6_EEXadL_ZNS0_7exactlyILc41EEES6_S6_EEJEEES6_S6_EEXadL_ZNS0_7exactlyIXadL_ZNS4_11hash_lbraceEEEEES6_S6_EEJEEES6_S6_EEEES6_S6_ W
_ZN4Sass8Prelexer10non_greedyIXadL_ZNS0_12alternativesIXadL_ZNS0_10class_charIXadL_ZNS_9Constants14real_uri_charsEEEEEPKcS6_EEXadL_ZNS0_13uri_characterES6_EEJXadL_ZNS0_8NONASCIIES6_EEXadL_ZNS0_6ESCAPEES6_EEEEES6_S6_EEXadL_ZNS2_IXadL_ZNS0_8sequenceIXadL_ZNS0_8optionalIXadL_ZNS0_1WES6_EEEES6_S6_EEXadL_ZNS0_7exactlyILc41EEES6_S6_EEJEEES6_S6_EEXadL_ZNS0_9lookaheadIXadL_ZNS0_7exactlyIXadL_ZNS4_11hash_lbraceEEEEES6_S6_EEEES6_S6_EEJEEES6_S6_EEEES6_S6_ W
_ZN4Sass8Prelexer10non_greedyIXadL_ZNS0_12alternativesIXadL_ZNS0_13block_commentEPKcEEXadL_ZNS0_8sequenceIXadL_ZNS0_11interpolantES4_EEXadL_ZNS0_8optionalIXadL_ZNS0_13quoted_stringES4_EEEES4_S4_EEJEEES4_S4_EEJXadL_ZNS0_10identifierES4_EEXadL_ZNS0_8variableES4_EEXadL_ZNS5_IXadL_ZNS0_16parenthese_scopeES4_EEXadL_ZNS0_11interpolantES4_EEJXadL_ZNS6_IXadL_ZNS0_13quoted_stringES4_EEEES4_S4_EEEEES4_S4_EEEEES4_S4_EEXadL_ZNS0_8sequenceIXadL_ZNS2_IXadL_ZNS0_7exactlyILc123EEES4_S4_EEXadL_ZNS8_ILc125EEES4_S4_EEJXadL_ZNS8_ILc59EEES4_S4_EEEEES4_S4_EEEES4_S4_EEEES4_S4_ W
_ZN4Sass8Prelexer10non_greedyIXadL_ZNS0_8any_charEPKcEEXadL_ZNS0_11end_of_lineES3_EEEES3_S3_ W
_ZN4Sass8Prelexer10percentageEPKc T
_ZN4Sass8Prelexer10pseudo_notEPKc T
_ZN4Sass8Prelexer10re_nothingEPKc T
_ZN4Sass8Prelexer10sass_valueEPKc T
_ZN4Sass8Prelexer10uri_prefixEPKc T
_ZN4Sass8Prelexer11class_matchEPKc T
_ZN4Sass8Prelexer11coefficientEPKc T
_ZN4Sass8Prelexer11end_of_fileEPKc T
_ZN4Sass8Prelexer11end_of_lineEPKc T
_ZN4Sass8Prelexer11exact_matchEPKc T
_ZN4Sass8Prelexer11global_flagEPKc T
_ZN4Sass8Prelexer11ie_propertyEPKc T
_ZN4Sass8Prelexer11insensitiveILc105EEEPKcS3_ W
_ZN4Sass8Prelexer11insensitiveIXadL_ZNS_9Constants6of_kwdEEEEEPKcS4_ W
_ZN4Sass8Prelexer11insensitiveIXadL_ZNS_9Constants6or_kwdEEEEEPKcS4_ W
_ZN4Sass8Prelexer11insensitiveIXadL_ZNS_9Constants7and_kwdEEEEEPKcS4_ W
_ZN4Sass8Prelexer11insensitiveIXadL_ZNS_9Constants7not_kwdEEEEEPKcS4_ W
_ZN4Sass8Prelexer11insensitiveIXadL_ZNS_9Constants8only_kwdEEEEEPKcS4_ W
_ZN4Sass8Prelexer11insensitiveIXadL_ZNS_9Constants9using_kwdEEEEEPKcS4_ W
_ZN4Sass8Prelexer11interpolantEPKc T
_ZN4Sass8Prelexer11kwd_at_rootEPKc T
_ZN4Sass8Prelexer11kwd_throughEPKc T
_ZN4Sass8Prelexer11placeholderEPKc T
_ZN4Sass8Prelexer11unicode_seqEPKc T
_ZN4Sass8Prelexer12alternativesIXadL_ZNS0_10char_rangeILc48ELc57EEEPKcS4_EEXadL_ZNS0_5spaceES4_EEJEEES4_S4_ W
_ZN4Sass8Prelexer12alternativesIXadL_ZNS0_10char_rangeILc65ELc70EEEPKcS4_EEXadL_ZNS2_ILc48ELc57EEES4_S4_EEJXadL_ZNS0_5spaceES4_EEEEES4_S4_ W
_ZN4Sass8Prelexer12alternativesIXadL_ZNS0_10char_rangeILc97ELc102EEEPKcS4_EEXadL_ZNS2_ILc65ELc70EEES4_S4_EEJXadL_ZNS2_ILc48ELc57EEES4_S4_EEXadL_ZNS0_5spaceES4_EEEEES4_S4_ W
_ZN4Sass8Prelexer12alternativesIXadL_ZNS0_10char_rangeILc97ELc122EEEPKcS4_EEXadL_ZNS0_7exactlyILc46EEES4_S4_EEJEEES4_S4_ W
_ZN4Sass8Prelexer12alternativesIXadL_ZNS0_10class_charIXadL_ZNS_9Constants14real_uri_charsEEEEEPKcS5_EEXadL_ZNS0_13uri_characterES5_EEJXadL_ZNS0_8NONASCIIES5_EEXadL_ZNS0_6ESCAPEES5_EEEEES5_S5_ W
_ZN4Sass8Prelexer12alternativesIXadL_ZNS0_10class_charIXadL_ZNS_9Constants20selector_list_delimsEEEEEPKcS5_EEEES5_S5_ W
_ZN4Sass8Prelexer12alternativesIXadL_ZNS0_10class_charIXadL_ZNS_9Constants22selector_lookahead_opsEEEEEPKcS5_EEXadL_ZNS2_IXadL_ZNS3_23selector_combinator_opsEEEEES5_S5_EEJXadL_ZNS0_8sequenceIXadL_ZNS0_7exactlyILc40EEES5_S5_EEXadL_ZNS0_15optional_spacesES5_EEJXadL_ZNS0_8optionalIXadL_ZNS0_16re_selector_listES5_EEEES5_S5_EEXadL_ZNS0_15optional_spacesES5_EEXadL_ZNS7_ILc41EEES5_S5_EEEEES5_S5_EEXadL_ZNS1_IXadL_ZNS0_11exact_matchES5_EEXadL_ZNS0_11class_matchES5_EEJXadL_ZNS0_10dash_matchES5_EEXadL_ZNS0_12prefix_matchES5_EEXadL_ZNS0_12suffix_matchES5_EEXadL_ZNS0_15substring_matchES5_EEEEES5_S5_EEXadL_ZNS6_IXadL_ZNS8_IXadL_ZNS0_16namespace_schemaES5_EEEES5_S5_EEXadL_ZNS1_IXadL_ZNS6_IXadL_ZNS7_ILc35EEES5_S5_EEXadL_ZNS0_6negateIXadL_ZNS7_ILc123EEES5_S5_EEEES5_S5_EEJEEES5_S5_EEXadL_ZNS7_ILc46EEES5_S5_EEJXadL_ZNS6_IXadL_ZNS8_IXadL_ZNS0_13pseudo_prefixES5_EEEES5_S5_EEXadL_ZNS9_IXadL_ZNS0_10uri_prefixES5_EEEES5_S5_EEJEEES5_S5_EEEEES5_S5_EEJXadL_ZNS0_8one_plusIXadL_ZNS6_IXadL_ZNS0_9zero_plusIXadL_ZNS6_IXadL_ZNS7_ILc45EEES5_S5_EEXadL_ZNS0_15optional_spacesES5_EEJEEES5_S5_EEEES5_S5_EEXadL_ZNS1_IXadL_ZNS0_12kwd_optionalES5_EEXadL_ZNS7_ILc42EEES5_S5_EEJXadL_ZNS0_13quoted_stringES5_EEXadL_ZNS0_11interpolantES5_EEXadL_ZNS0_10identifierES5_EEXadL_ZNS0_8variableES5_EEXadL_ZNS0_10percentageES5_EEXadL_ZNS0_8binomialES5_EEXadL_ZNS0_9dimensionES5_EEXadL_ZNS0_5alnumES5_EEEEES5_S5_EEJEEES5_S5_EEEES5_S5_EEXadL_ZNSB_IXadL_ZNS7_ILc45EEES5_S5_EEEES5_S5_EEEEES5_S5_EEEEES5_S5_ W
_ZN4Sass8Prelexer12alternativesIXadL_ZNS0_10class_charIXadL_ZNS_9Constants23selector_combinator_opsEEEEEPKcS5_EEXadL_ZNS0_8sequenceIXadL_ZNS0_7exactlyILc40EEES5_S5_EEXadL_ZNS0_15optional_spacesES5_EEJXadL_ZNS0_8optionalIXadL_ZNS0_16re_selector_listES5_EEEES5_S5_EEXadL_ZNS0_15optional_spacesES5_EEXadL_ZNS7_ILc41EEES5_S5_EEEEES5_S5_EEJXadL_ZNS1_IXadL_ZNS0_11exact_matchES5_EEXadL_ZNS0_11class_matchES5_EEJXadL_ZNS0_10dash_matchES5_EEXadL_ZNS0_12prefix_matchES5_EEXadL_ZNS0_12suffix_matchES5_EEXadL_ZNS0_15substring_matchES5_EEEEES5_S5_EEXadL_ZNS6_IXadL_ZNS8_IXadL_ZNS0_16namespace_schemaES5_EEEES5_S5_EEXadL_ZNS1_IXadL_ZNS6_IXadL_ZNS7_ILc35EEES5_S5_EEXadL_ZNS0_6negateIXadL_ZNS7_ILc123EEES5_S5_EEEES5_S5_EEJEEES5_S5_EEXadL_ZNS7_ILc46EEES5_S5_EEJXadL_ZNS6_IXadL_ZNS8_IXadL_ZNS0_13pseudo_prefixES5_EEEES5_S5_EEXadL_ZNS9_IXadL_ZNS0_10uri_prefixES5_EEEES5_S5_EEJEEES5_S5_EEEEES5_S5_EEJXadL_ZNS0_8one_plusIXadL_ZNS6_IXadL_ZNS0_9zero_plusIXadL_ZNS6_IXadL_ZNS7_ILc45EEES5_S5_EEXadL_ZNS0_15optional_spacesES5_EEJEEES5_S5_EEEES5_S5_EEXadL_ZNS1_IXadL_ZNS0_12kwd_optionalES5_EEXadL_ZNS7_ILc42EEES5_S5_EEJXadL_ZNS0_13quoted_stringES5_EEXadL_ZNS0_11interpolantES5_EEXadL_ZNS0_10identifierES5_EEXadL_ZNS0_8variableES5_EEXadL_ZNS0_10percentageES5_EEXadL_ZNS0_8binomialES5_EEXadL_ZNS0_9dimensionES5_EEXadL_ZNS0_5alnumES5_EEEEES5_S5_EEJEEES5_S5_EEEES5_S5_EEXadL_ZNSB_IXadL_ZNS7_ILc45EEES5_S5_EEEES5_S5_EEEEES5_S5_EEEEES5_S5_ W
_ZN4Sass8Prelexer12alternativesIXadL_ZNS0_10dash_matchEPKcEEXadL_ZNS0_12prefix_matchES3_EEJXadL_ZNS0_12suffix_matchES3_EEXadL_ZNS0_15substring_matchES3_EEEEES3_S3_ W
_ZN4Sass8Prelexer12alternativesIXadL_ZNS0_10escape_seqEPKcEEEES3_S3_ W
_ZN4Sass8Prelexer12alternativesIXadL_ZNS0_10escape_seqEPKcEEXadL_ZNS0_11unicode_seqES3_EEJXadL_ZNS0_11interpolantES3_EEXadL_ZNS0_12any_char_butILc34EEES3_S3_EEEEES3_S3_ W
_ZN4Sass8Prelexer12alternativesIXadL_ZNS0_10escape_seqEPKcEEXadL_ZNS0_11unicode_seqES3_EEJXadL_ZNS0_11interpolantES3_EEXadL_ZNS0_12any_char_butILc39EEES3_S3_EEEEES3_S3_ W
_ZN4Sass8Prelexer12alternativesIXadL_ZNS0_10escape_seqEPKcEEXadL_ZNS0_7exactlyILc95EEES3_S3_EEJEEES3_S3_ W
_ZN4Sass8Prelexer12alternativesIXadL_ZNS0_10identifierEPKcEEEES3_S3_ W
_ZN4Sass8Prelexer12alternativesIXadL_ZNS0_10identifierEPKcEEXadL_ZNS0_10percentageES3_EEJXadL_ZNS0_3hexES3_EEEEES3_S3_ W
_ZN4Sass8Prelexer12alternativesIXadL_ZNS0_10identifierEPKcEEXadL_ZNS0_10percentageES3_EEJXadL_ZNS0_3hexES3_EEXadL_ZNS0_9dimensionES3_EEXadL_ZNS0_6numberES3_EEEEES3_S3_ W
_ZN4Sass8Prelexer12alternativesIXadL_ZNS0_10identifierEPKcEEXadL_ZNS0_10percentageES3_EEJXadL_ZNS0_9dimensionES3_EEXadL_ZNS0_8variableES3_EEXadL_ZNS0_5alnumES3_EEXadL_ZNS0_8sequenceIXadL_ZNS0_7exactlyILc92EEES3_S3_EEXadL_ZNS0_8any_charES3_EEJEEES3_S3_EEEEES3_S3_ W
_ZN4Sass8Prelexer12alternativesIXadL_ZNS0_10identifierEPKcEEXadL_ZNS0_11interpolantES3_EEJEEES3_S3_ W
_ZN4Sass8Prelexer12alternativesIXadL_ZNS0_10identifierEPKcEEXadL_ZNS0_13quoted_stringES3_EEJXadL_ZNS0_6numberES3_EEXadL_ZNS0_3hexES3_EEXadL_ZNS0_4hexaES3_EEEEES3_S3_ W
_ZN4Sass8Prelexer12alternativesIXadL_ZNS0_10identifierEPKcEEXadL_ZNS0_13quoted_stringES3_EEJXadL_ZNS0_6numberES3_EEXadL_ZNS0_3hexES3_EEXadL_ZNS0_4hexaES3_EEXadL_ZNS0_8sequenceIXadL_ZNS0_7exactlyILc40EEES3_S3_EEXadL_ZNS0_16skip_over_scopesIXadL_ZNS5_ILc40EEES3_S3_EEXadL_ZNS5_ILc41EEES3_S3_EEEES3_S3_EEJEEES3_S3_EEEEES3_S3_ W
_ZN4Sass8Prelexer12alternativesIXadL_ZNS0_10identifierEPKcEEXadL_ZNS0_13static_stringES3_EEJXadL_ZNS0_10percentageES3_EEXadL_ZNS0_3hexES3_EEXadL_ZNS0_4hexaES3_EEXadL_ZNS0_7exactlyILc124EEES3_S3_EEXadL_ZNS0_8sequenceIXadL_ZNS0_6numberES3_EEXadL_ZNS0_15unit_identifierES3_EEJEEES3_S3_EEXadL_ZNS0_6numberES3_EEXadL_ZNS5_IXadL_ZNS4_ILc33EEES3_S3_EEXadL_ZNS0_4wordIXadL_ZNS_9Constants13important_kwdEEEEES3_S3_EEJEEES3_S3_EEEEES3_S3_ W
_ZN4Sass8Prelexer12alternativesIXadL_ZNS0_10identifierEPKcEEXadL_ZNS0_7exactlyILc42EEES3_S3_EEJXadL_ZNS0_7exactlyIXadL_ZNS_9Constants8warn_kwdEEEEES3_S3_EEXadL_ZNS5_IXadL_ZNS6_9error_kwdEEEEES3_S3_EEXadL_ZNS5_IXadL_ZNS6_9debug_kwdEEEEES3_S3_EEEEES3_S3_ W
_ZN4Sass8Prelexer12alternativesIXadL_ZNS0_10identifierEPKcEEXadL_ZNS0_7exactlyILc43EEES3_S3_EEJXadL_ZNS4_ILc45EEES3_S3_EEEEES3_S3_ W
_ZN4Sass8Prelexer12alternativesIXadL_ZNS0_10identifierEPKcEEXadL_ZNS0_7exactlyILc45EEES3_S3_EEJEEES3_S3_ W
_ZN4Sass8Prelexer12alternativesIXadL_ZNS0_10identifierEPKcEEXadL_ZNS0_8variableES3_EEJXadL_ZNS0_10percentageES3_EEXadL_ZNS0_8binomialES3_EEXadL_ZNS0_9dimensionES3_EEXadL_ZNS0_5alnumES3_EEEEES3_S3_ W
_ZN4Sass8Prelexer12alternativesIXadL_ZNS0_10identifierEPKcEEXadL_ZNS0_8variableES3_EEJXadL_ZNS0_8sequenceIXadL_ZNS0_16parenthese_scopeES3_EEXadL_ZNS0_11interpolantES3_EEJXadL_ZNS0_8optionalIXadL_ZNS0_13quoted_stringES3_EEEES3_S3_EEEEES3_S3_EEEEES3_S3_ W
_ZN4Sass8Prelexer12alternativesIXadL_ZNS0_10non_greedyIXadL_ZNS0_12alternativesIXadL_ZNS0_10class_charIXadL_ZNS_9Constants14real_uri_charsEEEEEPKcS7_EEXadL_ZNS0_13uri_characterES7_EEJXadL_ZNS0_8NONASCIIES7_EEXadL_ZNS0_6ESCAPEES7_EEEEES7_S7_EEXadL_ZNS3_IXadL_ZNS0_8sequenceIXadL_ZNS0_1WES7_EEXadL_ZNS0_7exactlyILc41EEES7_S7_EEJEEES7_S7_EEXadL_ZNS0_7exactlyIXadL_ZNS5_11hash_lbraceEEEEES7_S7_EEJEEES7_S7_EEEES7_S7_EEEES7_S7_ W
_ZN4Sass8Prelexer12alternativesIXadL_ZNS0_10percentageEPKcEEXadL_ZNS0_3hexES3_EEJEEES3_S3_ W
_ZN4Sass8Prelexer12alternativesIXadL_ZNS0_10percentageEPKcEEXadL_ZNS0_3hexES3_EEJXadL_ZNS0_4hexaES3_EEXadL_ZNS0_7exactlyILc124EEES3_S3_EEXadL_ZNS0_8sequenceIXadL_ZNS0_6numberES3_EEXadL_ZNS0_15unit_identifierES3_EEJEEES3_S3_EEXadL_ZNS0_6numberES3_EEXadL_ZNS5_IXadL_ZNS4_ILc33EEES3_S3_EEXadL_ZNS0_4wordIXadL_ZNS_9Constants13important_kwdEEEEES3_S3_EEJEEES3_S3_EEEEES3_S3_ W
_ZN4Sass8Prelexer12alternativesIXadL_ZNS0_10percentageEPKcEEXadL_ZNS0_3hexES3_EEJXadL_ZNS0_9dimensionES3_EEXadL_ZNS0_6numberES3_EEEEES3_S3_ W
_ZN4Sass8Prelexer12alternativesIXadL_ZNS0_10percentageEPKcEEXadL_ZNS0_6numberES3_EEJXadL_ZNS0_17identifier_alnumsES3_EEEEES3_S3_ W
_ZN4Sass8Prelexer12alternativesIXadL_ZNS0_10percentageEPKcEEXadL_ZNS0_8binomialES3_EEJXadL_ZNS0_9dimensionES3_EEXadL_ZNS0_5alnumES3_EEEEES3_S3_ W
_ZN4Sass8Prelexer12alternativesIXadL_ZNS0_10percentageEPKcEEXadL_ZNS0_9dimensionES3_EEJXadL_ZNS0_8variableES3_EEXadL_ZNS0_5alnumES3_EEXadL_ZNS0_8sequenceIXadL_ZNS0_7exactlyILc92EEES3_S3_EEXadL_ZNS0_8any_charES3_EEJEEES3_S3_EEEEES3_S3_ W
_ZN4Sass8Prelexer12alternativesIXadL_ZNS0_11class_matchEPKcEEXadL_ZNS0_10dash_matchES3_EEJXadL_ZNS0_12prefix_matchES3_EEXadL_ZNS0_12suffix_matchES3_EEXadL_ZNS0_15substring_matchES3_EEEEES3_S3_ W
_ZN4Sass8Prelexer12alternativesIXadL_ZNS0_11end_of_fileEPKcEEEES3_S3_ W
_ZN4Sass8Prelexer12alternativesIXadL_ZNS0_11end_of_fileEPKcEEXadL_ZNS0_7exactlyILc123EEES3_S3_EEJEEES3_S3_ W
_ZN4Sass8Prelexer12alternativesIXadL_ZNS0_11end_of_fileEPKcEEXadL_ZNS0_7exactlyILc123EEES3_S3_EEJXadL_ZNS4_ILc44EEES3_S3_EEEEES3_S3_ W
_ZN4Sass8Prelexer12alternativesIXadL_ZNS0_11end_of_fileEPKcEEXadL_ZNS0_7exactlyIXadL_ZNS_9Constants8ellipsisEEEEES3_S3_EEJXadL_ZNS0_12default_flagES3_EEXadL_ZNS0_11global_flagES3_EEEEES3_S3_ W
_ZN4Sass8Prelexer12alternativesIXadL_ZNS0_11exact_matchEPKcEEXadL_ZNS0_11class_matchES3_EEJXadL_ZNS0_10dash_matchES3_EEXadL_ZNS0_12prefix_matchES3_EEXadL_ZNS0_12suffix_matchES3_EEXadL_ZNS0_15substring_matchES3_EEEEES3_S3_ W
_ZN4Sass8Prelexer12alternativesIXadL_ZNS0_11global_flagEPKcEEEES3_S3_ W
_ZN4Sass8Prelexer12alternativesIXadL_ZNS0_11interpolantEPKcEEEES3_S3_ W
_ZN4Sass8Prelexer12alternativesIXadL_ZNS0_11interpolantEPKcEEXadL_ZNS0_10identifierES3_EEJXadL_ZNS0_10percentageES3_EEXadL_ZNS0_9dimensionES3_EEXadL_ZNS0_8variableES3_EEXadL_ZNS0_5alnumES3_EEXadL_ZNS0_8sequenceIXadL_ZNS0_7exactlyILc92EEES3_S3_EEXadL_ZNS0_8any_charES3_EEJEEES3_S3_EEEEES3_S3_ W
_ZN4Sass8Prelexer12alternativesIXadL_ZNS0_11interpolantEPKcEEXadL_ZNS0_10identifierES3_EEJXadL_ZNS0_8variableES3_EEXadL_ZNS0_10percentageES3_EEXadL_ZNS0_8binomialES3_EEXadL_ZNS0_9dimensionES3_EEXadL_ZNS0_5alnumES3_EEEEES3_S3_ W
_ZN4Sass8Prelexer12alternativesIXadL_ZNS0_11interpolantEPKcEEXadL_ZNS0_12any_char_butILc34EEES3_S3_EEJEEES3_S3_ W
_ZN4Sass8Prelexer12alternativesIXadL_ZNS0_11interpolantEPKcEEXadL_ZNS0_12any_char_butILc39EEES3_S3_EEJEEES3_S3_ W
_ZN4Sass8Prelexer12alternativesIXadL_ZNS0_11interpolantEPKcEEXadL_ZNS0_5spaceES3_EEJXadL_ZNS0_8sequenceIXadL_ZNS0_7exactlyILc117EEES3_S3_EEXadL_ZNS5_ILc114EEES3_S3_EEJXadL_ZNS5_ILc108EEES3_S3_EEXadL_ZNS5_ILc40EEES3_S3_EEXadL_ZNS0_9zero_plusIXadL_ZNS1_IXadL_ZNS0_10class_charIXadL_ZNS_9Constants14real_uri_charsEEEEES3_S3_EEXadL_ZNS0_13uri_characterES3_EEJXadL_ZNS0_8NONASCIIES3_EEXadL_ZNS0_6ESCAPEES3_EEEEES3_S3_EEEES3_S3_EEXadL_ZNS5_ILc41EEES3_S3_EEEEES3_S3_EEEEES3_S3_ W
_ZN4Sass8Prelexer12alternativesIXadL_ZNS0_11unicode_seqEPKcEEXadL_ZNS0_11interpolantES3_EEJXadL_ZNS0_12any_char_butILc34EEES3_S3_EEEEES3_S3_ W
_ZN4Sass8Prelexer12alternativesIXadL_ZNS0_11unicode_seqEPKcEEXadL_ZNS0_11interpolantES3_EEJXadL_ZNS0_12any_char_butILc39EEES3_S3_EEEEES3_S3_ W
_ZN4Sass8Prelexer12alternativesIXadL_ZNS0_11unicode_seqEPKcEEXadL_ZNS0_5alnumES3_EEJXadL_ZNS0_8nonasciiES3_EEXadL_ZNS0_7exactlyILc45EEES3_S3_EEXadL_ZNS4_ILc95EEES3_S3_EEXadL_ZNS0_8NONASCIIES3_EEXadL_ZNS0_6ESCAPEES3_EEXadL_ZNS0_10escape_seqES3_EEEEES3_S3_ W
_ZN4Sass8Prelexer12alternativesIXadL_ZNS0_11unicode_seqEPKcEEXadL_ZNS0_5alphaES3_EEJXadL_ZNS0_8nonasciiES3_EEXadL_ZNS0_7exactlyILc45EEES3_S3_EEXadL_ZNS4_ILc95EEES3_S3_EEXadL_ZNS0_8NONASCIIES3_EEXadL_ZNS0_6ESCAPEES3_EEXadL_ZNS0_10escape_seqES3_EEEEES3_S3_ W
_ZN4Sass8Prelexer12alternativesIXadL_ZNS0_12any_char_butILc34EEEPKcS4_EEEES4_S4_ W
_ZN4Sass8Prelexer12alternativesIXadL_ZNS0_12any_char_butILc39EEEPKcS4_EEEES4_S4_ W
_ZN4Sass8Prelexer12alternativesIXadL_ZNS0_12default_flagEPKcEEXadL_ZNS0_11global_flagES3_EEJEEES3_S3_ W
_ZN4Sass8Prelexer12alternativesIXadL_ZNS0_12delimited_byIXadL_ZNS_9Constants10slash_starEEEXadL_ZNS3_10star_slashEEELb0EEEPKcS5_EEEES5_S5_ W
_ZN4Sass8Prelexer12alternativesIXadL_ZNS0_12kwd_optionalEPKcEEXadL_ZNS0_13quoted_stringES3_EEJXadL_ZNS0_11interpolantES3_EEXadL_ZNS0_10identifierES3_EEXadL_ZNS0_10percentageES3_EEXadL_ZNS0_9dimensionES3_EEXadL_ZNS0_8variableES3_EEXadL_ZNS0_5alnumES3_EEXadL_ZNS0_8sequenceIXadL_ZNS0_7exactlyILc92EEES3_S3_EEXadL_ZNS0_8any_charES3_EEJEEES3_S3_EEEEES3_S3_ W
_ZN4Sass8Prelexer12alternativesIXadL_ZNS0_12kwd_optionalEPKcEEXadL_ZNS0_7exactlyILc42EEES3_S3_EEJXadL_ZNS0_13quoted_stringES3_EEXadL_ZNS0_11interpolantES3_EEXadL_ZNS0_10identifierES3_EEXadL_ZNS0_8variableES3_EEXadL_ZNS0_10percentageES3_EEXadL_ZNS0_8binomialES3_EEXadL_ZNS0_9dimensionES3_EEXadL_ZNS0_5alnumES3_EEEEES3_S3_ W
_ZN4Sass8Prelexer12alternativesIXadL_ZNS0_12line_commentEPKcEEEES3_S3_ W
_ZN4Sass8Prelexer12alternativesIXadL_ZNS0_12line_commentEPKcEEXadL_ZNS0_11interpolantES3_EEJXadL_ZNS0_5spaceES3_EEXadL_ZNS0_8sequenceIXadL_ZNS0_7exactlyILc117EEES3_S3_EEXadL_ZNS5_ILc114EEES3_S3_EEJXadL_ZNS5_ILc108EEES3_S3_EEXadL_ZNS5_ILc40EEES3_S3_EEXadL_ZNS0_9zero_plusIXadL_ZNS1_IXadL_ZNS0_10class_charIXadL_ZNS_9Constants14real_uri_charsEEEEES3_S3_EEXadL_ZNS0_13uri_characterES3_EEJXadL_ZNS0_8NONASCIIES3_EEXadL_ZNS0_6ESCAPEES3_EEEEES3_S3_EEEES3_S3_EEXadL_ZNS5_ILc41EEES3_S3_EEEEES3_S3_EEEEES3_S3_ W
_ZN4Sass8Prelexer12alternativesIXadL_ZNS0_12line_commentEPKcEEXadL_ZNS0_13block_commentES3_EEJEEES3_S3_ W
_ZN4Sass8Prelexer12alternativesIXadL_ZNS0_12line_commentEPKcEEXadL_ZNS0_13block_commentES3_EEJXadL_ZNS0_12delimited_byIXadL_ZNS_9Constants10slash_starEEEXadL_ZNS5_10star_slashEEELb0EEES3_S3_EEEEES3_S3_ W
_ZN4Sass8Prelexer12alternativesIXadL_ZNS0_12line_commentEPKcEEXadL_ZNS0_27schema_reference_combinatorES3_EEJXadL_ZNS0_10class_charIXadL_ZNS_9Constants22selector_lookahead_opsEEEEES3_S3_EEXadL_ZNS4_IXadL_ZNS5_23selector_combinator_opsEEEEES3_S3_EEXadL_ZNS0_8sequenceIXadL_ZNS0_7exactlyILc40EEES3_S3_EEXadL_ZNS0_15optional_spacesES3_EEJXadL_ZNS0_8optionalIXadL_ZNS0_16re_selector_listES3_EEEES3_S3_EEXadL_ZNS0_15optional_spacesES3_EEXadL_ZNS7_ILc41EEES3_S3_EEEEES3_S3_EEXadL_ZNS1_IXadL_ZNS0_11exact_matchES3_EEXadL_ZNS0_11class_matchES3_EEJXadL_ZNS0_10dash_matchES3_EEXadL_ZNS0_12prefix_matchES3_EEXadL_ZNS0_12suffix_matchES3_EEXadL_ZNS0_15substring_matchES3_EEEEES3_S3_EEXadL_ZNS6_IXadL_ZNS8_IXadL_ZNS0_16namespace_schemaES3_EEEES3_S3_EEXadL_ZNS1_IXadL_ZNS6_IXadL_ZNS7_ILc35EEES3_S3_EEXadL_ZNS0_6negateIXadL_ZNS7_ILc123EEES3_S3_EEEES3_S3_EEJEEES3_S3_EEXadL_ZNS7_ILc46EEES3_S3_EEJXadL_ZNS6_IXadL_ZNS8_IXadL_ZNS0_13pseudo_prefixES3_EEEES3_S3_EEXadL_ZNS9_IXadL_ZNS0_10uri_prefixES3_EEEES3_S3_EEJEEES3_S3_EEEEES3_S3_EEJXadL_ZNS0_8one_plusIXadL_ZNS6_IXadL_ZNS0_9zero_plusIXadL_ZNS6_IXadL_ZNS7_ILc45EEES3_S3_EEXadL_ZNS0_15optional_spacesES3_EEJEEES3_S3_EEEES3_S3_EEXadL_ZNS1_IXadL_ZNS0_12kwd_optionalES3_EEXadL_ZNS7_ILc42EEES3_S3_EEJXadL_ZNS0_13quoted_stringES3_EEXadL_ZNS0_11interpolantES3_EEXadL_ZNS0_10identifierES3_EEXadL_ZNS0_8variableES3_EEXadL_ZNS0_10percentageES3_EEXadL_ZNS0_8binomialES3_EEXadL_ZNS0_9dimensionES3_EEXadL_ZNS0_5alnumES3_EEEEES3_S3_EEJEEES3_S3_EEEES3_S3_EEXadL_ZNSB_IXadL_ZNS7_ILc45EEES3_S3_EEEES3_S3_EEEEES3_S3_EEEEES3_S3_ W
_ZN4Sass8Prelexer12alternativesIXadL_ZNS0_12minmax_rangeILm1ELm3EXadL_ZNS0_6xdigitEPKcEEEES4_S4_EEXadL_ZNS0_8any_charES4_EEJEEES4_S4_ W
_ZN4Sass8Prelexer12alternativesIXadL_ZNS0_12prefix_matchEPKcEEXadL_ZNS0_12suffix_matchES3_EEJXadL_ZNS0_15substring_matchES3_EEEEES3_S3_ W
_ZN4Sass8Prelexer12alternativesIXadL_ZNS0_12suffix_matchEPKcEEXadL_ZNS0_15substring_matchES3_EEJEEES3_S3_ W
_ZN4Sass8Prelexer12alternativesIXadL_ZNS0_13block_commentEPKcEEEES3_S3_ W
_ZN4Sass8Prelexer12alternativesIXadL_ZNS0_13block_commentEPKcEEXadL_ZNS0_12delimited_byIXadL_ZNS_9Constants10slash_starEEEXadL_ZNS5_10star_slashEEELb0EEES3_S3_EEJEEES3_S3_ W
_ZN4Sass8Prelexer12alternativesIXadL_ZNS0_13block_commentEPKcEEXadL_ZNS0_12line_commentES3_EEJXadL_ZNS0_11interpolantES3_EEXadL_ZNS0_5spaceES3_EEXadL_ZNS0_8sequenceIXadL_ZNS0_7exactlyILc117EEES3_S3_EEXadL_ZNS5_ILc114EEES3_S3_EEJXadL_ZNS5_ILc108EEES3_S3_EEXadL_ZNS5_ILc40EEES3_S3_EEXadL_ZNS0_9zero_plusIXadL_ZNS1_IXadL_ZNS0_10class_charIXadL_ZNS_9Constants14real_uri_charsEEEEES3_S3_EEXadL_ZNS0_13uri_characterES3_EEJXadL_ZNS0_8NONASCIIES3_EEXadL_ZNS0_6ESCAPEES3_EEEEES3_S3_EEEES3_S3_EEXadL_ZNS5_ILc41EEES3_S3_EEEEES3_S3_EEEEES3_S3_ W
_ZN4Sass8Prelexer12alternativesIXadL_ZNS0_13block_commentEPKcEEXadL_ZNS0_12line_commentES3_EEJXadL_ZNS0_27schema_reference_combinatorES3_EEXadL_ZNS0_10class_charIXadL_ZNS_9Constants22selector_lookahead_opsEEEEES3_S3_EEXadL_ZNS4_IXadL_ZNS5_23selector_combinator_opsEEEEES3_S3_EEXadL_ZNS0_8sequenceIXadL_ZNS0_7exactlyILc40EEES3_S3_EEXadL_ZNS0_15optional_spacesES3_EEJXadL_ZNS0_8optionalIXadL_ZNS0_16re_selector_listES3_EEEES3_S3_EEXadL_ZNS0_15optional_spacesES3_EEXadL_ZNS7_ILc41EEES3_S3_EEEEES3_S3_EEXadL_ZNS1_IXadL_ZNS0_11exact_matchES3_EEXadL_ZNS0_11class_matchES3_EEJXadL_ZNS0_10dash_matchES3_EEXadL_ZNS0_12prefix_matchES3_EEXadL_ZNS0_12suffix_matchES3_EEXadL_ZNS0_15substring_matchES3_EEEEES3_S3_EEXadL_ZNS6_IXadL_ZNS8_IXadL_ZNS0_16namespace_schemaES3_EEEES3_S3_EEXadL_ZNS1_IXadL_ZNS6_IXadL_ZNS7_ILc35EEES3_S3_EEXadL_ZNS0_6negateIXadL_ZNS7_ILc123EEES3_S3_EEEES3_S3_EEJEEES3_S3_EEXadL_ZNS7_ILc46EEES3_S3_EEJXadL_ZNS6_IXadL_ZNS8_IXadL_ZNS0_13pseudo_prefixES3_EEEES3_S3_EEXadL_ZNS9_IXadL_ZNS0_10uri_prefixES3_EEEES3_S3_EEJEEES3_S3_EEEEES3_S3_EEJXadL_ZNS0_8one_plusIXadL_ZNS6_IXadL_ZNS0_9zero_plusIXadL_ZNS6_IXadL_ZNS7_ILc45EEES3_S3_EEXadL_ZNS0_15optional_spacesES3_EEJEEES3_S3_EEEES3_S3_EEXadL_ZNS1_IXadL_ZNS0_12kwd_optionalES3_EEXadL_ZNS7_ILc42EEES3_S3_EEJXadL_ZNS0_13quoted_stringES3_EEXadL_ZNS0_11interpolantES3_EEXadL_ZNS0_10identifierES3_EEXadL_ZNS0_8variableES3_EEXadL_ZNS0_10percentageES3_EEXadL_ZNS0_8binomialES3_EEXadL_ZNS0_9dimensionES3_EEXadL_ZNS0_5alnumES3_EEEEES3_S3_EEJEEES3_S3_EEEES3_S3_EEXadL_ZNSB_IXadL_ZNS7_ILc45EEES3_S3_EEEES3_S3_EEEEES3_S3_EEEEES3_S3_ W
_ZN4Sass8Prelexer12alternativesIXadL_ZNS0_13block_commentEPKcEEXadL_ZNS0_8sequenceIXadL_ZNS0_11interpolantES3_EEXadL_ZNS0_8optionalIXadL_ZNS0_13quoted_stringES3_EEEES3_S3_EEJEEES3_S3_EEJXadL_ZNS0_10identifierES3_EEXadL_ZNS0_8variableES3_EEXadL_ZNS4_IXadL_ZNS0_16parenthese_scopeES3_EEXadL_ZNS0_11interpolantES3_EEJXadL_ZNS5_IXadL_ZNS0_13quoted_stringES3_EEEES3_S3_EEEEES3_S3_EEEEES3_S3_ W
_ZN4Sass8Prelexer12alternativesIXadL_ZNS0_13ie_expressionEPKcEEXadL_ZNS0_9ie_progidES3_EEJEEES3_S3_ W
_ZN4Sass8Prelexer12alternativesIXadL_ZNS0_13quoted_stringEPKcEEXadL_ZNS0_10identifierES3_EEJXadL_ZNS0_10percentageES3_EEXadL_ZNS0_3hexES3_EEEEES3_S3_ W
_ZN4Sass8Prelexer12alternativesIXadL_ZNS0_13quoted_stringEPKcEEXadL_ZNS0_10identifierES3_EEJXadL_ZNS0_10percentageES3_EEXadL_ZNS0_3hexES3_EEXadL_ZNS0_9dimensionES3_EEXadL_ZNS0_6numberES3_EEEEES3_S3_ W
_ZN4Sass8Prelexer12alternativesIXadL_ZNS0_13quoted_stringEPKcEEXadL_ZNS0_10non_greedyIXadL_ZNS1_IXadL_ZNS0_10class_charIXadL_ZNS_9Constants14real_uri_charsEEEEES3_S3_EEXadL_ZNS0_13uri_characterES3_EEJXadL_ZNS0_8NONASCIIES3_EEXadL_ZNS0_6ESCAPEES3_EEEEES3_S3_EEXadL_ZNS1_IXadL_ZNS0_8sequenceIXadL_ZNS0_1WES3_EEXadL_ZNS0_7exactlyILc41EEES3_S3_EEJEEES3_S3_EEXadL_ZNS0_7exactlyIXadL_ZNS6_11hash_lbraceEEEEES3_S3_EEJEEES3_S3_EEEES3_S3_EEJEEES3_S3_ W
_ZN4Sass8Prelexer12alternativesIXadL_ZNS0_13quoted_stringEPKcEEXadL_ZNS0_11interpolantES3_EEJXadL_ZNS0_10identifierES3_EEXadL_ZNS0_10percentageES3_EEXadL_ZNS0_9dimensionES3_EEXadL_ZNS0_8variableES3_EEXadL_ZNS0_5alnumES3_EEXadL_ZNS0_8sequenceIXadL_ZNS0_7exactlyILc92EEES3_S3_EEXadL_ZNS0_8any_charES3_EEJEEES3_S3_EEEEES3_S3_ W
_ZN4Sass8Prelexer12alternativesIXadL_ZNS0_13quoted_stringEPKcEEXadL_ZNS0_11interpolantES3_EEJXadL_ZNS0_10identifierES3_EEXadL_ZNS0_8variableES3_EEXadL_ZNS0_10percentageES3_EEXadL_ZNS0_8binomialES3_EEXadL_ZNS0_9dimensionES3_EEXadL_ZNS0_5alnumES3_EEEEES3_S3_ W
_ZN4Sass8Prelexer12alternativesIXadL_ZNS0_13quoted_stringEPKcEEXadL_ZNS0_6numberES3_EEJXadL_ZNS0_3hexES3_EEXadL_ZNS0_4hexaES3_EEEEES3_S3_ W
_ZN4Sass8Prelexer12alternativesIXadL_ZNS0_13quoted_stringEPKcEEXadL_ZNS0_6numberES3_EEJXadL_ZNS0_3hexES3_EEXadL_ZNS0_4hexaES3_EEXadL_ZNS0_8sequenceIXadL_ZNS0_7exactlyILc40EEES3_S3_EEXadL_ZNS0_16skip_over_scopesIXadL_ZNS5_ILc40EEES3_S3_EEXadL_ZNS5_ILc41EEES3_S3_EEEES3_S3_EEJEEES3_S3_EEEEES3_S3_ W
_ZN4Sass8Prelexer12alternativesIXadL_ZNS0_13quoted_stringEPKcEEXadL_ZNS0_7exactlyILc45EEES3_S3_EEJEEES3_S3_ W
_ZN4Sass8Prelexer12alternativesIXadL_ZNS0_13static_stringEPKcEEXadL_ZNS0_10percentageES3_EEJXadL_ZNS0_3hexES3_EEXadL_ZNS0_4hexaES3_EEXadL_ZNS0_7exactlyILc124EEES3_S3_EEXadL_ZNS0_8sequenceIXadL_ZNS0_6numberES3_EEXadL_ZNS0_15unit_identifierES3_EEJEEES3_S3_EEXadL_ZNS0_6numberES3_EEXadL_ZNS5_IXadL_ZNS4_ILc33EEES3_S3_EEXadL_ZNS0_4wordIXadL_ZNS_9Constants13important_kwdEEEEES3_S3_EEJEEES3_S3_EEEEES3_S3_ W
_ZN4Sass8Prelexer12alternativesIXadL_ZNS0_13static_stringEPKcEEXadL_ZNS0_8real_uriES3_EEJXadL_ZNS0_13block_commentES3_EEEEES3_S3_ W
_ZN4Sass8Prelexer12alternativesIXadL_ZNS0_13type_selectorEPKcEEXadL_ZNS0_9universalES3_EEJXadL_ZNS0_9dimensionES3_EEXadL_ZNS0_10percentageES3_EEXadL_ZNS0_6numberES3_EEXadL_ZNS0_17identifier_alnumsES3_EEEEES3_S3_ W
_ZN4Sass8Prelexer12alternativesIXadL_ZNS0_13uri_characterEPKcEEXadL_ZNS0_8NONASCIIES3_EEJXadL_ZNS0_6ESCAPEES3_EEEEES3_S3_ W
_ZN4Sass8Prelexer12alternativesIXadL_ZNS0_14css_identifierEPKcEEEES3_S3_ W
_ZN4Sass8Prelexer12alternativesIXadL_ZNS0_14neg_class_charIXadL_ZNS0_21string_double_negatesEEEEEPKcS4_EEEES4_S4_ W
_ZN4Sass8Prelexer12alternativesIXadL_ZNS0_14neg_class_charIXadL_ZNS0_21string_single_negatesEEEEEPKcS4_EEEES4_S4_ W
_ZN4Sass8Prelexer12alternativesIXadL_ZNS0_15list_terminatorEPKcEEEES3_S3_ W
_ZN4Sass8Prelexer12alternativesIXadL_ZNS0_15real_uri_suffixEPKcEEXadL_ZNS0_7exactlyIXadL_ZNS_9Constants11hash_lbraceEEEEES3_S3_EEJEEES3_S3_ W
_ZN4Sass8Prelexer12alternativesIXadL_ZNS0_15substring_matchEPKcEEEES3_S3_ W
_ZN4Sass8Prelexer12alternativesIXadL_ZNS0_17css_ip_identifierEPKcEEEES3_S3_ W
_ZN4Sass8Prelexer12alternativesIXadL_ZNS0_17identifier_alnumsEPKcEEEES3_S3_ W
_ZN4Sass8Prelexer12alternativesIXadL_ZNS0_17identifier_schemaEPKcEEXadL_ZNS0_10identifierES3_EEJEEES3_S3_ W
_ZN4Sass8Prelexer12alternativesIXadL_ZNS0_17identifier_schemaEPKcEEXadL_ZNS0_10identifierES3_EEJXadL_ZNS0_13quoted_stringES3_EEXadL_ZNS0_6numberES3_EEXadL_ZNS0_3hexES3_EEXadL_ZNS0_4hexaES3_EEEEES3_S3_ W
_ZN4Sass8Prelexer12alternativesIXadL_ZNS0_17identifier_schemaEPKcEEXadL_ZNS0_10identifierES3_EEJXadL_ZNS0_13quoted_stringES3_EEXadL_ZNS0_6numberES3_EEXadL_ZNS0_3hexES3_EEXadL_ZNS0_4hexaES3_EEXadL_ZNS0_8sequenceIXadL_ZNS0_7exactlyILc40EEES3_S3_EEXadL_ZNS0_16skip_over_scopesIXadL_ZNS5_ILc40EEES3_S3_EEXadL_ZNS5_ILc41EEES3_S3_EEEES3_S3_EEJEEES3_S3_EEEEES3_S3_ W
_ZN4Sass8Prelexer12alternativesIXadL_ZNS0_18kwd_with_directiveEPKcEEXadL_ZNS0_21kwd_without_directiveES3_EEJEEES3_S3_ W
_ZN4Sass8Prelexer12alternativesIXadL_ZNS0_19escapable_characterEPKcEEEES3_S3_ W
_ZN4Sass8Prelexer12alternativesIXadL_ZNS0_20double_quoted_stringEPKcEEEES3_S3_ W
_ZN4Sass8Prelexer12alternativesIXadL_ZNS0_20single_quoted_stringEPKcEEXadL_ZNS0_20double_quoted_stringES3_EEJEEES3_S3_ W
_ZN4Sass8Prelexer12alternativesIXadL_ZNS0_21kwd_without_directiveEPKcEEEES3_S3_ W
_ZN4Sass8Prelexer12alternativesIXadL_ZNS0_23strict_identifier_alnumEPKcEEXadL_ZNS0_8sequenceIXadL_ZNS0_8one_plusIXadL_ZNS0_7exactlyILc45EEES3_S3_EEEES3_S3_EEXadL_ZNS0_23strict_identifier_alphaES3_EEJEEES3_S3_EEJEEES3_S3_ W
_ZN4Sass8Prelexer12alternativesIXadL_ZNS0_27schema_reference_combinatorEPKcEEXadL_ZNS0_10class_charIXadL_ZNS_9Constants22selector_lookahead_opsEEEEES3_S3_EEJXadL_ZNS4_IXadL_ZNS5_23selector_combinator_opsEEEEES3_S3_EEXadL_ZNS0_8sequenceIXadL_ZNS0_7exactlyILc40EEES3_S3_EEXadL_ZNS0_15optional_spacesES3_EEJXadL_ZNS0_8optionalIXadL_ZNS0_16re_selector_listES3_EEEES3_S3_EEXadL_ZNS0_15optional_spacesES3_EEXadL_ZNS7_ILc41EEES3_S3_EEEEES3_S3_EEXadL_ZNS1_IXadL_ZNS0_11exact_matchES3_EEXadL_ZNS0_11class_matchES3_EEJXadL_ZNS0_10dash_matchES3_EEXadL_ZNS0_12prefix_matchES3_EEXadL_ZNS0_12suffix_matchES3_EEXadL_ZNS0_15substring_matchES3_EEEEES3_S3_EEXadL_ZNS6_IXadL_ZNS8_IXadL_ZNS0_16namespace_schemaES3_EEEES3_S3_EEXadL_ZNS1_IXadL_ZNS6_IXadL_ZNS7_ILc35EEES3_S3_EEXadL_ZNS0_6negateIXadL_ZNS7_ILc123EEES3_S3_EEEES3_S3_EEJEEES3_S3_EEXadL_ZNS7_ILc46EEES3_S3_EEJXadL_ZNS6_IXadL_ZNS8_IXadL_ZNS0_13pseudo_prefixES3_EEEES3_S3_EEXadL_ZNS9_IXadL_ZNS0_10uri_prefixES3_EEEES3_S3_EEJEEES3_S3_EEEEES3_S3_EEJXadL_ZNS0_8one_plusIXadL_ZNS6_IXadL_ZNS0_9zero_plusIXadL_ZNS6_IXadL_ZNS7_ILc45EEES3_S3_EEXadL_ZNS0_15optional_spacesES3_EEJEEES3_S3_EEEES3_S3_EEXadL_ZNS1_IXadL_ZNS0_12kwd_optionalES3_EEXadL_ZNS7_ILc42EEES3_S3_EEJXadL_ZNS0_13quoted_stringES3_EEXadL_ZNS0_11interpolantES3_EEXadL_ZNS0_10identifierES3_EEXadL_ZNS0_8variableES3_EEXadL_ZNS0_10percentageES3_EEXadL_ZNS0_8binomialES3_EEXadL_ZNS0_9dimensionES3_EEXadL_ZNS0_5alnumES3_EEEEES3_S3_EEJEEES3_S3_EEEES3_S3_EEXadL_ZNSB_IXadL_ZNS7_ILc45EEES3_S3_EEEES3_S3_EEEEES3_S3_EEEEES3_S3_ W
_ZN4Sass8Prelexer12alternativesIXadL_ZNS0_27static_reference_combinatorEPKcEEEES3_S3_ W
_ZN4Sass8Prelexer12alternativesIXadL_ZNS0_3hexEPKcEEEES3_S3_ W
_ZN4Sass8Prelexer12alternativesIXadL_ZNS0_3hexEPKcEEXadL_ZNS0_4hex0ES3_EEJEEES3_S3_ W
_ZN4Sass8Prelexer12alternativesIXadL_ZNS0_3hexEPKcEEXadL_ZNS0_4hexaES3_EEJEEES3_S3_ W
_ZN4Sass8Prelexer12alternativesIXadL_ZNS0_3hexEPKcEEXadL_ZNS0_4hexaES3_EEJXadL_ZNS0_7exactlyILc124EEES3_S3_EEXadL_ZNS0_8sequenceIXadL_ZNS0_6numberES3_EEXadL_ZNS0_15unit_identifierES3_EEJEEES3_S3_EEXadL_ZNS0_6numberES3_EEXadL_ZNS5_IXadL_ZNS4_ILc33EEES3_S3_EEXadL_ZNS0_4wordIXadL_ZNS_9Constants13important_kwdEEEEES3_S3_EEJEEES3_S3_EEEEES3_S3_ W
_ZN4Sass8Prelexer12alternativesIXadL_ZNS0_3hexEPKcEEXadL_ZNS0_4hexaES3_EEJXadL_ZNS0_8sequenceIXadL_ZNS0_7exactlyILc40EEES3_S3_EEXadL_ZNS0_16skip_over_scopesIXadL_ZNS5_ILc40EEES3_S3_EEXadL_ZNS5_ILc41EEES3_S3_EEEES3_S3_EEJEEES3_S3_EEEEES3_S3_ W
_ZN4Sass8Prelexer12alternativesIXadL_ZNS0_3hexEPKcEEXadL_ZNS0_9dimensionES3_EEJXadL_ZNS0_6numberES3_EEEEES3_S3_ W
_ZN4Sass8Prelexer12alternativesIXadL_ZNS0_4hex0EPKcEEEES3_S3_ W
_ZN4Sass8Prelexer12alternativesIXadL_ZNS0_4hexaEPKcEEEES3_S3_ W
_ZN4Sass8Prelexer12alternativesIXadL_ZNS0_4hexaEPKcEEXadL_ZNS0_7exactlyILc124EEES3_S3_EEJXadL_ZNS0_8sequenceIXadL_ZNS0_6numberES3_EEXadL_ZNS0_15unit_identifierES3_EEJEEES3_S3_EEXadL_ZNS0_6numberES3_EEXadL_ZNS5_IXadL_ZNS4_ILc33EEES3_S3_EEXadL_ZNS0_4wordIXadL_ZNS_9Constants13important_kwdEEEEES3_S3_EEJEEES3_S3_EEEEES3_S3_ W
_ZN4Sass8Prelexer12alternativesIXadL_ZNS0_4hexaEPKcEEXadL_ZNS0_8sequenceIXadL_ZNS0_7exactlyILc40EEES3_S3_EEXadL_ZNS0_16skip_over_scopesIXadL_ZNS5_ILc40EEES3_S3_EEXadL_ZNS5_ILc41EEES3_S3_EEEES3_S3_EEJEEES3_S3_EEJEEES3_S3_ W
_ZN4Sass8Prelexer12alternativesIXadL_ZNS0_4signEPKcEEEES3_S3_ W
_ZN4Sass8Prelexer12alternativesIXadL_ZNS0_4wordIXadL_ZNS_9Constants10extend_kwdEEEEEPKcS5_EEXadL_ZNS2_IXadL_ZNS3_10import_kwdEEEEES5_S5_EEJXadL_ZNS2_IXadL_ZNS3_9media_kwdEEEEES5_S5_EEXadL_ZNS2_IXadL_ZNS3_11charset_kwdEEEEES5_S5_EEXadL_ZNS2_IXadL_ZNS3_11content_kwdEEEEES5_S5_EEXadL_ZNS2_IXadL_ZNS3_11at_root_kwdEEEEES5_S5_EEXadL_ZNS2_IXadL_ZNS3_9error_kwdEEEEES5_S5_EEEEES5_S5_ W
_ZN4Sass8Prelexer12alternativesIXadL_ZNS0_4wordIXadL_ZNS_9Constants10import_kwdEEEEEPKcS5_EEXadL_ZNS2_IXadL_ZNS3_9media_kwdEEEEES5_S5_EEJXadL_ZNS2_IXadL_ZNS3_11charset_kwdEEEEES5_S5_EEXadL_ZNS2_IXadL_ZNS3_11content_kwdEEEEES5_S5_EEXadL_ZNS2_IXadL_ZNS3_11at_root_kwdEEEEES5_S5_EEXadL_ZNS2_IXadL_ZNS3_9error_kwdEEEEES5_S5_EEEEES5_S5_ W
_ZN4Sass8Prelexer12alternativesIXadL_ZNS0_4wordIXadL_ZNS_9Constants10return_kwdEEEEEPKcS5_EEXadL_ZNS2_IXadL_ZNS3_9debug_kwdEEEEES5_S5_EEJXadL_ZNS2_IXadL_ZNS3_8warn_kwdEEEEES5_S5_EEXadL_ZNS2_IXadL_ZNS3_7for_kwdEEEEES5_S5_EEXadL_ZNS2_IXadL_ZNS3_8each_kwdEEEEES5_S5_EEXadL_ZNS2_IXadL_ZNS3_9while_kwdEEEEES5_S5_EEXadL_ZNS2_IXadL_ZNS3_6if_kwdEEEEES5_S5_EEXadL_ZNS2_IXadL_ZNS3_8else_kwdEEEEES5_S5_EEXadL_ZNS2_IXadL_ZNS3_10extend_kwdEEEEES5_S5_EEXadL_ZNS2_IXadL_ZNS3_10import_kwdEEEEES5_S5_EEXadL_ZNS2_IXadL_ZNS3_9media_kwdEEEEES5_S5_EEXadL_ZNS2_IXadL_ZNS3_11charset_kwdEEEEES5_S5_EEXadL_ZNS2_IXadL_ZNS3_11content_kwdEEEEES5_S5_EEXadL_ZNS2_IXadL_ZNS3_11at_root_kwdEEEEES5_S5_EEXadL_ZNS2_IXadL_ZNS3_9error_kwdEEEEES5_S5_EEEEES5_S5_ W
_ZN4Sass8Prelexer12alternativesIXadL_ZNS0_4wordIXadL_ZNS_9Constants11at_root_kwdEEEEEPKcS5_EEXadL_ZNS2_IXadL_ZNS3_9error_kwdEEEEES5_S5_EEJEEES5_S5_ W
_ZN4Sass8Prelexer12alternativesIXadL_ZNS0_4wordIXadL_ZNS_9Constants11charset_kwdEEEEEPKcS5_EEXadL_ZNS2_IXadL_ZNS3_11content_kwdEEEEES5_S5_EEJXadL_ZNS2_IXadL_ZNS3_11at_root_kwdEEEEES5_S5_EEXadL_ZNS2_IXadL_ZNS3_9error_kwdEEEEES5_S5_EEEEES5_S5_ W
_ZN4Sass8Prelexer12alternativesIXadL_ZNS0_4wordIXadL_ZNS_9Constants11content_kwdEEEEEPKcS5_EEXadL_ZNS2_IXadL_ZNS3_11at_root_kwdEEEEES5_S5_EEJXadL_ZNS2_IXadL_ZNS3_9error_kwdEEEEES5_S5_EEEEES5_S5_ W
_ZN4Sass8Prelexer12alternativesIXadL_ZNS0_4wordIXadL_ZNS_9Constants11include_kwdEEEEEPKcS5_EEXadL_ZNS2_IXadL_ZNS3_12function_kwdEEEEES5_S5_EEJXadL_ZNS2_IXadL_ZNS3_10return_kwdEEEEES5_S5_EEXadL_ZNS2_IXadL_ZNS3_9debug_kwdEEEEES5_S5_EEXadL_ZNS2_IXadL_ZNS3_8warn_kwdEEEEES5_S5_EEXadL_ZNS2_IXadL_ZNS3_7for_kwdEEEEES5_S5_EEXadL_ZNS2_IXadL_ZNS3_8each_kwdEEEEES5_S5_EEXadL_ZNS2_IXadL_ZNS3_9while_kwdEEEEES5_S5_EEXadL_ZNS2_IXadL_ZNS3_6if_kwdEEEEES5_S5_EEXadL_ZNS2_IXadL_ZNS3_8else_kwdEEEEES5_S5_EEXadL_ZNS2_IXadL_ZNS3_10extend_kwdEEEEES5_S5_EEXadL_ZNS2_IXadL_ZNS3_10import_kwdEEEEES5_S5_EEXadL_ZNS2_IXadL_ZNS3_9media_kwdEEEEES5_S5_EEXadL_ZNS2_IXadL_ZNS3_11charset_kwdEEEEES5_S5_EEXadL_ZNS2_IXadL_ZNS3_11content_kwdEEEEES5_S5_EEXadL_ZNS2_IXadL_ZNS3_11at_root_kwdEEEEES5_S5_EEXadL_ZNS2_IXadL_ZNS3_9error_kwdEEEEES5_S5_EEEEES5_S5_ W
_ZN4Sass8Prelexer12alternativesIXadL_ZNS0_4wordIXadL_ZNS_9Constants12function_kwdEEEEEPKcS5_EEXadL_ZNS2_IXadL_ZNS3_10return_kwdEEEEES5_S5_EEJXadL_ZNS2_IXadL_ZNS3_9debug_kwdEEEEES5_S5_EEXadL_ZNS2_IXadL_ZNS3_8warn_kwdEEEEES5_S5_EEXadL_ZNS2_IXadL_ZNS3_7for_kwdEEEEES5_S5_EEXadL_ZNS2_IXadL_ZNS3_8each_kwdEEEEES5_S5_EEXadL_ZNS2_IXadL_ZNS3_9while_kwdEEEEES5_S5_EEXadL_ZNS2_IXadL_ZNS3_6if_kwdEEEEES5_S5_EEXadL_ZNS2_IXadL_ZNS3_8else_kwdEEEEES5_S5_EEXadL_ZNS2_IXadL_ZNS3_10extend_kwdEEEEES5_S5_EEXadL_ZNS2_IXadL_ZNS3_10import_kwdEEEEES5_S5_EEXadL_ZNS2_IXadL_ZNS3_9media_kwdEEEEES5_S5_EEXadL_ZNS2_IXadL_ZNS3_11charset_kwdEEEEES5_S5_EEXadL_ZNS2_IXadL_ZNS3_11content_kwdEEEEES5_S5_EEXadL_ZNS2_IXadL_ZNS3_11at_root_kwdEEEEES5_S5_EEXadL_ZNS2_IXadL_ZNS3_9error_kwdEEEEES5_S5_EEEEES5_S5_ W
_ZN4Sass8Prelexer12alternativesIXadL_ZNS0_4wordIXadL_ZNS_9Constants14expression_kwdEEEEEPKcS5_EEXadL_ZNS0_8sequenceIXadL_ZNS6_IXadL_ZNS0_7exactlyIXadL_ZNS3_10progid_kwdEEEEES5_S5_EEXadL_ZNS0_7exactlyILc58EEES5_S5_EEJEEES5_S5_EEXadL_ZNS0_9zero_plusIXadL_ZNS1_IXadL_ZNS0_10char_rangeILc97ELc122EEES5_S5_EEXadL_ZNS8_ILc46EEES5_S5_EEJEEES5_S5_EEEES5_S5_EEJEEES5_S5_EEJEEES5_S5_ W
_ZN4Sass8Prelexer12alternativesIXadL_ZNS0_4wordIXadL_ZNS_9Constants6if_kwdEEEEEPKcS5_EEXadL_ZNS2_IXadL_ZNS3_8else_kwdEEEEES5_S5_EEJXadL_ZNS2_IXadL_ZNS3_10extend_kwdEEEEES5_S5_EEXadL_ZNS2_IXadL_ZNS3_10import_kwdEEEEES5_S5_EEXadL_ZNS2_IXadL_ZNS3_9media_kwdEEEEES5_S5_EEXadL_ZNS2_IXadL_ZNS3_11charset_kwdEEEEES5_S5_EEXadL_ZNS2_IXadL_ZNS3_11content_kwdEEEEES5_S5_EEXadL_ZNS2_IXadL_ZNS3_11at_root_kwdEEEEES5_S5_EEXadL_ZNS2_IXadL_ZNS3_9error_kwdEEEEES5_S5_EEEEES5_S5_ W
_ZN4Sass8Prelexer12alternativesIXadL_ZNS0_4wordIXadL_ZNS_9Constants7for_kwdEEEEEPKcS5_EEXadL_ZNS2_IXadL_ZNS3_8each_kwdEEEEES5_S5_EEJXadL_ZNS2_IXadL_ZNS3_9while_kwdEEEEES5_S5_EEXadL_ZNS2_IXadL_ZNS3_6if_kwdEEEEES5_S5_EEXadL_ZNS2_IXadL_ZNS3_8else_kwdEEEEES5_S5_EEXadL_ZNS2_IXadL_ZNS3_10extend_kwdEEEEES5_S5_EEXadL_ZNS2_IXadL_ZNS3_10import_kwdEEEEES5_S5_EEXadL_ZNS2_IXadL_ZNS3_9media_kwdEEEEES5_S5_EEXadL_ZNS2_IXadL_ZNS3_11charset_kwdEEEEES5_S5_EEXadL_ZNS2_IXadL_ZNS3_11content_kwdEEEEES5_S5_EEXadL_ZNS2_IXadL_ZNS3_11at_root_kwdEEEEES5_S5_EEXadL_ZNS2_IXadL_ZNS3_9error_kwdEEEEES5_S5_EEEEES5_S5_ W
_ZN4Sass8Prelexer12alternativesIXadL_ZNS0_4wordIXadL_ZNS_9Constants8each_kwdEEEEEPKcS5_EEXadL_ZNS2_IXadL_ZNS3_9while_kwdEEEEES5_S5_EEJXadL_ZNS2_IXadL_ZNS3_6if_kwdEEEEES5_S5_EEXadL_ZNS2_IXadL_ZNS3_8else_kwdEEEEES5_S5_EEXadL_ZNS2_IXadL_ZNS3_10extend_kwdEEEEES5_S5_EEXadL_ZNS2_IXadL_ZNS3_10import_kwdEEEEES5_S5_EEXadL_ZNS2_IXadL_ZNS3_9media_kwdEEEEES5_S5_EEXadL_ZNS2_IXadL_ZNS3_11charset_kwdEEEEES5_S5_EEXadL_ZNS2_IXadL_ZNS3_11content_kwdEEEEES5_S5_EEXadL_ZNS2_IXadL_ZNS3_11at_root_kwdEEEEES5_S5_EEXadL_ZNS2_IXadL_ZNS3_9error_kwdEEEEES5_S5_EEEEES5_S5_ W
_ZN4Sass8Prelexer12alternativesIXadL_ZNS0_4wordIXadL_ZNS_9Constants8else_kwdEEEEEPKcS5_EEXadL_ZNS2_IXadL_ZNS3_10extend_kwdEEEEES5_S5_EEJXadL_ZNS2_IXadL_ZNS3_10import_kwdEEEEES5_S5_EEXadL_ZNS2_IXadL_ZNS3_9media_kwdEEEEES5_S5_EEXadL_ZNS2_IXadL_ZNS3_11charset_kwdEEEEES5_S5_EEXadL_ZNS2_IXadL_ZNS3_11content_kwdEEEEES5_S5_EEXadL_ZNS2_IXadL_ZNS3_11at_root_kwdEEEEES5_S5_EEXadL_ZNS2_IXadL_ZNS3_9error_kwdEEEEES5_S5_EEEEES5_S5_ W
_ZN4Sass8Prelexer12alternativesIXadL_ZNS0_4wordIXadL_ZNS_9Constants8warn_kwdEEEEEPKcS5_EEXadL_ZNS2_IXadL_ZNS3_7for_kwdEEEEES5_S5_EEJXadL_ZNS2_IXadL_ZNS3_8each_kwdEEEEES5_S5_EEXadL_ZNS2_IXadL_ZNS3_9while_kwdEEEEES5_S5_EEXadL_ZNS2_IXadL_ZNS3_6if_kwdEEEEES5_S5_EEXadL_ZNS2_IXadL_ZNS3_8else_kwdEEEEES5_S5_EEXadL_ZNS2_IXadL_ZNS3_10extend_kwdEEEEES5_S5_EEXadL_ZNS2_IXadL_ZNS3_10import_kwdEEEEES5_S5_EEXadL_ZNS2_IXadL_ZNS3_9media_kwdEEEEES5_S5_EEXadL_ZNS2_IXadL_ZNS3_11charset_kwdEEEEES5_S5_EEXadL_ZNS2_IXadL_ZNS3_11content_kwdEEEEES5_S5_EEXadL_ZNS2_IXadL_ZNS3_11at_root_kwdEEEEES5_S5_EEXadL_ZNS2_IXadL_ZNS3_9error_kwdEEEEES5_S5_EEEEES5_S5_ W
_ZN4Sass8Prelexer12alternativesIXadL_ZNS0_4wordIXadL_ZNS_9Constants9debug_kwdEEEEEPKcS5_EEXadL_ZNS2_IXadL_ZNS3_8warn_kwdEEEEES5_S5_EEJXadL_ZNS2_IXadL_ZNS3_7for_kwdEEEEES5_S5_EEXadL_ZNS2_IXadL_ZNS3_8each_kwdEEEEES5_S5_EEXadL_ZNS2_IXadL_ZNS3_9while_kwdEEEEES5_S5_EEXadL_ZNS2_IXadL_ZNS3_6if_kwdEEEEES5_S5_EEXadL_ZNS2_IXadL_ZNS3_8else_kwdEEEEES5_S5_EEXadL_ZNS2_IXadL_ZNS3_10extend_kwdEEEEES5_S5_EEXadL_ZNS2_IXadL_ZNS3_10import_kwdEEEEES5_S5_EEXadL_ZNS2_IXadL_ZNS3_9media_kwdEEEEES5_S5_EEXadL_ZNS2_IXadL_ZNS3_11charset_kwdEEEEES5_S5_EEXadL_ZNS2_IXadL_ZNS3_11content_kwdEEEEES5_S5_EEXadL_ZNS2_IXadL_ZNS3_11at_root_kwdEEEEES5_S5_EEXadL_ZNS2_IXadL_ZNS3_9error_kwdEEEEES5_S5_EEEEES5_S5_ W
_ZN4Sass8Prelexer12alternativesIXadL_ZNS0_4wordIXadL_ZNS_9Constants9error_kwdEEEEEPKcS5_EEEES5_S5_ W
_ZN4Sass8Prelexer12alternativesIXadL_ZNS0_4wordIXadL_ZNS_9Constants9media_kwdEEEEEPKcS5_EEXadL_ZNS2_IXadL_ZNS3_11charset_kwdEEEEES5_S5_EEJXadL_ZNS2_IXadL_ZNS3_11content_kwdEEEEES5_S5_EEXadL_ZNS2_IXadL_ZNS3_11at_root_kwdEEEEES5_S5_EEXadL_ZNS2_IXadL_ZNS3_9error_kwdEEEEES5_S5_EEEEES5_S5_ W
_ZN4Sass8Prelexer12alternativesIXadL_ZNS0_4wordIXadL_ZNS_9Constants9mixin_kwdEEEEEPKcS5_EEXadL_ZNS2_IXadL_ZNS3_11include_kwdEEEEES5_S5_EEJXadL_ZNS2_IXadL_ZNS3_12function_kwdEEEEES5_S5_EEXadL_ZNS2_IXadL_ZNS3_10return_kwdEEEEES5_S5_EEXadL_ZNS2_IXadL_ZNS3_9debug_kwdEEEEES5_S5_EEXadL_ZNS2_IXadL_ZNS3_8warn_kwdEEEEES5_S5_EEXadL_ZNS2_IXadL_ZNS3_7for_kwdEEEEES5_S5_EEXadL_ZNS2_IXadL_ZNS3_8each_kwdEEEEES5_S5_EEXadL_ZNS2_IXadL_ZNS3_9while_kwdEEEEES5_S5_EEXadL_ZNS2_IXadL_ZNS3_6if_kwdEEEEES5_S5_EEXadL_ZNS2_IXadL_ZNS3_8else_kwdEEEEES5_S5_EEXadL_ZNS2_IXadL_ZNS3_10extend_kwdEEEEES5_S5_EEXadL_ZNS2_IXadL_ZNS3_10import_kwdEEEEES5_S5_EEXadL_ZNS2_IXadL_ZNS3_9media_kwdEEEEES5_S5_EEXadL_ZNS2_IXadL_ZNS3_11charset_kwdEEEEES5_S5_EEXadL_ZNS2_IXadL_ZNS3_11content_kwdEEEEES5_S5_EEXadL_ZNS2_IXadL_ZNS3_11at_root_kwdEEEEES5_S5_EEXadL_ZNS2_IXadL_ZNS3_9error_kwdEEEEES5_S5_EEEEES5_S5_ W
_ZN4Sass8Prelexer12alternativesIXadL_ZNS0_4wordIXadL_ZNS_9Constants9while_kwdEEEEEPKcS5_EEXadL_ZNS2_IXadL_ZNS3_6if_kwdEEEEES5_S5_EEJXadL_ZNS2_IXadL_ZNS3_8else_kwdEEEEES5_S5_EEXadL_ZNS2_IXadL_ZNS3_10extend_kwdEEEEES5_S5_EEXadL_ZNS2_IXadL_ZNS3_10import_kwdEEEEES5_S5_EEXadL_ZNS2_IXadL_ZNS3_9media_kwdEEEEES5_S5_EEXadL_ZNS2_IXadL_ZNS3_11charset_kwdEEEEES5_S5_EEXadL_ZNS2_IXadL_ZNS3_11content_kwdEEEEES5_S5_EEXadL_ZNS2_IXadL_ZNS3_11at_root_kwdEEEEES5_S5_EEXadL_ZNS2_IXadL_ZNS3_9error_kwdEEEEES5_S5_EEEEES5_S5_ W
_ZN4Sass8Prelexer12alternativesIXadL_ZNS0_5alnumEPKcEEEES3_S3_ W
_ZN4Sass8Prelexer12alternativesIXadL_ZNS0_5alnumEPKcEEXadL_ZNS0_7exactlyILc45EEES3_S3_EEJXadL_ZNS4_ILc95EEES3_S3_EEXadL_ZNS0_10escape_seqES3_EEEEES3_S3_ W
_ZN4Sass8Prelexer12alternativesIXadL_ZNS0_5alnumEPKcEEXadL_ZNS0_8nonasciiES3_EEJXadL_ZNS0_10escape_seqES3_EEXadL_ZNS0_7exactlyILc95EEES3_S3_EEEEES3_S3_ W
_ZN4Sass8Prelexer12alternativesIXadL_ZNS0_5alnumEPKcEEXadL_ZNS0_8nonasciiES3_EEJXadL_ZNS0_7exactlyILc45EEES3_S3_EEXadL_ZNS4_ILc95EEES3_S3_EEXadL_ZNS0_8NONASCIIES3_EEXadL_ZNS0_6ESCAPEES3_EEXadL_ZNS0_10escape_seqES3_EEEEES3_S3_ W
_ZN4Sass8Prelexer12alternativesIXadL_ZNS0_5alnumEPKcEEXadL_ZNS0_8sequenceIXadL_ZNS0_7exactlyILc92EEES3_S3_EEXadL_ZNS0_8any_charES3_EEJEEES3_S3_EEJEEES3_S3_ W
_ZN4Sass8Prelexer12alternativesIXadL_ZNS0_5alphaEPKcEEEES3_S3_ W
_ZN4Sass8Prelexer12alternativesIXadL_ZNS0_5alphaEPKcEEXadL_ZNS0_7exactlyILc43EEES3_S3_EEJXadL_ZNS4_ILc45EEES3_S3_EEEEES3_S3_ W
_ZN4Sass8Prelexer12alternativesIXadL_ZNS0_5alphaEPKcEEXadL_ZNS0_8nonasciiES3_EEJXadL_ZNS0_10escape_seqES3_EEXadL_ZNS0_7exactlyILc95EEES3_S3_EEEEES3_S3_ W
_ZN4Sass8Prelexer12alternativesIXadL_ZNS0_5alphaEPKcEEXadL_ZNS0_8nonasciiES3_EEJXadL_ZNS0_7exactlyILc45EEES3_S3_EEXadL_ZNS4_ILc95EEES3_S3_EEXadL_ZNS0_8NONASCIIES3_EEXadL_ZNS0_6ESCAPEES3_EEXadL_ZNS0_10escape_seqES3_EEEEES3_S3_ W
_ZN4Sass8Prelexer12alternativesIXadL_ZNS0_5spaceEPKcEEEES3_S3_ W
_ZN4Sass8Prelexer12alternativesIXadL_ZNS0_5spaceEPKcEEXadL_ZNS0_7exactlyILc9EEES3_S3_EEJXadL_ZNS4_ILc13EEES3_S3_EEXadL_ZNS4_ILc10EEES3_S3_EEXadL_ZNS4_ILc12EEES3_S3_EEEEES3_S3_ W
_ZN4Sass8Prelexer12alternativesIXadL_ZNS0_5spaceEPKcEEXadL_ZNS0_8sequenceIXadL_ZNS0_7exactlyILc117EEES3_S3_EEXadL_ZNS5_ILc114EEES3_S3_EEJXadL_ZNS5_ILc108EEES3_S3_EEXadL_ZNS5_ILc40EEES3_S3_EEXadL_ZNS0_9zero_plusIXadL_ZNS1_IXadL_ZNS0_10class_charIXadL_ZNS_9Constants14real_uri_charsEEEEES3_S3_EEXadL_ZNS0_13uri_characterES3_EEJXadL_ZNS0_8NONASCIIES3_EEXadL_ZNS0_6ESCAPEES3_EEEEES3_S3_EEEES3_S3_EEXadL_ZNS5_ILc41EEES3_S3_EEEEES3_S3_EEJEEES3_S3_ W
_ZN4Sass8Prelexer12alternativesIXadL_ZNS0_6ESCAPEEPKcEEEES3_S3_ W
_ZN4Sass8Prelexer12alternativesIXadL_ZNS0_6ESCAPEEPKcEEXadL_ZNS0_10escape_seqES3_EEJEEES3_S3_ W
_ZN4Sass8Prelexer12alternativesIXadL_ZNS0_6digitsEPKcEEEES3_S3_ W
_ZN4Sass8Prelexer12alternativesIXadL_ZNS0_6digitsEPKcEEXadL_ZNS0_10identifierES3_EEJXadL_ZNS0_7exactlyILc43EEES3_S3_EEXadL_ZNS4_ILc45EEES3_S3_EEEEES3_S3_ W
_ZN4Sass8Prelexer12alternativesIXadL_ZNS0_6digitsEPKcEEXadL_ZNS0_8sequenceIXadL_ZNS0_8optionalIXadL_ZNS0_7exactlyILc36EEES3_S3_EEEES3_S3_EEXadL_ZNS0_10identifierES3_EEJEEES3_S3_EEJXadL_ZNS0_13quoted_stringES3_EEXadL_ZNS6_ILc45EEES3_S3_EEEEES3_S3_ W
_ZN4Sass8Prelexer12alternativesIXadL_ZNS0_6kwd_eqEPKcEEXadL_ZNS0_7kwd_neqES3_EEJXadL_ZNS0_7kwd_gteES3_EEXadL_ZNS0_6kwd_gtES3_EEXadL_ZNS0_7kwd_lteES3_EEXadL_ZNS0_6kwd_ltES3_EEEEES3_S3_ W
_ZN4Sass8Prelexer12alternativesIXadL_ZNS0_6kwd_gtEPKcEEXadL_ZNS0_7kwd_lteES3_EEJXadL_ZNS0_6kwd_ltES3_EEEEES3_S3_ W
_ZN4Sass8Prelexer12alternativesIXadL_ZNS0_6kwd_ltEPKcEEEES3_S3_ W
_ZN4Sass8Prelexer12alternativesIXadL_ZNS0_6numberEPKcEEEES3_S3_ W
_ZN4Sass8Prelexer12alternativesIXadL_ZNS0_6numberEPKcEEXadL_ZNS0_17identifier_alnumsES3_EEJEEES3_S3_ W
_ZN4Sass8Prelexer12alternativesIXadL_ZNS0_6numberEPKcEEXadL_ZNS0_27static_reference_combinatorES3_EEJEEES3_S3_ W
_ZN4Sass8Prelexer12alternativesIXadL_ZNS0_6numberEPKcEEXadL_ZNS0_3hexES3_EEJXadL_ZNS0_4hexaES3_EEEEES3_S3_ W
_ZN4Sass8Prelexer12alternativesIXadL_ZNS0_6numberEPKcEEXadL_ZNS0_3hexES3_EEJXadL_ZNS0_4hexaES3_EEXadL_ZNS0_8sequenceIXadL_ZNS0_7exactlyILc40EEES3_S3_EEXadL_ZNS0_16skip_over_scopesIXadL_ZNS5_ILc40EEES3_S3_EEXadL_ZNS5_ILc41EEES3_S3_EEEES3_S3_EEJEEES3_S3_EEEEES3_S3_ W
_ZN4Sass8Prelexer12alternativesIXadL_ZNS0_6numberEPKcEEXadL_ZNS0_8sequenceIXadL_ZNS0_7exactlyILc33EEES3_S3_EEXadL_ZNS0_4wordIXadL_ZNS_9Constants13important_kwdEEEEES3_S3_EEJEEES3_S3_EEJEEES3_S3_ W
_ZN4Sass8Prelexer12alternativesIXadL_ZNS0_6spacesEPKcEEEES3_S3_ W
_ZN4Sass8Prelexer12alternativesIXadL_ZNS0_6spacesEPKcEEXadL_ZNS0_12line_commentES3_EEJEEES3_S3_ W
_ZN4Sass8Prelexer12alternativesIXadL_ZNS0_6spacesEPKcEEXadL_ZNS0_12line_commentES3_EEJXadL_ZNS0_13block_commentES3_EEEEES3_S3_ W
_ZN4Sass8Prelexer12alternativesIXadL_ZNS0_6spacesEPKcEEXadL_ZNS0_13block_commentES3_EEJEEES3_S3_ W
_ZN4Sass8Prelexer12alternativesIXadL_ZNS0_6spacesEPKcEEXadL_ZNS0_13block_commentES3_EEJXadL_ZNS0_12line_commentES3_EEXadL_ZNS0_27schema_reference_combinatorES3_EEXadL_ZNS0_10class_charIXadL_ZNS_9Constants22selector_lookahead_opsEEEEES3_S3_EEXadL_ZNS4_IXadL_ZNS5_23selector_combinator_opsEEEEES3_S3_EEXadL_ZNS0_8sequenceIXadL_ZNS0_7exactlyILc40EEES3_S3_EEXadL_ZNS0_15optional_spacesES3_EEJXadL_ZNS0_8optionalIXadL_ZNS0_16re_selector_listES3_EEEES3_S3_EEXadL_ZNS0_15optional_spacesES3_EEXadL_ZNS7_ILc41EEES3_S3_EEEEES3_S3_EEXadL_ZNS1_IXadL_ZNS0_11exact_matchES3_EEXadL_ZNS0_11class_matchES3_EEJXadL_ZNS0_10dash_matchES3_EEXadL_ZNS0_12prefix_matchES3_EEXadL_ZNS0_12suffix_matchES3_EEXadL_ZNS0_15substring_matchES3_EEEEES3_S3_EEXadL_ZNS6_IXadL_ZNS8_IXadL_ZNS0_16namespace_schemaES3_EEEES3_S3_EEXadL_ZNS1_IXadL_ZNS6_IXadL_ZNS7_ILc35EEES3_S3_EEXadL_ZNS0_6negateIXadL_ZNS7_ILc123EEES3_S3_EEEES3_S3_EEJEEES3_S3_EEXadL_ZNS7_ILc46EEES3_S3_EEJXadL_ZNS6_IXadL_ZNS8_IXadL_ZNS0_13pseudo_prefixES3_EEEES3_S3_EEXadL_ZNS9_IXadL_ZNS0_10uri_prefixES3_EEEES3_S3_EEJEEES3_S3_EEEEES3_S3_EEJXadL_ZNS0_8one_plusIXadL_ZNS6_IXadL_ZNS0_9zero_plusIXadL_ZNS6_IXadL_ZNS7_ILc45EEES3_S3_EEXadL_ZNS0_15optional_spacesES3_EEJEEES3_S3_EEEES3_S3_EEXadL_ZNS1_IXadL_ZNS0_12kwd_optionalES3_EEXadL_ZNS7_ILc42EEES3_S3_EEJXadL_ZNS0_13quoted_stringES3_EEXadL_ZNS0_11interpolantES3_EEXadL_ZNS0_10identifierES3_EEXadL_ZNS0_8variableES3_EEXadL_ZNS0_10percentageES3_EEXadL_ZNS0_8binomialES3_EEXadL_ZNS0_9dimensionES3_EEXadL_ZNS0_5alnumES3_EEEEES3_S3_EEJEEES3_S3_EEEES3_S3_EEXadL_ZNSB_IXadL_ZNS7_ILc45EEES3_S3_EEEES3_S3_EEEEES3_S3_EEEEES3_S3_ W
_ZN4Sass8Prelexer12alternativesIXadL_ZNS0_7exactlyILc10EEEPKcS4_EEXadL_ZNS2_ILc12EEES4_S4_EEJEEES4_S4_ W
_ZN4Sass8Prelexer12alternativesIXadL_ZNS0_7exactlyILc117EEEPKcS4_EEEES4_S4_ W
_ZN4Sass8Prelexer12alternativesIXadL_ZNS0_7exactlyILc123EEEPKcS4_EEEES4_S4_ W
_ZN4Sass8Prelexer12alternativesIXadL_ZNS0_7exactlyILc123EEEPKcS4_EEXadL_ZNS2_ILc125EEES4_S4_EEJXadL_ZNS2_ILc59EEES4_S4_EEEEES4_S4_ W
_ZN4Sass8Prelexer12alternativesIXadL_ZNS0_7exactlyILc123EEEPKcS4_EEXadL_ZNS2_ILc41EEES4_S4_EEJXadL_ZNS2_ILc93EEES4_S4_EEXadL_ZNS2_ILc58EEES4_S4_EEXadL_ZNS0_11end_of_fileES4_EEXadL_ZNS0_7exactlyIXadL_ZNS_9Constants8ellipsisEEEEES4_S4_EEXadL_ZNS0_12default_flagES4_EEXadL_ZNS0_11global_flagES4_EEEEES4_S4_ W
_ZN4Sass8Prelexer12alternativesIXadL_ZNS0_7exactlyILc123EEEPKcS4_EEXadL_ZNS2_ILc44EEES4_S4_EEJEEES4_S4_ W
_ZN4Sass8Prelexer12alternativesIXadL_ZNS0_7exactlyILc123EEEPKcS4_EEXadL_ZNS2_ILc59EEES4_S4_EEJEEES4_S4_ W
_ZN4Sass8Prelexer12alternativesIXadL_ZNS0_7exactlyILc124EEEPKcS4_EEXadL_ZNS0_8sequenceIXadL_ZNS0_6numberES4_EEXadL_ZNS0_15unit_identifierES4_EEJEEES4_S4_EEJXadL_ZNS0_6numberES4_EEXadL_ZNS5_IXadL_ZNS2_ILc33EEES4_S4_EEXadL_ZNS0_4wordIXadL_ZNS_9Constants13important_kwdEEEEES4_S4_EEJEEES4_S4_EEEEES4_S4_ W
_ZN4Sass8Prelexer12alternativesIXadL_ZNS0_7exactlyILc125EEEPKcS4_EEEES4_S4_ W
_ZN4Sass8Prelexer12alternativesIXadL_ZNS0_7exactlyILc125EEEPKcS4_EEXadL_ZNS0_11end_of_fileES4_EEJEEES4_S4_ W
_ZN4Sass8Prelexer12alternativesIXadL_ZNS0_7exactlyILc125EEEPKcS4_EEXadL_ZNS2_ILc123EEES4_S4_EEJXadL_ZNS2_ILc41EEES4_S4_EEXadL_ZNS2_ILc93EEES4_S4_EEXadL_ZNS2_ILc58EEES4_S4_EEXadL_ZNS0_11end_of_fileES4_EEXadL_ZNS0_7exactlyIXadL_ZNS_9Constants8ellipsisEEEEES4_S4_EEXadL_ZNS0_12default_flagES4_EEXadL_ZNS0_11global_flagES4_EEEEES4_S4_ W
_ZN4Sass8Prelexer12alternativesIXadL_ZNS0_7exactlyILc125EEEPKcS4_EEXadL_ZNS2_ILc59EEES4_S4_EEJEEES4_S4_ W
_ZN4Sass8Prelexer12alternativesIXadL_ZNS0_7exactlyILc12EEEPKcS4_EEEES4_S4_ W
_ZN4Sass8Prelexer12alternativesIXadL_ZNS0_7exactlyILc13EEEPKcS4_EEXadL_ZNS2_ILc10EEES4_S4_EEJXadL_ZNS2_ILc12EEES4_S4_EEEEES4_S4_ W
_ZN4Sass8Prelexer12alternativesIXadL_ZNS0_7exactlyILc32EEEPKcS4_EEEES4_S4_ W
_ZN4Sass8Prelexer12alternativesIXadL_ZNS0_7exactlyILc32EEEPKcS4_EEXadL_ZNS2_ILc9EEES4_S4_EEJXadL_ZNS0_12line_commentES4_EEXadL_ZNS0_13block_commentES4_EEXadL_ZNS0_12delimited_byIXadL_ZNS_9Constants10slash_starEEEXadL_ZNS6_10star_slashEEELb0EEES4_S4_EEEEES4_S4_ W
_ZN4Sass8Prelexer12alternativesIXadL_ZNS0_7exactlyILc34EEEPKcS4_EEXadL_ZNS0_9lookaheadIXadL_ZNS0_7exactlyIXadL_ZNS_9Constants11hash_lbraceEEEEES4_S4_EEEES4_S4_EEJEEES4_S4_ W
_ZN4Sass8Prelexer12alternativesIXadL_ZNS0_7exactlyILc37EEEPKcS4_EEXadL_ZNS2_ILc45EEES4_S4_EEJXadL_ZNS2_ILc43EEES4_S4_EEEEES4_S4_ W
_ZN4Sass8Prelexer12alternativesIXadL_ZNS0_7exactlyILc39EEEPKcS4_EEXadL_ZNS0_9lookaheadIXadL_ZNS0_7exactlyIXadL_ZNS_9Constants11hash_lbraceEEEEES4_S4_EEEES4_S4_EEJEEES4_S4_ W
_ZN4Sass8Prelexer12alternativesIXadL_ZNS0_7exactlyILc40EEEPKcS4_EEXadL_ZNS2_ILc41EEES4_S4_EEJXadL_ZNS0_12kwd_optionalES4_EEXadL_ZNS0_13quoted_stringES4_EEXadL_ZNS0_11interpolantES4_EEXadL_ZNS0_10identifierES4_EEXadL_ZNS0_10percentageES4_EEXadL_ZNS0_9dimensionES4_EEXadL_ZNS0_8variableES4_EEXadL_ZNS0_5alnumES4_EEXadL_ZNS0_8sequenceIXadL_ZNS2_ILc92EEES4_S4_EEXadL_ZNS0_8any_charES4_EEJEEES4_S4_EEEEES4_S4_ W
_ZN4Sass8Prelexer12alternativesIXadL_ZNS0_7exactlyILc40EEEPKcS4_EEXadL_ZNS2_ILc91EEES4_S4_EEJXadL_ZNS2_ILc123EEES4_S4_EEEEES4_S4_ W
_ZN4Sass8Prelexer12alternativesIXadL_ZNS0_7exactlyILc41EEEPKcS4_EEXadL_ZNS0_12kwd_optionalES4_EEJXadL_ZNS0_13quoted_stringES4_EEXadL_ZNS0_11interpolantES4_EEXadL_ZNS0_10identifierES4_EEXadL_ZNS0_10percentageES4_EEXadL_ZNS0_9dimensionES4_EEXadL_ZNS0_8variableES4_EEXadL_ZNS0_5alnumES4_EEXadL_ZNS0_8sequenceIXadL_ZNS2_ILc92EEES4_S4_EEXadL_ZNS0_8any_charES4_EEJEEES4_S4_EEEEES4_S4_ W
_ZN4Sass8Prelexer12alternativesIXadL_ZNS0_7exactlyILc41EEEPKcS4_EEXadL_ZNS2_ILc93EEES4_S4_EEJXadL_ZNS2_ILc125EEES4_S4_EEEEES4_S4_ W
_ZN4Sass8Prelexer12alternativesIXadL_ZNS0_7exactlyILc41EEEPKcS4_EEXadL_ZNS2_ILc93EEES4_S4_EEJXadL_ZNS2_ILc58EEES4_S4_EEXadL_ZNS0_11end_of_fileES4_EEXadL_ZNS0_7exactlyIXadL_ZNS_9Constants8ellipsisEEEEES4_S4_EEXadL_ZNS0_12default_flagES4_EEXadL_ZNS0_11global_flagES4_EEEEES4_S4_ W
_ZN4Sass8Prelexer12alternativesIXadL_ZNS0_7exactlyILc42EEEPKcS4_EEEES4_S4_ W
_ZN4Sass8Prelexer12alternativesIXadL_ZNS0_7exactlyILc42EEEPKcS4_EEXadL_ZNS0_13quoted_stringES4_EEJXadL_ZNS0_11interpolantES4_EEXadL_ZNS0_10identifierES4_EEXadL_ZNS0_8variableES4_EEXadL_ZNS0_10percentageES4_EEXadL_ZNS0_8binomialES4_EEXadL_ZNS0_9dimensionES4_EEXadL_ZNS0_5alnumES4_EEEEES4_S4_ W
_ZN4Sass8Prelexer12alternativesIXadL_ZNS0_7exactlyILc42EEEPKcS4_EEXadL_ZNS0_14css_identifierES4_EEJEEES4_S4_ W
_ZN4Sass8Prelexer12alternativesIXadL_ZNS0_7exactlyILc42EEEPKcS4_EEXadL_ZNS0_17css_ip_identifierES4_EEJEEES4_S4_ W
_ZN4Sass8Prelexer12alternativesIXadL_ZNS0_7exactlyILc42EEEPKcS4_EEXadL_ZNS0_7exactlyIXadL_ZNS_9Constants8warn_kwdEEEEES4_S4_EEJXadL_ZNS5_IXadL_ZNS6_9error_kwdEEEEES4_S4_EEXadL_ZNS5_IXadL_ZNS6_9debug_kwdEEEEES4_S4_EEEEES4_S4_ W
_ZN4Sass8Prelexer12alternativesIXadL_ZNS0_7exactlyILc43EEEPKcS4_EEEES4_S4_ W
_ZN4Sass8Prelexer12alternativesIXadL_ZNS0_7exactlyILc43EEEPKcS4_EEXadL_ZNS0_8sequenceIXadL_ZNS2_ILc45EEES4_S4_EEXadL_ZNS0_23optional_css_whitespaceES4_EEJXadL_ZNS2_ILc45EEES4_S4_EEEEES4_S4_EEJEEES4_S4_ W
_ZN4Sass8Prelexer12alternativesIXadL_ZNS0_7exactlyILc43EEEPKcS4_EEXadL_ZNS2_ILc45EEES4_S4_EEJEEES4_S4_ W
_ZN4Sass8Prelexer12alternativesIXadL_ZNS0_7exactlyILc44EEEPKcS4_EEEES4_S4_ W
_ZN4Sass8Prelexer12alternativesIXadL_ZNS0_7exactlyILc44EEEPKcS4_EEXadL_ZNS0_15list_terminatorES4_EEJEEES4_S4_ W
_ZN4Sass8Prelexer12alternativesIXadL_ZNS0_7exactlyILc44EEEPKcS4_EEXadL_ZNS2_ILc123EEES4_S4_EEJXadL_ZNS2_ILc59EEES4_S4_EEEEES4_S4_ W
_ZN4Sass8Prelexer12alternativesIXadL_ZNS0_7exactlyILc44EEEPKcS4_EEXadL_ZNS2_ILc32EEES4_S4_EEJEEES4_S4_ W
_ZN4Sass8Prelexer12alternativesIXadL_ZNS0_7exactlyILc44EEEPKcS4_EEXadL_ZNS2_ILc40EEES4_S4_EEJXadL_ZNS2_ILc41EEES4_S4_EEXadL_ZNS0_12kwd_optionalES4_EEXadL_ZNS0_13quoted_stringES4_EEXadL_ZNS0_11interpolantES4_EEXadL_ZNS0_10identifierES4_EEXadL_ZNS0_10percentageES4_EEXadL_ZNS0_9dimensionES4_EEXadL_ZNS0_8variableES4_EEXadL_ZNS0_5alnumES4_EEXadL_ZNS0_8sequenceIXadL_ZNS2_ILc92EEES4_S4_EEXadL_ZNS0_8any_charES4_EEJEEES4_S4_EEEEES4_S4_ W
_ZN4Sass8Prelexer12alternativesIXadL_ZNS0_7exactlyILc45EEEPKcS4_EEEES4_S4_ W
_ZN4Sass8Prelexer12alternativesIXadL_ZNS0_7exactlyILc45EEEPKcS4_EEXadL_ZNS2_ILc43EEES4_S4_EEJEEES4_S4_ W
_ZN4Sass8Prelexer12alternativesIXadL_ZNS0_7exactlyILc45EEEPKcS4_EEXadL_ZNS2_ILc95EEES4_S4_EEJXadL_ZNS0_10escape_seqES4_EEEEES4_S4_ W
_ZN4Sass8Prelexer12alternativesIXadL_ZNS0_7exactlyILc45EEEPKcS4_EEXadL_ZNS2_ILc95EEES4_S4_EEJXadL_ZNS0_8NONASCIIES4_EEXadL_ZNS0_6ESCAPEES4_EEXadL_ZNS0_10escape_seqES4_EEEEES4_S4_ W
_ZN4Sass8Prelexer12alternativesIXadL_ZNS0_7exactlyILc46EEEPKcS4_EEEES4_S4_ W
_ZN4Sass8Prelexer12alternativesIXadL_ZNS0_7exactlyILc46EEEPKcS4_EEXadL_ZNS0_8sequenceIXadL_ZNS0_8optionalIXadL_ZNS0_13pseudo_prefixES4_EEEES4_S4_EEXadL_ZNS0_6negateIXadL_ZNS0_10uri_prefixES4_EEEES4_S4_EEJEEES4_S4_EEJEEES4_S4_ W
_ZN4Sass8Prelexer12alternativesIXadL_ZNS0_7exactlyILc47EEEPKcS4_EEEES4_S4_ W
_ZN4Sass8Prelexer12alternativesIXadL_ZNS0_7exactlyILc47EEEPKcS4_EEXadL_ZNS2_ILc42EEES4_S4_EEJEEES4_S4_ W
_ZN4Sass8Prelexer12alternativesIXadL_ZNS0_7exactlyILc47EEEPKcS4_EEXadL_ZNS2_ILc44EEES4_S4_EEJXadL_ZNS2_ILc32EEES4_S4_EEEEES4_S4_ W
_ZN4Sass8Prelexer12alternativesIXadL_ZNS0_7exactlyILc58EEEPKcS4_EEXadL_ZNS0_11end_of_fileES4_EEJXadL_ZNS0_7exactlyIXadL_ZNS_9Constants8ellipsisEEEEES4_S4_EEXadL_ZNS0_12default_flagES4_EEXadL_ZNS0_11global_flagES4_EEEEES4_S4_ W
_ZN4Sass8Prelexer12alternativesIXadL_ZNS0_7exactlyILc59EEEPKcS4_EEEES4_S4_ W
_ZN4Sass8Prelexer12alternativesIXadL_ZNS0_7exactlyILc59EEEPKcS4_EEXadL_ZNS0_11end_of_fileES4_EEJEEES4_S4_ W
_ZN4Sass8Prelexer12alternativesIXadL_ZNS0_7exactlyILc59EEEPKcS4_EEXadL_ZNS2_ILc125EEES4_S4_EEJEEES4_S4_ W
_ZN4Sass8Prelexer12alternativesIXadL_ZNS0_7exactlyILc59EEEPKcS4_EEXadL_ZNS2_ILc125EEES4_S4_EEJXadL_ZNS0_11end_of_fileES4_EEEEES4_S4_ W
_ZN4Sass8Prelexer12alternativesIXadL_ZNS0_7exactlyILc59EEEPKcS4_EEXadL_ZNS2_ILc125EEES4_S4_EEJXadL_ZNS2_ILc123EEES4_S4_EEXadL_ZNS2_ILc41EEES4_S4_EEXadL_ZNS2_ILc93EEES4_S4_EEXadL_ZNS2_ILc58EEES4_S4_EEXadL_ZNS0_11end_of_fileES4_EEXadL_ZNS0_7exactlyIXadL_ZNS_9Constants8ellipsisEEEEES4_S4_EEXadL_ZNS0_12default_flagES4_EEXadL_ZNS0_11global_flagES4_EEEEES4_S4_ W
_ZN4Sass8Prelexer12alternativesIXadL_ZNS0_7exactlyILc62EEEPKcS4_EEXadL_ZNS0_8sequenceIXadL_ZNS2_ILc92EEES4_S4_EEXadL_ZNS0_8any_charES4_EEJEEES4_S4_EEJXadL_ZNS5_IXadL_ZNS0_6negateIXadL_ZNS5_IXadL_ZNS0_7exactlyIXadL_ZNS_9Constants7url_kwdEEEEES4_S4_EEXadL_ZNS2_ILc40EEES4_S4_EEJEEES4_S4_EEEES4_S4_EEXadL_ZNS0_14neg_class_charIXadL_ZNS8_22almost_any_value_classEEEEES4_S4_EEJEEES4_S4_EEXadL_ZNS5_IXadL_ZNS2_ILc47EEES4_S4_EEXadL_ZNS6_IXadL_ZNS1_IXadL_ZNS2_ILc47EEES4_S4_EEXadL_ZNS2_ILc42EEES4_S4_EEJEEES4_S4_EEEES4_S4_EEJEEES4_S4_EEXadL_ZNS5_IXadL_ZNS2_ILc92EEES4_S4_EEXadL_ZNS2_ILc35EEES4_S4_EEJXadL_ZNS6_IXadL_ZNS2_ILc123EEES4_S4_EEEES4_S4_EEEEES4_S4_EEXadL_ZNS5_IXadL_ZNS2_ILc33EEES4_S4_EEXadL_ZNS6_IXadL_ZNS0_5alphaES4_EEEES4_S4_EEJEEES4_S4_EEEEES4_S4_ W
_ZN4Sass8Prelexer12alternativesIXadL_ZNS0_7exactlyILc85EEEPKcS4_EEXadL_ZNS2_ILc117EEES4_S4_EEJEEES4_S4_ W
_ZN4Sass8Prelexer12alternativesIXadL_ZNS0_7exactlyILc91EEEPKcS4_EEXadL_ZNS2_ILc123EEES4_S4_EEJEEES4_S4_ W
_ZN4Sass8Prelexer12alternativesIXadL_ZNS0_7exactlyILc93EEEPKcS4_EEXadL_ZNS2_ILc125EEES4_S4_EEJEEES4_S4_ W
_ZN4Sass8Prelexer12alternativesIXadL_ZNS0_7exactlyILc93EEEPKcS4_EEXadL_ZNS2_ILc47EEES4_S4_EEJEEES4_S4_ W
_ZN4Sass8Prelexer12alternativesIXadL_ZNS0_7exactlyILc93EEEPKcS4_EEXadL_ZNS2_ILc58EEES4_S4_EEJXadL_ZNS0_11end_of_fileES4_EEXadL_ZNS0_7exactlyIXadL_ZNS_9Constants8ellipsisEEEEES4_S4_EEXadL_ZNS0_12default_flagES4_EEXadL_ZNS0_11global_flagES4_EEEEES4_S4_ W
_ZN4Sass8Prelexer12alternativesIXadL_ZNS0_7exactlyILc95EEEPKcS4_EEEES4_S4_ W
_ZN4Sass8Prelexer12alternativesIXadL_ZNS0_7exactlyILc95EEEPKcS4_EEXadL_ZNS0_10escape_seqES4_EEJEEES4_S4_ W
_ZN4Sass8Prelexer12alternativesIXadL_ZNS0_7exactlyILc95EEEPKcS4_EEXadL_ZNS0_8NONASCIIES4_EEJXadL_ZNS0_6ESCAPEES4_EEXadL_ZNS0_10escape_seqES4_EEEEES4_S4_ W
_ZN4Sass8Prelexer12alternativesIXadL_ZNS0_7exactlyILc9EEEPKcS4_EEXadL_ZNS0_12line_commentES4_EEJXadL_ZNS0_13block_commentES4_EEXadL_ZNS0_12delimited_byIXadL_ZNS_9Constants10slash_starEEEXadL_ZNS6_10star_slashEEELb0EEES4_S4_EEEEES4_S4_ W
_ZN4Sass8Prelexer12alternativesIXadL_ZNS0_7exactlyILc9EEEPKcS4_EEXadL_ZNS2_ILc13EEES4_S4_EEJXadL_ZNS2_ILc10EEES4_S4_EEXadL_ZNS2_ILc12EEES4_S4_EEEEES4_S4_ W
_ZN4Sass8Prelexer12alternativesIXadL_ZNS0_7exactlyIXadL_ZNS_9Constants11hash_lbraceEEEEEPKcS5_EEEES5_S5_ W
_ZN4Sass8Prelexer12alternativesIXadL_ZNS0_7exactlyIXadL_ZNS_9Constants8ellipsisEEEEEPKcS5_EEXadL_ZNS0_12default_flagES5_EEJXadL_ZNS0_11global_flagES5_EEEEES5_S5_ W
_ZN4Sass8Prelexer12alternativesIXadL_ZNS0_7exactlyIXadL_ZNS_9Constants8warn_kwdEEEEEPKcS5_EEXadL_ZNS2_IXadL_ZNS3_9error_kwdEEEEES5_S5_EEJXadL_ZNS2_IXadL_ZNS3_9debug_kwdEEEEES5_S5_EEEEES5_S5_ W
_ZN4Sass8Prelexer12alternativesIXadL_ZNS0_7exactlyIXadL_ZNS_9Constants9debug_kwdEEEEEPKcS5_EEEES5_S5_ W
_ZN4Sass8Prelexer12alternativesIXadL_ZNS0_7exactlyIXadL_ZNS_9Constants9error_kwdEEEEEPKcS5_EEXadL_ZNS2_IXadL_ZNS3_9debug_kwdEEEEES5_S5_EEJEEES5_S5_ W
_ZN4Sass8Prelexer12alternativesIXadL_ZNS0_7kwd_gteEPKcEEXadL_ZNS0_6kwd_gtES3_EEJXadL_ZNS0_7kwd_lteES3_EEXadL_ZNS0_6kwd_ltES3_EEEEES3_S3_ W
_ZN4Sass8Prelexer12alternativesIXadL_ZNS0_7kwd_lteEPKcEEXadL_ZNS0_6kwd_ltES3_EEJEEES3_S3_ W
_ZN4Sass8Prelexer12alternativesIXadL_ZNS0_7kwd_neqEPKcEEXadL_ZNS0_7kwd_gteES3_EEJXadL_ZNS0_6kwd_gtES3_EEXadL_ZNS0_7kwd_lteES3_EEXadL_ZNS0_6kwd_ltES3_EEEEES3_S3_ W
_ZN4Sass8Prelexer12alternativesIXadL_ZNS0_8NONASCIIEPKcEEXadL_ZNS0_19escapable_characterES3_EEJEEES3_S3_ W
_ZN4Sass8Prelexer12alternativesIXadL_ZNS0_8NONASCIIEPKcEEXadL_ZNS0_6ESCAPEES3_EEJEEES3_S3_ W
_ZN4Sass8Prelexer12alternativesIXadL_ZNS0_8NONASCIIEPKcEEXadL_ZNS0_6ESCAPEES3_EEJXadL_ZNS0_10escape_seqES3_EEEEES3_S3_ W
_ZN4Sass8Prelexer12alternativesIXadL_ZNS0_8UUNICODEEPKcEEXadL_ZNS0_8sequenceIXadL_ZNS0_7exactlyILc92EEES3_S3_EEXadL_ZNS1_IXadL_ZNS0_8NONASCIIES3_EEXadL_ZNS0_19escapable_characterES3_EEJEEES3_S3_EEJEEES3_S3_EEJEEES3_S3_ W
_ZN4Sass8Prelexer12alternativesIXadL_ZNS0_8any_charEPKcEEEES3_S3_ W
_ZN4Sass8Prelexer12alternativesIXadL_ZNS0_8binomialEPKcEEXadL_ZNS0_9dimensionES3_EEJXadL_ZNS0_5alnumES3_EEEEES3_S3_ W
_ZN4Sass8Prelexer12alternativesIXadL_ZNS0_8nonasciiEPKcEEXadL_ZNS0_10escape_seqES3_EEJXadL_ZNS0_7exactlyILc95EEES3_S3_EEEEES3_S3_ W
_ZN4Sass8Prelexer12alternativesIXadL_ZNS0_8nonasciiEPKcEEXadL_ZNS0_7exactlyILc45EEES3_S3_EEJXadL_ZNS4_ILc95EEES3_S3_EEXadL_ZNS0_8NONASCIIES3_EEXadL_ZNS0_6ESCAPEES3_EEXadL_ZNS0_10escape_seqES3_EEEEES3_S3_ W
_ZN4Sass8Prelexer12alternativesIXadL_ZNS0_8one_plusIXadL_ZNS0_12alternativesIXadL_ZNS0_6spacesEPKcEEXadL_ZNS0_13block_commentES5_EEJXadL_ZNS0_12line_commentES5_EEXadL_ZNS0_27schema_reference_combinatorES5_EEXadL_ZNS0_10class_charIXadL_ZNS_9Constants22selector_lookahead_opsEEEEES5_S5_EEXadL_ZNS6_IXadL_ZNS7_23selector_combinator_opsEEEEES5_S5_EEXadL_ZNS0_8sequenceIXadL_ZNS0_7exactlyILc40EEES5_S5_EEXadL_ZNS0_15optional_spacesES5_EEJXadL_ZNS0_8optionalIXadL_ZNS0_16re_selector_listES5_EEEES5_S5_EEXadL_ZNS0_15optional_spacesES5_EEXadL_ZNS9_ILc41EEES5_S5_EEEEES5_S5_EEXadL_ZNS3_IXadL_ZNS0_11exact_matchES5_EEXadL_ZNS0_11class_matchES5_EEJXadL_ZNS0_10dash_matchES5_EEXadL_ZNS0_12prefix_matchES5_EEXadL_ZNS0_12suffix_matchES5_EEXadL_ZNS0_15substring_matchES5_EEEEES5_S5_EEXadL_ZNS8_IXadL_ZNSA_IXadL_ZNS0_16namespace_schemaES5_EEEES5_S5_EEXadL_ZNS3_IXadL_ZNS8_IXadL_ZNS9_ILc35EEES5_S5_EEXadL_ZNS0_6negateIXadL_ZNS9_ILc123EEES5_S5_EEEES5_S5_EEJEEES5_S5_EEXadL_ZNS9_ILc46EEES5_S5_EEJXadL_ZNS8_IXadL_ZNSA_IXadL_ZNS0_13pseudo_prefixES5_EEEES5_S5_EEXadL_ZNSB_IXadL_ZNS0_10uri_prefixES5_EEEES5_S5_EEJEEES5_S5_EEEEES5_S5_EEJXadL_ZNS2_IXadL_ZNS8_IXadL_ZNS0_9zero_plusIXadL_ZNS8_IXadL_ZNS9_ILc45EEES5_S5_EEXadL_ZNS0_15optional_spacesES5_EEJEEES5_S5_EEEES5_S5_EEXadL_ZNS3_IXadL_ZNS0_12kwd_optionalES5_EEXadL_ZNS9_ILc42EEES5_S5_EEJXadL_ZNS0_13quoted_stringES5_EEXadL_ZNS0_11interpolantES5_EEXadL_ZNS0_10identifierES5_EEXadL_ZNS0_8variableES5_EEXadL_ZNS0_10percentageES5_EEXadL_ZNS0_8binomialES5_EEXadL_ZNS0_9dimensionES5_EEXadL_ZNS0_5alnumES5_EEEEES5_S5_EEJEEES5_S5_EEEES5_S5_EEXadL_ZNSC_IXadL_ZNS9_ILc45EEES5_S5_EEEES5_S5_EEEEES5_S5_EEEEES5_S5_EEEES5_S5_EEEES5_S5_ W
_ZN4Sass8Prelexer12alternativesIXadL_ZNS0_8one_plusIXadL_ZNS1_IXadL_ZNS0_8sequenceIXadL_ZNS0_7exactlyILc92EEEPKcS6_EEXadL_ZNS0_8any_charES6_EEJEEES6_S6_EEXadL_ZNS3_IXadL_ZNS0_6negateIXadL_ZNS0_10uri_prefixES6_EEEES6_S6_EEXadL_ZNS0_14neg_class_charIXadL_ZNS_9Constants22almost_any_value_classEEEEES6_S6_EEJEEES6_S6_EEJXadL_ZNS3_IXadL_ZNS4_ILc47EEES6_S6_EEXadL_ZNS7_IXadL_ZNS1_IXadL_ZNS4_ILc47EEES6_S6_EEXadL_ZNS4_ILc42EEES6_S6_EEJEEES6_S6_EEEES6_S6_EEJEEES6_S6_EEXadL_ZNS3_IXadL_ZNS4_ILc92EEES6_S6_EEXadL_ZNS4_ILc35EEES6_S6_EEJXadL_ZNS7_IXadL_ZNS4_ILc123EEES6_S6_EEEES6_S6_EEEEES6_S6_EEXadL_ZNS3_IXadL_ZNS4_ILc33EEES6_S6_EEXadL_ZNS7_IXadL_ZNS0_5alphaES6_EEEES6_S6_EEJEEES6_S6_EEEEES6_S6_EEEES6_S6_EEXadL_ZNS0_13block_commentES6_EEJXadL_ZNS0_12line_commentES6_EEXadL_ZNS0_11interpolantES6_EEXadL_ZNS0_5spaceES6_EEXadL_ZNS3_IXadL_ZNS4_ILc117EEES6_S6_EEXadL_ZNS4_ILc114EEES6_S6_EEJXadL_ZNS4_ILc108EEES6_S6_EEXadL_ZNS4_ILc40EEES6_S6_EEXadL_ZNS0_9zero_plusIXadL_ZNS1_IXadL_ZNS0_10class_charIXadL_ZNS9_14real_uri_charsEEEEES6_S6_EEXadL_ZNS0_13uri_characterES6_EEJXadL_ZNS0_8NONASCIIES6_EEXadL_ZNS0_6ESCAPEES6_EEEEES6_S6_EEEES6_S6_EEXadL_ZNS4_ILc41EEES6_S6_EEEEES6_S6_EEEEES6_S6_ W
_ZN4Sass8Prelexer12alternativesIXadL_ZNS0_8real_uriEPKcEEXadL_ZNS0_13block_commentES3_EEJEEES3_S3_ W
_ZN4Sass8Prelexer12alternativesIXadL_ZNS0_8sequenceIXadL_ZNS0_11interpolantEPKcEEXadL_ZNS0_8optionalIXadL_ZNS0_13quoted_stringES4_EEEES4_S4_EEJEEES4_S4_EEXadL_ZNS0_10identifierES4_EEJXadL_ZNS0_8variableES4_EEXadL_ZNS2_IXadL_ZNS0_16parenthese_scopeES4_EEXadL_ZNS0_11interpolantES4_EEJXadL_ZNS5_IXadL_ZNS0_13quoted_stringES4_EEEES4_S4_EEEEES4_S4_EEEEES4_S4_ W
_ZN4Sass8Prelexer12alternativesIXadL_ZNS0_8sequenceIXadL_ZNS0_15optional_spacesEPKcEEXadL_ZNS1_IXadL_ZNS0_7exactlyILc47EEES4_S4_EEXadL_ZNS5_ILc44EEES4_S4_EEJXadL_ZNS5_ILc32EEES4_S4_EEEEES4_S4_EEJXadL_ZNS0_15optional_spacesES4_EEEEES4_S4_EEXadL_ZNS0_6spacesES4_EEJEEES4_S4_ W
_ZN4Sass8Prelexer12alternativesIXadL_ZNS0_8sequenceIXadL_ZNS0_16parenthese_scopeEPKcEEXadL_ZNS0_11interpolantES4_EEJXadL_ZNS0_8optionalIXadL_ZNS0_13quoted_stringES4_EEEES4_S4_EEEEES4_S4_EEEES4_S4_ W
_ZN4Sass8Prelexer12alternativesIXadL_ZNS0_8sequenceIXadL_ZNS0_1WEPKcEEXadL_ZNS0_7exactlyILc41EEES4_S4_EEJEEES4_S4_EEXadL_ZNS0_7exactlyIXadL_ZNS_9Constants11hash_lbraceEEEEES4_S4_EEJEEES4_S4_ W
_ZN4Sass8Prelexer12alternativesIXadL_ZNS0_8sequenceIXadL_ZNS0_6negateIXadL_ZNS0_10uri_prefixEPKcEEEES5_S5_EEXadL_ZNS0_14neg_class_charIXadL_ZNS_9Constants22almost_any_value_classEEEEES5_S5_EEJEEES5_S5_EEXadL_ZNS2_IXadL_ZNS0_7exactlyILc47EEES5_S5_EEXadL_ZNS3_IXadL_ZNS1_IXadL_ZNS8_ILc47EEES5_S5_EEXadL_ZNS8_ILc42EEES5_S5_EEJEEES5_S5_EEEES5_S5_EEJEEES5_S5_EEJXadL_ZNS2_IXadL_ZNS8_ILc92EEES5_S5_EEXadL_ZNS8_ILc35EEES5_S5_EEJXadL_ZNS3_IXadL_ZNS8_ILc123EEES5_S5_EEEES5_S5_EEEEES5_S5_EEXadL_ZNS2_IXadL_ZNS8_ILc33EEES5_S5_EEXadL_ZNS3_IXadL_ZNS0_5alphaES5_EEEES5_S5_EEJEEES5_S5_EEEEES5_S5_ W
_ZN4Sass8Prelexer12alternativesIXadL_ZNS0_8sequenceIXadL_ZNS0_6negateIXadL_ZNS0_7exactlyIXadL_ZNS_9Constants10url_fn_kwdEEEEEPKcS7_EEEES7_S7_EEXadL_ZNS0_8one_plusIXadL_ZNS0_14neg_class_charIXadL_ZNS0_24css_variable_url_negatesEEEEES7_S7_EEEES7_S7_EEJEEES7_S7_EEXadL_ZNS2_IXadL_ZNS0_7exactlyILc35EEES7_S7_EEXadL_ZNS3_IXadL_ZNSA_ILc123EEES7_S7_EEEES7_S7_EEJEEES7_S7_EEJXadL_ZNS2_IXadL_ZNSA_ILc47EEES7_S7_EEXadL_ZNS3_IXadL_ZNSA_ILc42EEES7_S7_EEEES7_S7_EEJEEES7_S7_EEXadL_ZNS0_13static_stringES7_EEXadL_ZNS0_8real_uriES7_EEXadL_ZNS0_13block_commentES7_EEEEES7_S7_ W
_ZN4Sass8Prelexer12alternativesIXadL_ZNS0_8sequenceIXadL_ZNS0_6negateIXadL_ZNS0_7exactlyIXadL_ZNS_9Constants10url_fn_kwdEEEEEPKcS7_EEEES7_S7_EEXadL_ZNS0_8one_plusIXadL_ZNS0_14neg_class_charIXadL_ZNS0_34css_variable_url_top_level_negatesEEEEES7_S7_EEEES7_S7_EEJEEES7_S7_EEXadL_ZNS2_IXadL_ZNS0_7exactlyILc35EEES7_S7_EEXadL_ZNS3_IXadL_ZNSA_ILc123EEES7_S7_EEEES7_S7_EEJEEES7_S7_EEJXadL_ZNS2_IXadL_ZNSA_ILc47EEES7_S7_EEXadL_ZNS3_IXadL_ZNSA_ILc42EEES7_S7_EEEES7_S7_EEJEEES7_S7_EEXadL_ZNS0_13static_stringES7_EEXadL_ZNS0_8real_uriES7_EEXadL_ZNS0_13block_commentES7_EEEEES7_S7_ W
_ZN4Sass8Prelexer12alternativesIXadL_ZNS0_8sequenceIXadL_ZNS0_6negateIXadL_ZNS2_IXadL_ZNS0_7exactlyIXadL_ZNS_9Constants7url_kwdEEEEEPKcS7_EEXadL_ZNS0_7exactlyILc40EEES7_S7_EEJEEES7_S7_EEEES7_S7_EEXadL_ZNS0_14neg_class_charIXadL_ZNS5_22almost_any_value_classEEEEES7_S7_EEJEEES7_S7_EEXadL_ZNS2_IXadL_ZNS8_ILc47EEES7_S7_EEXadL_ZNS3_IXadL_ZNS1_IXadL_ZNS8_ILc47EEES7_S7_EEXadL_ZNS8_ILc42EEES7_S7_EEJEEES7_S7_EEEES7_S7_EEJEEES7_S7_EEJXadL_ZNS2_IXadL_ZNS8_ILc92EEES7_S7_EEXadL_ZNS8_ILc35EEES7_S7_EEJXadL_ZNS3_IXadL_ZNS8_ILc123EEES7_S7_EEEES7_S7_EEEEES7_S7_EEXadL_ZNS2_IXadL_ZNS8_ILc33EEES7_S7_EEXadL_ZNS3_IXadL_ZNS0_5alphaES7_EEEES7_S7_EEJEEES7_S7_EEEEES7_S7_ W
_ZN4Sass8Prelexer12alternativesIXadL_ZNS0_8sequenceIXadL_ZNS0_6numberEPKcEEXadL_ZNS0_15unit_identifierES4_EEJEEES4_S4_EEXadL_ZNS0_6numberES4_EEJXadL_ZNS2_IXadL_ZNS0_7exactlyILc33EEES4_S4_EEXadL_ZNS0_4wordIXadL_ZNS_9Constants13important_kwdEEEEES4_S4_EEJEEES4_S4_EEEEES4_S4_ W
_ZN4Sass8Prelexer12alternativesIXadL_ZNS0_8sequenceIXadL_ZNS0_7exactlyILc117EEEPKcS5_EEXadL_ZNS3_ILc114EEES5_S5_EEJXadL_ZNS3_ILc108EEES5_S5_EEXadL_ZNS3_ILc40EEES5_S5_EEXadL_ZNS0_9zero_plusIXadL_ZNS0_12alternativesIXadL_ZNS0_10class_charIXadL_ZNS_9Constants14real_uri_charsEEEEES5_S5_EEXadL_ZNS0_13uri_characterES5_EEJXadL_ZNS0_8NONASCIIES5_EEXadL_ZNS0_6ESCAPEES5_EEEEES5_S5_EEEES5_S5_EEXadL_ZNS3_ILc41EEES5_S5_EEEEES5_S5_EEEES5_S5_ W
_ZN4Sass8Prelexer12alternativesIXadL_ZNS0_8sequenceIXadL_ZNS0_7exactlyILc33EEEPKcS5_EEXadL_ZNS0_4wordIXadL_ZNS_9Constants13important_kwdEEEEES5_S5_EEJEEES5_S5_EEEES5_S5_ W
_ZN4Sass8Prelexer12alternativesIXadL_ZNS0_8sequenceIXadL_ZNS0_7exactlyILc33EEEPKcS5_EEXadL_ZNS0_6negateIXadL_ZNS0_5alphaES5_EEEES5_S5_EEJEEES5_S5_EEEES5_S5_ W
_ZN4Sass8Prelexer12alternativesIXadL_ZNS0_8sequenceIXadL_ZNS0_7exactlyILc35EEEPKcS5_EEXadL_ZNS0_6negateIXadL_ZNS3_ILc123EEES5_S5_EEEES5_S5_EEJEEES5_S5_EEXadL_ZNS0_14neg_class_charIXadL_ZNS0_21string_double_negatesEEEEES5_S5_EEJEEES5_S5_ W
_ZN4Sass8Prelexer12alternativesIXadL_ZNS0_8sequenceIXadL_ZNS0_7exactlyILc35EEEPKcS5_EEXadL_ZNS0_6negateIXadL_ZNS3_ILc123EEES5_S5_EEEES5_S5_EEJEEES5_S5_EEXadL_ZNS0_14neg_class_charIXadL_ZNS0_21string_single_negatesEEEEES5_S5_EEJEEES5_S5_ W
_ZN4Sass8Prelexer12alternativesIXadL_ZNS0_8sequenceIXadL_ZNS0_7exactlyILc35EEEPKcS5_EEXadL_ZNS0_6negateIXadL_ZNS3_ILc123EEES5_S5_EEEES5_S5_EEJEEES5_S5_EEXadL_ZNS2_IXadL_ZNS3_ILc47EEES5_S5_EEXadL_ZNS6_IXadL_ZNS3_ILc42EEES5_S5_EEEES5_S5_EEJEEES5_S5_EEJXadL_ZNS0_13static_stringES5_EEXadL_ZNS0_8real_uriES5_EEXadL_ZNS0_13block_commentES5_EEEEES5_S5_ W
_ZN4Sass8Prelexer12alternativesIXadL_ZNS0_8sequenceIXadL_ZNS0_7exactlyILc35EEEPKcS5_EEXadL_ZNS0_6negateIXadL_ZNS3_ILc123EEES5_S5_EEEES5_S5_EEJEEES5_S5_EEXadL_ZNS3_ILc46EEES5_S5_EEJXadL_ZNS2_IXadL_ZNS0_8optionalIXadL_ZNS0_13pseudo_prefixES5_EEEES5_S5_EEXadL_ZNS6_IXadL_ZNS0_10uri_prefixES5_EEEES5_S5_EEJEEES5_S5_EEEEES5_S5_ W
_ZN4Sass8Prelexer12alternativesIXadL_ZNS0_8sequenceIXadL_ZNS0_7exactlyILc40EEEPKcS5_EEXadL_ZNS0_15optional_spacesES5_EEJXadL_ZNS0_8optionalIXadL_ZNS0_16re_selector_listES5_EEEES5_S5_EEXadL_ZNS0_15optional_spacesES5_EEXadL_ZNS3_ILc41EEES5_S5_EEEEES5_S5_EEXadL_ZNS1_IXadL_ZNS0_11exact_matchES5_EEXadL_ZNS0_11class_matchES5_EEJXadL_ZNS0_10dash_matchES5_EEXadL_ZNS0_12prefix_matchES5_EEXadL_ZNS0_12suffix_matchES5_EEXadL_ZNS0_15substring_matchES5_EEEEES5_S5_EEJXadL_ZNS2_IXadL_ZNS6_IXadL_ZNS0_16namespace_schemaES5_EEEES5_S5_EEXadL_ZNS1_IXadL_ZNS2_IXadL_ZNS3_ILc35EEES5_S5_EEXadL_ZNS0_6negateIXadL_ZNS3_ILc123EEES5_S5_EEEES5_S5_EEJEEES5_S5_EEXadL_ZNS3_ILc46EEES5_S5_EEJXadL_ZNS2_IXadL_ZNS6_IXadL_ZNS0_13pseudo_prefixES5_EEEES5_S5_EEXadL_ZNS7_IXadL_ZNS0_10uri_prefixES5_EEEES5_S5_EEJEEES5_S5_EEEEES5_S5_EEJXadL_ZNS0_8one_plusIXadL_ZNS2_IXadL_ZNS0_9zero_plusIXadL_ZNS2_IXadL_ZNS3_ILc45EEES5_S5_EEXadL_ZNS0_15optional_spacesES5_EEJEEES5_S5_EEEES5_S5_EEXadL_ZNS1_IXadL_ZNS0_12kwd_optionalES5_EEXadL_ZNS3_ILc42EEES5_S5_EEJXadL_ZNS0_13quoted_stringES5_EEXadL_ZNS0_11interpolantES5_EEXadL_ZNS0_10identifierES5_EEXadL_ZNS0_8variableES5_EEXadL_ZNS0_10percentageES5_EEXadL_ZNS0_8binomialES5_EEXadL_ZNS0_9dimensionES5_EEXadL_ZNS0_5alnumES5_EEEEES5_S5_EEJEEES5_S5_EEEES5_S5_EEXadL_ZNS9_IXadL_ZNS3_ILc45EEES5_S5_EEEES5_S5_EEEEES5_S5_EEEEES5_S5_ W
_ZN4Sass8Prelexer12alternativesIXadL_ZNS0_8sequenceIXadL_ZNS0_7exactlyILc40EEEPKcS5_EEXadL_ZNS0_16skip_over_scopesIXadL_ZNS3_ILc40EEES5_S5_EEXadL_ZNS3_ILc41EEES5_S5_EEEES5_S5_EEJEEES5_S5_EEEES5_S5_ W
_ZN4Sass8Prelexer12alternativesIXadL_ZNS0_8sequenceIXadL_ZNS0_7exactlyILc45EEEPKcS5_EEXadL_ZNS0_23optional_css_whitespaceES5_EEJXadL_ZNS3_ILc45EEES5_S5_EEEEES5_S5_EEEES5_S5_ W
_ZN4Sass8Prelexer12alternativesIXadL_ZNS0_8sequenceIXadL_ZNS0_7exactlyILc47EEEPKcS5_EEXadL_ZNS0_6negateIXadL_ZNS1_IXadL_ZNS3_ILc47EEES5_S5_EEXadL_ZNS3_ILc42EEES5_S5_EEJEEES5_S5_EEEES5_S5_EEJEEES5_S5_EEXadL_ZNS2_IXadL_ZNS3_ILc92EEES5_S5_EEXadL_ZNS3_ILc35EEES5_S5_EEJXadL_ZNS6_IXadL_ZNS3_ILc123EEES5_S5_EEEES5_S5_EEEEES5_S5_EEJXadL_ZNS2_IXadL_ZNS3_ILc33EEES5_S5_EEXadL_ZNS6_IXadL_ZNS0_5alphaES5_EEEES5_S5_EEJEEES5_S5_EEEEES5_S5_ W
_ZN4Sass8Prelexer12alternativesIXadL_ZNS0_8sequenceIXadL_ZNS0_7exactlyILc47EEEPKcS5_EEXadL_ZNS0_6negateIXadL_ZNS3_ILc42EEES5_S5_EEEES5_S5_EEJEEES5_S5_EEXadL_ZNS0_13static_stringES5_EEJXadL_ZNS0_8real_uriES5_EEXadL_ZNS0_13block_commentES5_EEEEES5_S5_ W
_ZN4Sass8Prelexer12alternativesIXadL_ZNS0_8sequenceIXadL_ZNS0_7exactlyILc92EEEPKcS5_EEXadL_ZNS0_12alternativesIXadL_ZNS0_8NONASCIIES5_EEXadL_ZNS0_19escapable_characterES5_EEJEEES5_S5_EEJEEES5_S5_EEEES5_S5_ W
_ZN4Sass8Prelexer12alternativesIXadL_ZNS0_8sequenceIXadL_ZNS0_7exactlyILc92EEEPKcS5_EEXadL_ZNS0_12re_linebreakES5_EEJEEES5_S5_EEXadL_ZNS0_10escape_seqES5_EEJXadL_ZNS0_11unicode_seqES5_EEXadL_ZNS0_11interpolantES5_EEXadL_ZNS0_12any_char_butILc34EEES5_S5_EEEEES5_S5_ W
_ZN4Sass8Prelexer12alternativesIXadL_ZNS0_8sequenceIXadL_ZNS0_7exactlyILc92EEEPKcS5_EEXadL_ZNS0_12re_linebreakES5_EEJEEES5_S5_EEXadL_ZNS0_10escape_seqES5_EEJXadL_ZNS0_11unicode_seqES5_EEXadL_ZNS0_11interpolantES5_EEXadL_ZNS0_12any_char_butILc39EEES5_S5_EEEEES5_S5_ W
_ZN4Sass8Prelexer12alternativesIXadL_ZNS0_8sequenceIXadL_ZNS0_7exactlyILc92EEEPKcS5_EEXadL_ZNS0_8any_charES5_EEJEEES5_S5_EEEES5_S5_ W
_ZN4Sass8Prelexer12alternativesIXadL_ZNS0_8sequenceIXadL_ZNS0_7exactlyILc92EEEPKcS5_EEXadL_ZNS0_8any_charES5_EEJEEES5_S5_EEXadL_ZNS2_IXadL_ZNS0_6negateIXadL_ZNS0_10uri_prefixES5_EEEES5_S5_EEXadL_ZNS0_14neg_class_charIXadL_ZNS_9Constants22almost_any_value_classEEEEES5_S5_EEJEEES5_S5_EEJXadL_ZNS2_IXadL_ZNS3_ILc47EEES5_S5_EEXadL_ZNS6_IXadL_ZNS1_IXadL_ZNS3_ILc47EEES5_S5_EEXadL_ZNS3_ILc42EEES5_S5_EEJEEES5_S5_EEEES5_S5_EEJEEES5_S5_EEXadL_ZNS2_IXadL_ZNS3_ILc92EEES5_S5_EEXadL_ZNS3_ILc35EEES5_S5_EEJXadL_ZNS6_IXadL_ZNS3_ILc123EEES5_S5_EEEES5_S5_EEEEES5_S5_EEXadL_ZNS2_IXadL_ZNS3_ILc33EEES5_S5_EEXadL_ZNS6_IXadL_ZNS0_5alphaES5_EEEES5_S5_EEJEEES5_S5_EEEEES5_S5_ W
_ZN4Sass8Prelexer12alternativesIXadL_ZNS0_8sequenceIXadL_ZNS0_7exactlyILc92EEEPKcS5_EEXadL_ZNS0_8any_charES5_EEJEEES5_S5_EEXadL_ZNS2_IXadL_ZNS0_6negateIXadL_ZNS2_IXadL_ZNS0_7exactlyIXadL_ZNS_9Constants7url_kwdEEEEES5_S5_EEXadL_ZNS3_ILc40EEES5_S5_EEJEEES5_S5_EEEES5_S5_EEXadL_ZNS0_14neg_class_charIXadL_ZNS8_22almost_any_value_classEEEEES5_S5_EEJEEES5_S5_EEJXadL_ZNS2_IXadL_ZNS3_ILc47EEES5_S5_EEXadL_ZNS6_IXadL_ZNS1_IXadL_ZNS3_ILc47EEES5_S5_EEXadL_ZNS3_ILc42EEES5_S5_EEJEEES5_S5_EEEES5_S5_EEJEEES5_S5_EEXadL_ZNS2_IXadL_ZNS3_ILc92EEES5_S5_EEXadL_ZNS3_ILc35EEES5_S5_EEJXadL_ZNS6_IXadL_ZNS3_ILc123EEES5_S5_EEEES5_S5_EEEEES5_S5_EEXadL_ZNS2_IXadL_ZNS3_ILc33EEES5_S5_EEXadL_ZNS6_IXadL_ZNS0_5alphaES5_EEEES5_S5_EEJEEES5_S5_EEEEES5_S5_ W
_ZN4Sass8Prelexer12alternativesIXadL_ZNS0_8sequenceIXadL_ZNS0_7exactlyILc92EEEPKcS5_EEXadL_ZNS0_8any_charES5_EEJEEES5_S5_EEXadL_ZNS2_IXadL_ZNS3_ILc35EEES5_S5_EEXadL_ZNS0_6negateIXadL_ZNS3_ILc123EEES5_S5_EEEES5_S5_EEJEEES5_S5_EEJXadL_ZNS0_14neg_class_charIXadL_ZNS0_21string_double_negatesEEEEES5_S5_EEEEES5_S5_ W
_ZN4Sass8Prelexer12alternativesIXadL_ZNS0_8sequenceIXadL_ZNS0_7exactlyILc92EEEPKcS5_EEXadL_ZNS0_8any_charES5_EEJEEES5_S5_EEXadL_ZNS2_IXadL_ZNS3_ILc35EEES5_S5_EEXadL_ZNS0_6negateIXadL_ZNS3_ILc123EEES5_S5_EEEES5_S5_EEJEEES5_S5_EEJXadL_ZNS0_14neg_class_charIXadL_ZNS0_21string_single_negatesEEEEES5_S5_EEEEES5_S5_ W
_ZN4Sass8Prelexer12alternativesIXadL_ZNS0_8sequenceIXadL_ZNS0_7exactlyILc92EEEPKcS5_EEXadL_ZNS3_ILc35EEES5_S5_EEJXadL_ZNS0_6negateIXadL_ZNS3_ILc123EEES5_S5_EEEES5_S5_EEEEES5_S5_EEXadL_ZNS2_IXadL_ZNS3_ILc33EEES5_S5_EEXadL_ZNS6_IXadL_ZNS0_5alphaES5_EEEES5_S5_EEJEEES5_S5_EEJEEES5_S5_ W
_ZN4Sass8Prelexer12alternativesIXadL_ZNS0_8sequenceIXadL_ZNS0_8one_plusIXadL_ZNS0_7exactlyILc45EEEPKcS6_EEEES6_S6_EEXadL_ZNS0_23strict_identifier_alphaES6_EEJEEES6_S6_EEEES6_S6_ W
_ZN4Sass8Prelexer12alternativesIXadL_ZNS0_8sequenceIXadL_ZNS0_8optionalIXadL_ZNS0_13pseudo_prefixEPKcEEEES5_S5_EEXadL_ZNS0_6negateIXadL_ZNS0_10uri_prefixES5_EEEES5_S5_EEJEEES5_S5_EEEES5_S5_ W
_ZN4Sass8Prelexer12alternativesIXadL_ZNS0_8sequenceIXadL_ZNS0_8optionalIXadL_ZNS0_16namespace_schemaEPKcEEEES5_S5_EEXadL_ZNS0_10identifierES5_EEJEEES5_S5_EEXadL_ZNS0_10identifierES5_EEJEEES5_S5_ W
_ZN4Sass8Prelexer12alternativesIXadL_ZNS0_8sequenceIXadL_ZNS0_8optionalIXadL_ZNS0_16namespace_schemaEPKcEEEES5_S5_EEXadL_ZNS0_12alternativesIXadL_ZNS2_IXadL_ZNS0_7exactlyILc35EEES5_S5_EEXadL_ZNS0_6negateIXadL_ZNS7_ILc123EEES5_S5_EEEES5_S5_EEJEEES5_S5_EEXadL_ZNS7_ILc46EEES5_S5_EEJXadL_ZNS2_IXadL_ZNS3_IXadL_ZNS0_13pseudo_prefixES5_EEEES5_S5_EEXadL_ZNS8_IXadL_ZNS0_10uri_prefixES5_EEEES5_S5_EEJEEES5_S5_EEEEES5_S5_EEJXadL_ZNS0_8one_plusIXadL_ZNS2_IXadL_ZNS0_9zero_plusIXadL_ZNS2_IXadL_ZNS7_ILc45EEES5_S5_EEXadL_ZNS0_15optional_spacesES5_EEJEEES5_S5_EEEES5_S5_EEXadL_ZNS6_IXadL_ZNS0_12kwd_optionalES5_EEXadL_ZNS7_ILc42EEES5_S5_EEJXadL_ZNS0_13quoted_stringES5_EEXadL_ZNS0_11interpolantES5_EEXadL_ZNS0_10identifierES5_EEXadL_ZNS0_8variableES5_EEXadL_ZNS0_10percentageES5_EEXadL_ZNS0_8binomialES5_EEXadL_ZNS0_9dimensionES5_EEXadL_ZNS0_5alnumES5_EEEEES5_S5_EEJEEES5_S5_EEEES5_S5_EEXadL_ZNSA_IXadL_ZNS7_ILc45EEES5_S5_EEEES5_S5_EEEEES5_S5_EEEES5_S5_ W
_ZN4Sass8Prelexer12alternativesIXadL_ZNS0_8sequenceIXadL_ZNS0_8optionalIXadL_ZNS0_1WEPKcEEEES5_S5_EEXadL_ZNS0_7exactlyILc41EEES5_S5_EEJEEES5_S5_EEXadL_ZNS0_9lookaheadIXadL_ZNS0_7exactlyIXadL_ZNS_9Constants11hash_lbraceEEEEES5_S5_EEEES5_S5_EEJEEES5_S5_ W
_ZN4Sass8Prelexer12alternativesIXadL_ZNS0_8sequenceIXadL_ZNS0_8optionalIXadL_ZNS0_4signEPKcEEEES5_S5_EEXadL_ZNS0_6digitsES5_EEJEEES5_S5_EEXadL_ZNS0_4signES5_EEJEEES5_S5_ W
_ZN4Sass8Prelexer12alternativesIXadL_ZNS0_8sequenceIXadL_ZNS0_8optionalIXadL_ZNS0_7exactlyILc36EEEPKcS6_EEEES6_S6_EEXadL_ZNS0_10identifierES6_EEJEEES6_S6_EEXadL_ZNS0_13quoted_stringES6_EEJXadL_ZNS4_ILc45EEES6_S6_EEEEES6_S6_ W
_ZN4Sass8Prelexer12alternativesIXadL_ZNS0_8sequenceIXadL_ZNS0_8optionalIXadL_ZNS0_7exactlyILc36EEEPKcS6_EEEES6_S6_EEXadL_ZNS0_10identifierES6_EEJEEES6_S6_EEXadL_ZNS4_ILc45EEES6_S6_EEJEEES6_S6_ W
_ZN4Sass8Prelexer12alternativesIXadL_ZNS0_8sequenceIXadL_ZNS0_9ampersandEPKcEEXadL_ZNS0_8one_plusIXadL_ZNS0_7exactlyILc45EEES4_S4_EEEES4_S4_EEJXadL_ZNS0_13word_boundaryES4_EEXadL_ZNS0_15optional_spacesES4_EEEEES4_S4_EEXadL_ZNS5_IXadL_ZNS1_IXadL_ZNS0_6spacesES4_EEXadL_ZNS0_13block_commentES4_EEJXadL_ZNS0_12line_commentES4_EEXadL_ZNS0_27schema_reference_combinatorES4_EEXadL_ZNS0_10class_charIXadL_ZNS_9Constants22selector_lookahead_opsEEEEES4_S4_EEXadL_ZNS7_IXadL_ZNS8_23selector_combinator_opsEEEEES4_S4_EEXadL_ZNS2_IXadL_ZNS6_ILc40EEES4_S4_EEXadL_ZNS0_15optional_spacesES4_EEJXadL_ZNS0_8optionalIXadL_ZNS0_16re_selector_listES4_EEEES4_S4_EEXadL_ZNS0_15optional_spacesES4_EEXadL_ZNS6_ILc41EEES4_S4_EEEEES4_S4_EEXadL_ZNS1_IXadL_ZNS0_11exact_matchES4_EEXadL_ZNS0_11class_matchES4_EEJXadL_ZNS0_10dash_matchES4_EEXadL_ZNS0_12prefix_matchES4_EEXadL_ZNS0_12suffix_matchES4_EEXadL_ZNS0_15substring_matchES4_EEEEES4_S4_EEXadL_ZNS2_IXadL_ZNS9_IXadL_ZNS0_16namespace_schemaES4_EEEES4_S4_EEXadL_ZNS1_IXadL_ZNS2_IXadL_ZNS6_ILc35EEES4_S4_EEXadL_ZNS0_6negateIXadL_ZNS6_ILc123EEES4_S4_EEEES4_S4_EEJEEES4_S4_EEXadL_ZNS6_ILc46EEES4_S4_EEJXadL_ZNS2_IXadL_ZNS9_IXadL_ZNS0_13pseudo_prefixES4_EEEES4_S4_EEXadL_ZNSA_IXadL_ZNS0_10uri_prefixES4_EEEES4_S4_EEJEEES4_S4_EEEEES4_S4_EEJXadL_ZNS5_IXadL_ZNS2_IXadL_ZNS0_9zero_plusIXadL_ZNS2_IXadL_ZNS6_ILc45EEES4_S4_EEXadL_ZNS0_15optional_spacesES4_EEJEEES4_S4_EEEES4_S4_EEXadL_ZNS1_IXadL_ZNS0_12kwd_optionalES4_EEXadL_ZNS6_ILc42EEES4_S4_EEJXadL_ZNS0_13quoted_stringES4_EEXadL_ZNS0_11interpolantES4_EEXadL_ZNS0_10identifierES4_EEXadL_ZNS0_8variableES4_EEXadL_ZNS0_10percentageES4_EEXadL_ZNS0_8binomialES4_EEXadL_ZNS0_9dimensionES4_EEXadL_ZNS0_5alnumES4_EEEEES4_S4_EEJEEES4_S4_EEEES4_S4_EEXadL_ZNSB_IXadL_ZNS6_ILc45EEES4_S4_EEEES4_S4_EEEEES4_S4_EEEEES4_S4_EEEES4_S4_EEJEEES4_S4_ W
_ZN4Sass8Prelexer12alternativesIXadL_ZNS0_8sequenceIXadL_ZNS0_9zero_plusIXadL_ZNS0_6digitsEPKcEEEES5_S5_EEXadL_ZNS0_7exactlyILc46EEES5_S5_EEJXadL_ZNS0_8one_plusIXadL_ZNS0_6digitsES5_EEEES5_S5_EEEEES5_S5_EEXadL_ZNS0_6digitsES5_EEJEEES5_S5_ W
_ZN4Sass8Prelexer12alternativesIXadL_ZNS0_8sequenceIXadL_ZNS2_IXadL_ZNS0_7exactlyIXadL_ZNS_9Constants10progid_kwdEEEEEPKcS6_EEXadL_ZNS0_7exactlyILc58EEES6_S6_EEJEEES6_S6_EEXadL_ZNS0_9zero_plusIXadL_ZNS0_12alternativesIXadL_ZNS0_10char_rangeILc97ELc122EEES6_S6_EEXadL_ZNS7_ILc46EEES6_S6_EEJEEES6_S6_EEEES6_S6_EEJEEES6_S6_EEEES6_S6_ W
_ZN4Sass8Prelexer12alternativesIXadL_ZNS0_8variableEPKcEEXadL_ZNS0_10percentageES3_EEJXadL_ZNS0_8binomialES3_EEXadL_ZNS0_9dimensionES3_EEXadL_ZNS0_5alnumES3_EEEEES3_S3_ W
_ZN4Sass8Prelexer12alternativesIXadL_ZNS0_8variableEPKcEEXadL_ZNS0_17identifier_schemaES3_EEJXadL_ZNS0_10identifierES3_EEEEES3_S3_ W
_ZN4Sass8Prelexer12alternativesIXadL_ZNS0_8variableEPKcEEXadL_ZNS0_17identifier_schemaES3_EEJXadL_ZNS0_10identifierES3_EEXadL_ZNS0_13quoted_stringES3_EEXadL_ZNS0_6numberES3_EEXadL_ZNS0_3hexES3_EEXadL_ZNS0_4hexaES3_EEEEES3_S3_ W
_ZN4Sass8Prelexer12alternativesIXadL_ZNS0_8variableEPKcEEXadL_ZNS0_17identifier_schemaES3_EEJXadL_ZNS0_10identifierES3_EEXadL_ZNS0_13quoted_stringES3_EEXadL_ZNS0_6numberES3_EEXadL_ZNS0_3hexES3_EEXadL_ZNS0_4hexaES3_EEXadL_ZNS0_8sequenceIXadL_ZNS0_7exactlyILc40EEES3_S3_EEXadL_ZNS0_16skip_over_scopesIXadL_ZNS5_ILc40EEES3_S3_EEXadL_ZNS5_ILc41EEES3_S3_EEEES3_S3_EEJEEES3_S3_EEEEES3_S3_ W
_ZN4Sass8Prelexer12alternativesIXadL_ZNS0_8variableEPKcEEXadL_ZNS0_5alnumES3_EEJXadL_ZNS0_8sequenceIXadL_ZNS0_7exactlyILc92EEES3_S3_EEXadL_ZNS0_8any_charES3_EEJEEES3_S3_EEEEES3_S3_ W
_ZN4Sass8Prelexer12alternativesIXadL_ZNS0_8variableEPKcEEXadL_ZNS0_6numberES3_EEJXadL_ZNS0_27static_reference_combinatorES3_EEEEES3_S3_ W
_ZN4Sass8Prelexer12alternativesIXadL_ZNS0_8variableEPKcEEXadL_ZNS0_8sequenceIXadL_ZNS0_16parenthese_scopeES3_EEXadL_ZNS0_11interpolantES3_EEJXadL_ZNS0_8optionalIXadL_ZNS0_13quoted_stringES3_EEEES3_S3_EEEEES3_S3_EEJEEES3_S3_ W
_ZN4Sass8Prelexer12alternativesIXadL_ZNS0_9dimensionEPKcEEXadL_ZNS0_10percentageES3_EEJXadL_ZNS0_6numberES3_EEXadL_ZNS0_17identifier_alnumsES3_EEEEES3_S3_ W
_ZN4Sass8Prelexer12alternativesIXadL_ZNS0_9dimensionEPKcEEXadL_ZNS0_5alnumES3_EEJEEES3_S3_ W
_ZN4Sass8Prelexer12alternativesIXadL_ZNS0_9dimensionEPKcEEXadL_ZNS0_6numberES3_EEJEEES3_S3_ W
_ZN4Sass8Prelexer12alternativesIXadL_ZNS0_9dimensionEPKcEEXadL_ZNS0_8variableES3_EEJXadL_ZNS0_5alnumES3_EEXadL_ZNS0_8sequenceIXadL_ZNS0_7exactlyILc92EEES3_S3_EEXadL_ZNS0_8any_charES3_EEJEEES3_S3_EEEEES3_S3_ W
_ZN4Sass8Prelexer12alternativesIXadL_ZNS0_9ie_progidEPKcEEEES3_S3_ W
_ZN4Sass8Prelexer12alternativesIXadL_ZNS0_9lookaheadIXadL_ZNS0_7exactlyIXadL_ZNS_9Constants11hash_lbraceEEEEEPKcS6_EEEES6_S6_EEEES6_S6_ W
_ZN4Sass8Prelexer12alternativesIXadL_ZNS0_9universalEPKcEEXadL_ZNS0_9dimensionES3_EEJXadL_ZNS0_10percentageES3_EEXadL_ZNS0_6numberES3_EEXadL_ZNS0_17identifier_alnumsES3_EEEEES3_S3_ W
_ZN4Sass8Prelexer12alternativesIXadL_ZNS1_IXadL_ZNS0_11exact_matchEPKcEEXadL_ZNS0_11class_matchES3_EEJXadL_ZNS0_10dash_matchES3_EEXadL_ZNS0_12prefix_matchES3_EEXadL_ZNS0_12suffix_matchES3_EEXadL_ZNS0_15substring_matchES3_EEEEES3_S3_EEXadL_ZNS0_8sequenceIXadL_ZNS0_8optionalIXadL_ZNS0_16namespace_schemaES3_EEEES3_S3_EEXadL_ZNS1_IXadL_ZNS4_IXadL_ZNS0_7exactlyILc35EEES3_S3_EEXadL_ZNS0_6negateIXadL_ZNS6_ILc123EEES3_S3_EEEES3_S3_EEJEEES3_S3_EEXadL_ZNS6_ILc46EEES3_S3_EEJXadL_ZNS4_IXadL_ZNS5_IXadL_ZNS0_13pseudo_prefixES3_EEEES3_S3_EEXadL_ZNS7_IXadL_ZNS0_10uri_prefixES3_EEEES3_S3_EEJEEES3_S3_EEEEES3_S3_EEJXadL_ZNS0_8one_plusIXadL_ZNS4_IXadL_ZNS0_9zero_plusIXadL_ZNS4_IXadL_ZNS6_ILc45EEES3_S3_EEXadL_ZNS0_15optional_spacesES3_EEJEEES3_S3_EEEES3_S3_EEXadL_ZNS1_IXadL_ZNS0_12kwd_optionalES3_EEXadL_ZNS6_ILc42EEES3_S3_EEJXadL_ZNS0_13quoted_stringES3_EEXadL_ZNS0_11interpolantES3_EEXadL_ZNS0_10identifierES3_EEXadL_ZNS0_8variableES3_EEXadL_ZNS0_10percentageES3_EEXadL_ZNS0_8binomialES3_EEXadL_ZNS0_9dimensionES3_EEXadL_ZNS0_5alnumES3_EEEEES3_S3_EEJEEES3_S3_EEEES3_S3_EEXadL_ZNS9_IXadL_ZNS6_ILc45EEES3_S3_EEEES3_S3_EEEEES3_S3_EEJEEES3_S3_ W
_ZN4Sass8Prelexer12any_char_butILc34EEEPKcS3_ W
_ZN4Sass8Prelexer12any_char_butILc39EEEPKcS3_ W
_ZN4Sass8Prelexer12calc_fn_callEPKc T
_ZN4Sass8Prelexer12css_commentsEPKc T
_ZN4Sass8Prelexer12default_flagEPKc T
_ZN4Sass8Prelexer12delimited_byIXadL_ZNS_9Constants10slash_starEEEXadL_ZNS2_10star_slashEEELb0EEEPKcS4_ W
_ZN4Sass8Prelexer12is_characterEc T
_ZN4Sass8Prelexer12kwd_functionEPKc T
_ZN4Sass8Prelexer12kwd_optionalEPKc T
_ZN4Sass8Prelexer12line_commentEPKc T
_ZN4Sass8Prelexer12minmax_rangeILm1ELm3EXadL_ZNS0_6xdigitEPKcEEEES3_S3_ W
_ZN4Sass8Prelexer12padded_tokenILm6EXadL_ZNS0_6xdigitEPKcEEXadL_ZNS0_7exactlyILc63EEES3_S3_EEEES3_S3_ W
_ZN4Sass8Prelexer12prefix_matchEPKc T
_ZN4Sass8Prelexer12re_linebreakEPKc T
_ZN4Sass8Prelexer12static_valueEPKc T
_ZN4Sass8Prelexer12suffix_matchEPKc T
_ZN4Sass8Prelexer12value_schemaEPKc T
_ZN4Sass8Prelexer13block_commentEPKc T
_ZN4Sass8Prelexer13ie_expressionEPKc T
_ZN4Sass8Prelexer13kwd_importantEPKc T
_ZN4Sass8Prelexer13number_prefixEPKc T
_ZN4Sass8Prelexer13pseudo_prefixEPKc T
_ZN4Sass8Prelexer13quoted_stringEPKc T
_ZN4Sass8Prelexer13re_functionalEPKc T
_ZN4Sass8Prelexer13static_stringEPKc T
_ZN4Sass8Prelexer13type_selectorEPKc T
_ZN4Sass8Prelexer13uri_characterEPKc T
_ZN4Sass8Prelexer13word_boundaryEPKc T
_ZN4Sass8Prelexer14attribute_nameEPKc T
_ZN4Sass8Prelexer14count_intervalIXadL_ZNS0_11interpolantEPKcEEEEjS3_S3_ W
_ZN4Sass8Prelexer14css_identifierEPKc T
_ZN4Sass8Prelexer14css_whitespaceEPKc T
_ZN4Sass8Prelexer14ie_keyword_argEPKc T
_ZN4Sass8Prelexer14multiple_unitsEPKc T
_ZN4Sass8Prelexer14neg_class_charIXadL_ZNS0_21string_double_negatesEEEEEPKcS3_ W
_ZN4Sass8Prelexer14neg_class_charIXadL_ZNS0_21string_single_negatesEEEEEPKcS3_ W
_ZN4Sass8Prelexer14neg_class_charIXadL_ZNS0_24css_variable_url_negatesEEEEEPKcS3_ W
_ZN4Sass8Prelexer14neg_class_charIXadL_ZNS0_34css_variable_url_top_level_negatesEEEEEPKcS3_ W
_ZN4Sass8Prelexer14neg_class_charIXadL_ZNS_9Constants22almost_any_value_classEEEEEPKcS4_ W
_ZN4Sass8Prelexer14re_special_funEPKc T
_ZN4Sass8Prelexer14real_uri_valueEPKc T
_ZN4Sass8Prelexer15list_terminatorEPKc T
_ZN4Sass8Prelexer15optional_spacesEPKc T
_ZN4Sass8Prelexer15real_uri_suffixEPKc T
_ZN4Sass8Prelexer15static_propertyEPKc T
_ZN4Sass8Prelexer15substring_matchEPKc T
_ZN4Sass8Prelexer15unit_identifierEPKc T
_ZN4Sass8Prelexer15unsigned_numberEPKc T
_ZN4Sass8Prelexer16elseif_directiveEPKc T
_ZN4Sass8Prelexer16hyphens_and_nameEPKc T
_ZN4Sass8Prelexer16identifier_alnumEPKc T
_ZN4Sass8Prelexer16identifier_alphaEPKc T
_ZN4Sass8Prelexer16is_uri_characterEc T
_ZN4Sass8Prelexer16kwd_if_directiveEPKc T
_ZN4Sass8Prelexer16namespace_prefixEPKc T
_ZN4Sass8Prelexer16namespace_schemaEPKc T
_ZN4Sass8Prelexer16parenthese_scopeEPKc T
_ZN4Sass8Prelexer16re_selector_listEPKc T
_ZN4Sass8Prelexer16re_type_selectorEPKc T
_ZN4Sass8Prelexer16recursive_scopesIXadL_ZNS0_7exactlyIXadL_ZNS_9Constants11hash_lbraceEEEEEPKcS5_EEXadL_ZNS2_IXadL_ZNS3_6rbraceEEEEES5_S5_EEEES5_S5_ W
_ZN4Sass8Prelexer16skip_over_scopesIXadL_ZNS0_7exactlyILc40EEEPKcS4_EEXadL_ZNS2_ILc41EEES4_S4_EEEES4_S4_ W
_ZN4Sass8Prelexer16skip_over_scopesIXadL_ZNS0_7exactlyILc40EEEPKcS4_EEXadL_ZNS2_ILc41EEES4_S4_EEEES4_S4_S4_ W
_ZN4Sass8Prelexer16skip_over_scopesIXadL_ZNS0_7exactlyIXadL_ZNS_9Constants11hash_lbraceEEEEEPKcS5_EEXadL_ZNS2_IXadL_ZNS3_6rbraceEEEEES5_S5_EEEES5_S5_ W
_ZN4Sass8Prelexer16skip_over_scopesIXadL_ZNS0_7exactlyIXadL_ZNS_9Constants11hash_lbraceEEEEEPKcS5_EEXadL_ZNS2_IXadL_ZNS3_6rbraceEEEEES5_S5_EEEES5_S5_S5_ W
_ZN4Sass8Prelexer16static_componentEPKc T
_ZN4Sass8Prelexer17css_ip_identifierEPKc T
_ZN4Sass8Prelexer17functional_schemaEPKc T
_ZN4Sass8Prelexer17identifier_alnumsEPKc T
_ZN4Sass8Prelexer17identifier_schemaEPKc T
_ZN4Sass8Prelexer17kwd_for_directiveEPKc T
_ZN4Sass8Prelexer17strict_identifierEPKc T
_ZN4Sass8Prelexer18css_variable_valueEPKc T
_ZN4Sass8Prelexer18kwd_each_directiveEPKc T
_ZN4Sass8Prelexer18kwd_else_directiveEPKc T
_ZN4Sass8Prelexer18kwd_with_directiveEPKc T
_ZN4Sass8Prelexer18re_pseudo_selectorEPKc T
_ZN4Sass8Prelexer18re_string_uri_openEPKc T
_ZN4Sass8Prelexer18value_combinationsEPKc T
_ZN4Sass8Prelexer19escapable_characterEPKc T
_ZN4Sass8Prelexer19kwd_while_directiveEPKc T
_ZN4Sass8Prelexer19re_string_uri_closeEPKc T
_ZN4Sass8Prelexer1HEPKc T
_ZN4Sass8Prelexer1WEPKc T
_ZN4Sass8Prelexer20double_quoted_stringEPKc T
_ZN4Sass8Prelexer20ie_keyword_arg_valueEPKc T
_ZN4Sass8Prelexer20kwd_return_directiveEPKc T
_ZN4Sass8Prelexer20re_special_directiveEPKc T
_ZN4Sass8Prelexer20re_static_expressionEPKc T
_ZN4Sass8Prelexer20single_quoted_stringEPKc T
_ZN4Sass8Prelexer21kwd_charset_directiveEPKc T
_ZN4Sass8Prelexer21kwd_content_directiveEPKc T
_ZN4Sass8Prelexer21kwd_include_directiveEPKc T
_ZN4Sass8Prelexer21kwd_without_directiveEPKc T
_ZN4Sass8Prelexer21optional_css_commentsEPKc T
_ZN4Sass8Prelexer21re_prefixed_directiveEPKc T
_ZN4Sass8Prelexer21re_string_double_openEPKc T
_ZN4Sass8Prelexer21re_string_single_openEPKc T
_ZN4Sass8Prelexer21space_list_terminatorEPKc T
_ZN4Sass8Prelexer21string_double_negatesE R
_ZN4Sass8Prelexer21string_single_negatesE R
_ZN4Sass8Prelexer22find_first_in_intervalIXadL_ZNS0_7exactlyIXadL_ZNS_9Constants11hash_lbraceEEEEEPKcS5_EEEES5_S5_S5_ W
_ZN4Sass8Prelexer22find_first_in_intervalIXadL_ZNS0_7exactlyIXadL_ZNS_9Constants11hash_lbraceEEEEEPKcS5_EEXadL_ZNS0_13block_commentES5_EEEES5_S5_S5_ W
_ZN4Sass8Prelexer22hyphens_and_identifierEPKc T
_ZN4Sass8Prelexer22is_escapable_characterEc T
_ZN4Sass8Prelexer22kwd_supports_directiveEPKc T
_ZN4Sass8Prelexer22re_string_double_closeEPKc T
_ZN4Sass8Prelexer22re_string_single_closeEPKc T
_ZN4Sass8Prelexer23ie_keyword_arg_propertyEPKc T
_ZN4Sass8Prelexer23optional_css_whitespaceEPKc T
_ZN4Sass8Prelexer23re_reference_combinatorEPKc T
_ZN4Sass8Prelexer23strict_identifier_alnumEPKc T
_ZN4Sass8Prelexer23strict_identifier_alphaEPKc T
_ZN4Sass8Prelexer24css_variable_url_negatesE R
_ZN4Sass8Prelexer25re_almost_any_value_tokenEPKc T
_ZN4Sass8Prelexer27schema_reference_combinatorEPKc T
_ZN4Sass8Prelexer27static_reference_combinatorEPKc T
_ZN4Sass8Prelexer28css_variable_top_level_valueEPKc T
_ZN4Sass8Prelexer2opEPKc T
_ZN4Sass8Prelexer34css_variable_url_top_level_negatesE R
_ZN4Sass8Prelexer3hexEPKc T
_ZN4Sass8Prelexer3oddEPKc T
_ZN4Sass8Prelexer4evenEPKc T
_ZN4Sass8Prelexer4hex0EPKc T
_ZN4Sass8Prelexer4hexaEPKc T
_ZN4Sass8Prelexer4nameEPKc T
_ZN4Sass8Prelexer4signEPKc T
_ZN4Sass8Prelexer4wordIXadL_ZNS_9Constants10extend_kwdEEEEEPKcS4_ W
_ZN4Sass8Prelexer4wordIXadL_ZNS_9Constants10global_kwdEEEEEPKcS4_ W
_ZN4Sass8Prelexer4wordIXadL_ZNS_9Constants10import_kwdEEEEEPKcS4_ W
_ZN4Sass8Prelexer4wordIXadL_ZNS_9Constants10progid_kwdEEEEEPKcS4_ W
_ZN4Sass8Prelexer4wordIXadL_ZNS_9Constants10return_kwdEEEEEPKcS4_ W
_ZN4Sass8Prelexer4wordIXadL_ZNS_9Constants11at_root_kwdEEEEEPKcS4_ W
_ZN4Sass8Prelexer4wordIXadL_ZNS_9Constants11charset_kwdEEEEEPKcS4_ W
_ZN4Sass8Prelexer4wordIXadL_ZNS_9Constants11content_kwdEEEEEPKcS4_ W
_ZN4Sass8Prelexer4wordIXadL_ZNS_9Constants11default_kwdEEEEEPKcS4_ W
_ZN4Sass8Prelexer4wordIXadL_ZNS_9Constants11include_kwdEEEEEPKcS4_ W
_ZN4Sass8Prelexer4wordIXadL_ZNS_9Constants11through_kwdEEEEEPKcS4_ W
_ZN4Sass8Prelexer4wordIXadL_ZNS_9Constants11without_kwdEEEEEPKcS4_ W
_ZN4Sass8Prelexer4wordIXadL_ZNS_9Constants12function_kwdEEEEEPKcS4_ W
_ZN4Sass8Prelexer4wordIXadL_ZNS_9Constants12optional_kwdEEEEEPKcS4_ W
_ZN4Sass8Prelexer4wordIXadL_ZNS_9Constants12supports_kwdEEEEEPKcS4_ W
_ZN4Sass8Prelexer4wordIXadL_ZNS_9Constants13important_kwdEEEEEPKcS4_ W
_ZN4Sass8Prelexer4wordIXadL_ZNS_9Constants14expression_kwdEEEEEPKcS4_ W
_ZN4Sass8Prelexer4wordIXadL_ZNS_9Constants17if_after_else_kwdEEEEEPKcS4_ W
_ZN4Sass8Prelexer4wordIXadL_ZNS_9Constants17pseudo_not_fn_kwdEEEEEPKcS4_ W
_ZN4Sass8Prelexer4wordIXadL_ZNS_9Constants6if_kwdEEEEEPKcS4_ W
_ZN4Sass8Prelexer4wordIXadL_ZNS_9Constants6in_kwdEEEEEPKcS4_ W
_ZN4Sass8Prelexer4wordIXadL_ZNS_9Constants6to_kwdEEEEEPKcS4_ W
_ZN4Sass8Prelexer4wordIXadL_ZNS_9Constants7for_kwdEEEEEPKcS4_ W
_ZN4Sass8Prelexer4wordIXadL_ZNS_9Constants7odd_kwdEEEEEPKcS4_ W
_ZN4Sass8Prelexer4wordIXadL_ZNS_9Constants8each_kwdEEEEEPKcS4_ W
_ZN4Sass8Prelexer4wordIXadL_ZNS_9Constants8else_kwdEEEEEPKcS4_ W
_ZN4Sass8Prelexer4wordIXadL_ZNS_9Constants8even_kwdEEEEEPKcS4_ W
_ZN4Sass8Prelexer4wordIXadL_ZNS_9Constants8from_kwdEEEEEPKcS4_ W
_ZN4Sass8Prelexer4wordIXadL_ZNS_9Constants8null_kwdEEEEEPKcS4_ W
_ZN4Sass8Prelexer4wordIXadL_ZNS_9Constants8true_kwdEEEEEPKcS4_ W
_ZN4Sass8Prelexer4wordIXadL_ZNS_9Constants8warn_kwdEEEEEPKcS4_ W
_ZN4Sass8Prelexer4wordIXadL_ZNS_9Constants8with_kwdEEEEEPKcS4_ W
_ZN4Sass8Prelexer4wordIXadL_ZNS_9Constants9debug_kwdEEEEEPKcS4_ W
_ZN4Sass8Prelexer4wordIXadL_ZNS_9Constants9error_kwdEEEEEPKcS4_ W
_ZN4Sass8Prelexer4wordIXadL_ZNS_9Constants9false_kwdEEEEEPKcS4_ W
_ZN4Sass8Prelexer4wordIXadL_ZNS_9Constants9media_kwdEEEEEPKcS4_ W
_ZN4Sass8Prelexer4wordIXadL_ZNS_9Constants9mixin_kwdEEEEEPKcS4_ W
_ZN4Sass8Prelexer4wordIXadL_ZNS_9Constants9while_kwdEEEEEPKcS4_ W
_ZN4Sass8Prelexer5alnumEPKc T
_ZN4Sass8Prelexer5alphaEPKc T
_ZN4Sass8Prelexer5digitEPKc T
_ZN4Sass8Prelexer5spaceEPKc T
_ZN4Sass8Prelexer6ESCAPEEPKc T
_ZN4Sass8Prelexer6digitsEPKc T
_ZN4Sass8Prelexer6hyphenEPKc T
_ZN4Sass8Prelexer6kwd_atEPKc T
_ZN4Sass8Prelexer6kwd_eqEPKc T
_ZN4Sass8Prelexer6kwd_gtEPKc T
_ZN4Sass8Prelexer6kwd_inEPKc T
_ZN4Sass8Prelexer6kwd_ltEPKc T
_ZN4Sass8Prelexer6kwd_orEPKc T
_ZN4Sass8Prelexer6kwd_toEPKc T
_ZN4Sass8Prelexer6negateIXadL_ZNS0_10uri_prefixEPKcEEEES3_S3_ W
_ZN4Sass8Prelexer6negateIXadL_ZNS0_12alternativesIXadL_ZNS0_7exactlyILc47EEEPKcS5_EEXadL_ZNS3_ILc42EEES5_S5_EEJEEES5_S5_EEEES5_S5_ W
_ZN4Sass8Prelexer6negateIXadL_ZNS0_15unsigned_numberEPKcEEEES3_S3_ W
_ZN4Sass8Prelexer6negateIXadL_ZNS0_5alphaEPKcEEEES3_S3_ W
_ZN4Sass8Prelexer6negateIXadL_ZNS0_5digitEPKcEEEES3_S3_ W
_ZN4Sass8Prelexer6negateIXadL_ZNS0_5spaceEPKcEEEES3_S3_ W
_ZN4Sass8Prelexer6negateIXadL_ZNS0_7exactlyILc123EEEPKcS4_EEEES4_S4_ W
_ZN4Sass8Prelexer6negateIXadL_ZNS0_7exactlyILc37EEEPKcS4_EEEES4_S4_ W
_ZN4Sass8Prelexer6negateIXadL_ZNS0_7exactlyILc42EEEPKcS4_EEEES4_S4_ W
_ZN4Sass8Prelexer6negateIXadL_ZNS0_7exactlyILc45EEEPKcS4_EEEES4_S4_ W
_ZN4Sass8Prelexer6negateIXadL_ZNS0_7exactlyILc61EEEPKcS4_EEEES4_S4_ W
_ZN4Sass8Prelexer6negateIXadL_ZNS0_7exactlyIXadL_ZNS_9Constants10url_fn_kwdEEEEEPKcS5_EEEES5_S5_ W
_ZN4Sass8Prelexer6negateIXadL_ZNS0_8sequenceIXadL_ZNS0_7exactlyIXadL_ZNS_9Constants11calc_fn_kwdEEEEEPKcS6_EEXadL_ZNS0_7exactlyILc40EEES6_S6_EEJEEES6_S6_EEEES6_S6_ W
_ZN4Sass8Prelexer6negateIXadL_ZNS0_8sequenceIXadL_ZNS0_7exactlyIXadL_ZNS_9Constants7url_kwdEEEEEPKcS6_EEXadL_ZNS0_7exactlyILc40EEES6_S6_EEJEEES6_S6_EEEES6_S6_ W
_ZN4Sass8Prelexer6numberEPKc T
_ZN4Sass8Prelexer6spacesEPKc T
_ZN4Sass8Prelexer6xdigitEPKc T
_ZN4Sass8Prelexer7betweenIXadL_ZNS0_1HEPKcEELm1ELm6EEES3_S3_ W
_ZN4Sass8Prelexer7exactlyILc101EEEPKcS3_ W
_ZN4Sass8Prelexer7exactlyILc108EEEPKcS3_ W
_ZN4Sass8Prelexer7exactlyILc10EEEPKcS3_ W
_ZN4Sass8Prelexer7exactlyILc110EEEPKcS3_ W
_ZN4Sass8Prelexer7exactlyILc114EEEPKcS3_ W
_ZN4Sass8Prelexer7exactlyILc117EEEPKcS3_ W
_ZN4Sass8Prelexer7exactlyILc120EEEPKcS3_ W
_ZN4Sass8Prelexer7exactlyILc123EEEPKcS3_ W
_ZN4Sass8Prelexer7exactlyILc124EEEPKcS3_ W
_ZN4Sass8Prelexer7exactlyILc125EEEPKcS3_ W
_ZN4Sass8Prelexer7exactlyILc12EEEPKcS3_ W
_ZN4Sass8Prelexer7exactlyILc13EEEPKcS3_ W
_ZN4Sass8Prelexer7exactlyILc32EEEPKcS3_ W
_ZN4Sass8Prelexer7exactlyILc33EEEPKcS3_ W
_ZN4Sass8Prelexer7exactlyILc34EEEPKcS3_ W
_ZN4Sass8Prelexer7exactlyILc35EEEPKcS3_ W
_ZN4Sass8Prelexer7exactlyILc36EEEPKcS3_ W
_ZN4Sass8Prelexer7exactlyILc37EEEPKcS3_ W
_ZN4Sass8Prelexer7exactlyILc38EEEPKcS3_ W
_ZN4Sass8Prelexer7exactlyILc39EEEPKcS3_ W
_ZN4Sass8Prelexer7exactlyILc40EEEPKcS3_ W
_ZN4Sass8Prelexer7exactlyILc41EEEPKcS3_ W
_ZN4Sass8Prelexer7exactlyILc42EEEPKcS3_ W
_ZN4Sass8Prelexer7exactlyILc43EEEPKcS3_ W
_ZN4Sass8Prelexer7exactlyILc44EEEPKcS3_ W
_ZN4Sass8Prelexer7exactlyILc45EEEPKcS3_ W
_ZN4Sass8Prelexer7exactlyILc46EEEPKcS3_ W
_ZN4Sass8Prelexer7exactlyILc47EEEPKcS3_ W
_ZN4Sass8Prelexer7exactlyILc48EEEPKcS3_ W
_ZN4Sass8Prelexer7exactlyILc58EEEPKcS3_ W
_ZN4Sass8Prelexer7exactlyILc59EEEPKcS3_ W
_ZN4Sass8Prelexer7exactlyILc61EEEPKcS3_ W
_ZN4Sass8Prelexer7exactlyILc62EEEPKcS3_ W
_ZN4Sass8Prelexer7exactlyILc63EEEPKcS3_ W
_ZN4Sass8Prelexer7exactlyILc64EEEPKcS3_ W
_ZN4Sass8Prelexer7exactlyILc85EEEPKcS3_ W
_ZN4Sass8Prelexer7exactlyILc91EEEPKcS3_ W
_ZN4Sass8Prelexer7exactlyILc92EEEPKcS3_ W
_ZN4Sass8Prelexer7exactlyILc93EEEPKcS3_ W
_ZN4Sass8Prelexer7exactlyILc95EEEPKcS3_ W
_ZN4Sass8Prelexer7exactlyILc9EEEPKcS3_ W
_ZN4Sass8Prelexer7exactlyIXadL_ZNS_9Constants10extend_kwdEEEEEPKcS4_ W
_ZN4Sass8Prelexer7exactlyIXadL_ZNS_9Constants10global_kwdEEEEEPKcS4_ W
_ZN4Sass8Prelexer7exactlyIXadL_ZNS_9Constants10import_kwdEEEEEPKcS4_ W
_ZN4Sass8Prelexer7exactlyIXadL_ZNS_9Constants10pipe_equalEEEEEPKcS4_ W
_ZN4Sass8Prelexer7exactlyIXadL_ZNS_9Constants10progid_kwdEEEEEPKcS4_ W
_ZN4Sass8Prelexer7exactlyIXadL_ZNS_9Constants10return_kwdEEEEEPKcS4_ W
_ZN4Sass8Prelexer7exactlyIXadL_ZNS_9Constants10slash_starEEEEEPKcS4_ W
_ZN4Sass8Prelexer7exactlyIXadL_ZNS_9Constants10star_equalEEEEEPKcS4_ W
_ZN4Sass8Prelexer7exactlyIXadL_ZNS_9Constants10star_slashEEEEEPKcS4_ W
_ZN4Sass8Prelexer7exactlyIXadL_ZNS_9Constants10url_fn_kwdEEEEEPKcS4_ W
_ZN4Sass8Prelexer7exactlyIXadL_ZNS_9Constants11at_root_kwdEEEEEPKcS4_ W
_ZN4Sass8Prelexer7exactlyIXadL_ZNS_9Constants11calc_fn_kwdEEEEEPKcS4_ W
_ZN4Sass8Prelexer7exactlyIXadL_ZNS_9Constants11caret_equalEEEEEPKcS4_ W
_ZN4Sass8Prelexer7exactlyIXadL_ZNS_9Constants11charset_kwdEEEEEPKcS4_ W
_ZN4Sass8Prelexer7exactlyIXadL_ZNS_9Constants11content_kwdEEEEEPKcS4_ W
_ZN4Sass8Prelexer7exactlyIXadL_ZNS_9Constants11default_kwdEEEEEPKcS4_ W
_ZN4Sass8Prelexer7exactlyIXadL_ZNS_9Constants11hash_lbraceEEEEEPKcS4_ W
_ZN4Sass8Prelexer7exactlyIXadL_ZNS_9Constants11include_kwdEEEEEPKcS4_ W
_ZN4Sass8Prelexer7exactlyIXadL_ZNS_9Constants11slash_slashEEEEEPKcS4_ W
_ZN4Sass8Prelexer7exactlyIXadL_ZNS_9Constants11through_kwdEEEEEPKcS4_ W
_ZN4Sass8Prelexer7exactlyIXadL_ZNS_9Constants11tilde_equalEEEEEPKcS4_ W
_ZN4Sass8Prelexer7exactlyIXadL_ZNS_9Constants11without_kwdEEEEEPKcS4_ W
_ZN4Sass8Prelexer7exactlyIXadL_ZNS_9Constants12dollar_equalEEEEEPKcS4_ W
_ZN4Sass8Prelexer7exactlyIXadL_ZNS_9Constants12function_kwdEEEEEPKcS4_ W
_ZN4Sass8Prelexer7exactlyIXadL_ZNS_9Constants12optional_kwdEEEEEPKcS4_ W
_ZN4Sass8Prelexer7exactlyIXadL_ZNS_9Constants12supports_kwdEEEEEPKcS4_ W
_ZN4Sass8Prelexer7exactlyIXadL_ZNS_9Constants13important_kwdEEEEEPKcS4_ W
_ZN4Sass8Prelexer7exactlyIXadL_ZNS_9Constants14expression_kwdEEEEEPKcS4_ W
_ZN4Sass8Prelexer7exactlyIXadL_ZNS_9Constants17if_after_else_kwdEEEEEPKcS4_ W
_ZN4Sass8Prelexer7exactlyIXadL_ZNS_9Constants17pseudo_not_fn_kwdEEEEEPKcS4_ W
_ZN4Sass8Prelexer7exactlyIXadL_ZNS_9Constants25selector_combinator_childEEEEEPKcS4_ W
_ZN4Sass8Prelexer7exactlyIXadL_ZNS_9Constants27selector_combinator_generalEEEEEPKcS4_ W
_ZN4Sass8Prelexer7exactlyIXadL_ZNS_9Constants28selector_combinator_adjacentEEEEEPKcS4_ W
_ZN4Sass8Prelexer7exactlyIXadL_ZNS_9Constants2eqEEEEEPKcS4_ W
_ZN4Sass8Prelexer7exactlyIXadL_ZNS_9Constants2gtEEEEEPKcS4_ W
_ZN4Sass8Prelexer7exactlyIXadL_ZNS_9Constants2ltEEEEEPKcS4_ W
_ZN4Sass8Prelexer7exactlyIXadL_ZNS_9Constants3gteEEEEEPKcS4_ W
_ZN4Sass8Prelexer7exactlyIXadL_ZNS_9Constants3lteEEEEEPKcS4_ W
_ZN4Sass8Prelexer7exactlyIXadL_ZNS_9Constants3neqEEEEEPKcS4_ W
_ZN4Sass8Prelexer7exactlyIXadL_ZNS_9Constants6if_kwdEEEEEPKcS4_ W
_ZN4Sass8Prelexer7exactlyIXadL_ZNS_9Constants6in_kwdEEEEEPKcS4_ W
_ZN4Sass8Prelexer7exactlyIXadL_ZNS_9Constants6rbraceEEEEEPKcS4_ W
_ZN4Sass8Prelexer7exactlyIXadL_ZNS_9Constants6to_kwdEEEEEPKcS4_ W
_ZN4Sass8Prelexer7exactlyIXadL_ZNS_9Constants7for_kwdEEEEEPKcS4_ W
_ZN4Sass8Prelexer7exactlyIXadL_ZNS_9Constants7odd_kwdEEEEEPKcS4_ W
_ZN4Sass8Prelexer7exactlyIXadL_ZNS_9Constants7url_kwdEEEEEPKcS4_ W
_ZN4Sass8Prelexer7exactlyIXadL_ZNS_9Constants8each_kwdEEEEEPKcS4_ W
_ZN4Sass8Prelexer7exactlyIXadL_ZNS_9Constants8ellipsisEEEEEPKcS4_ W
_ZN4Sass8Prelexer7exactlyIXadL_ZNS_9Constants8else_kwdEEEEEPKcS4_ W
_ZN4Sass8Prelexer7exactlyIXadL_ZNS_9Constants8even_kwdEEEEEPKcS4_ W
_ZN4Sass8Prelexer7exactlyIXadL_ZNS_9Constants8from_kwdEEEEEPKcS4_ W
_ZN4Sass8Prelexer7exactlyIXadL_ZNS_9Constants8null_kwdEEEEEPKcS4_ W
_ZN4Sass8Prelexer7exactlyIXadL_ZNS_9Constants8true_kwdEEEEEPKcS4_ W
_ZN4Sass8Prelexer7exactlyIXadL_ZNS_9Constants8warn_kwdEEEEEPKcS4_ W
_ZN4Sass8Prelexer7exactlyIXadL_ZNS_9Constants8with_kwdEEEEEPKcS4_ W
_ZN4Sass8Prelexer7exactlyIXadL_ZNS_9Constants9debug_kwdEEEEEPKcS4_ W
_ZN4Sass8Prelexer7exactlyIXadL_ZNS_9Constants9error_kwdEEEEEPKcS4_ W
_ZN4Sass8Prelexer7exactlyIXadL_ZNS_9Constants9false_kwdEEEEEPKcS4_ W
_ZN4Sass8Prelexer7exactlyIXadL_ZNS_9Constants9media_kwdEEEEEPKcS4_ W
_ZN4Sass8Prelexer7exactlyIXadL_ZNS_9Constants9mixin_kwdEEEEEPKcS4_ W
_ZN4Sass8Prelexer7exactlyIXadL_ZNS_9Constants9while_kwdEEEEEPKcS4_ W
_ZN4Sass8Prelexer7hyphensEPKc T
_ZN4Sass8Prelexer7id_nameEPKc T
_ZN4Sass8Prelexer7keywordIXadL_ZNS_9Constants6or_kwdEEEEEPKcS4_ W
_ZN4Sass8Prelexer7keywordIXadL_ZNS_9Constants7and_kwdEEEEEPKcS4_ W
_ZN4Sass8Prelexer7keywordIXadL_ZNS_9Constants7not_kwdEEEEEPKcS4_ W
_ZN4Sass8Prelexer7keywordIXadL_ZNS_9Constants8only_kwdEEEEEPKcS4_ W
_ZN4Sass8Prelexer7keywordIXadL_ZNS_9Constants9using_kwdEEEEEPKcS4_ W
_ZN4Sass8Prelexer7kwd_andEPKc T
_ZN4Sass8Prelexer7kwd_dbgEPKc T
_ZN4Sass8Prelexer7kwd_dotEPKc T
_ZN4Sass8Prelexer7kwd_errEPKc T
_ZN4Sass8Prelexer7kwd_gteEPKc T
_ZN4Sass8Prelexer7kwd_lteEPKc T
_ZN4Sass8Prelexer7kwd_neqEPKc T
_ZN4Sass8Prelexer7kwd_notEPKc T
_ZN4Sass8Prelexer8NONASCIIEPKc T
_ZN4Sass8Prelexer8UUNICODEEPKc T
_ZN4Sass8Prelexer8any_charEPKc T
_ZN4Sass8Prelexer8binomialEPKc T
_ZN4Sass8Prelexer8kwd_fromEPKc T
_ZN4Sass8Prelexer8kwd_nullEPKc T
_ZN4Sass8Prelexer8kwd_onlyEPKc T
_ZN4Sass8Prelexer8kwd_plusEPKc T
_ZN4Sass8Prelexer8kwd_starEPKc T
_ZN4Sass8Prelexer8kwd_trueEPKc T
_ZN4Sass8Prelexer8kwd_warnEPKc T
_ZN4Sass8Prelexer8nonasciiEPKc T
_ZN4Sass8Prelexer8one_plusIXadL_ZNS0_12alternativesIXadL_ZNS0_5alnumEPKcEEXadL_ZNS0_7exactlyILc45EEES4_S4_EEJXadL_ZNS5_ILc95EEES4_S4_EEXadL_ZNS0_10escape_seqES4_EEEEES4_S4_EEEES4_S4_ W
_ZN4Sass8Prelexer8one_plusIXadL_ZNS0_12alternativesIXadL_ZNS0_5alphaEPKcEEXadL_ZNS0_7exactlyILc43EEES4_S4_EEJXadL_ZNS5_ILc45EEES4_S4_EEEEES4_S4_EEEES4_S4_ W
_ZN4Sass8Prelexer8one_plusIXadL_ZNS0_12alternativesIXadL_ZNS0_6spacesEPKcEEXadL_ZNS0_12line_commentES4_EEJEEES4_S4_EEEES4_S4_ W
_ZN4Sass8Prelexer8one_plusIXadL_ZNS0_12alternativesIXadL_ZNS0_6spacesEPKcEEXadL_ZNS0_12line_commentES4_EEJXadL_ZNS0_13block_commentES4_EEEEES4_S4_EEEES4_S4_ W
_ZN4Sass8Prelexer8one_plusIXadL_ZNS0_12alternativesIXadL_ZNS0_6spacesEPKcEEXadL_ZNS0_13block_commentES4_EEJXadL_ZNS0_12line_commentES4_EEXadL_ZNS0_27schema_reference_combinatorES4_EEXadL_ZNS0_10class_charIXadL_ZNS_9Constants22selector_lookahead_opsEEEEES4_S4_EEXadL_ZNS5_IXadL_ZNS6_23selector_combinator_opsEEEEES4_S4_EEXadL_ZNS0_8sequenceIXadL_ZNS0_7exactlyILc40EEES4_S4_EEXadL_ZNS0_15optional_spacesES4_EEJXadL_ZNS0_8optionalIXadL_ZNS0_16re_selector_listES4_EEEES4_S4_EEXadL_ZNS0_15optional_spacesES4_EEXadL_ZNS8_ILc41EEES4_S4_EEEEES4_S4_EEXadL_ZNS2_IXadL_ZNS0_11exact_matchES4_EEXadL_ZNS0_11class_matchES4_EEJXadL_ZNS0_10dash_matchES4_EEXadL_ZNS0_12prefix_matchES4_EEXadL_ZNS0_12suffix_matchES4_EEXadL_ZNS0_15substring_matchES4_EEEEES4_S4_EEXadL_ZNS7_IXadL_ZNS9_IXadL_ZNS0_16namespace_schemaES4_EEEES4_S4_EEXadL_ZNS2_IXadL_ZNS7_IXadL_ZNS8_ILc35EEES4_S4_EEXadL_ZNS0_6negateIXadL_ZNS8_ILc123EEES4_S4_EEEES4_S4_EEJEEES4_S4_EEXadL_ZNS8_ILc46EEES4_S4_EEJXadL_ZNS7_IXadL_ZNS9_IXadL_ZNS0_13pseudo_prefixES4_EEEES4_S4_EEXadL_ZNSA_IXadL_ZNS0_10uri_prefixES4_EEEES4_S4_EEJEEES4_S4_EEEEES4_S4_EEJXadL_ZNS1_IXadL_ZNS7_IXadL_ZNS0_9zero_plusIXadL_ZNS7_IXadL_ZNS8_ILc45EEES4_S4_EEXadL_ZNS0_15optional_spacesES4_EEJEEES4_S4_EEEES4_S4_EEXadL_ZNS2_IXadL_ZNS0_12kwd_optionalES4_EEXadL_ZNS8_ILc42EEES4_S4_EEJXadL_ZNS0_13quoted_stringES4_EEXadL_ZNS0_11interpolantES4_EEXadL_ZNS0_10identifierES4_EEXadL_ZNS0_8variableES4_EEXadL_ZNS0_10percentageES4_EEXadL_ZNS0_8binomialES4_EEXadL_ZNS0_9dimensionES4_EEXadL_ZNS0_5alnumES4_EEEEES4_S4_EEJEEES4_S4_EEEES4_S4_EEXadL_ZNSB_IXadL_ZNS8_ILc45EEES4_S4_EEEES4_S4_EEEEES4_S4_EEEEES4_S4_EEEES4_S4_ W
_ZN4Sass8Prelexer8one_plusIXadL_ZNS0_12alternativesIXadL_ZNS0_7exactlyILc62EEEPKcS5_EEXadL_ZNS0_8sequenceIXadL_ZNS3_ILc92EEES5_S5_EEXadL_ZNS0_8any_charES5_EEJEEES5_S5_EEJXadL_ZNS6_IXadL_ZNS0_6negateIXadL_ZNS6_IXadL_ZNS0_7exactlyIXadL_ZNS_9Constants7url_kwdEEEEES5_S5_EEXadL_ZNS3_ILc40EEES5_S5_EEJEEES5_S5_EEEES5_S5_EEXadL_ZNS0_14neg_class_charIXadL_ZNS9_22almost_any_value_classEEEEES5_S5_EEJEEES5_S5_EEXadL_ZNS6_IXadL_ZNS3_ILc47EEES5_S5_EEXadL_ZNS7_IXadL_ZNS2_IXadL_ZNS3_ILc47EEES5_S5_EEXadL_ZNS3_ILc42EEES5_S5_EEJEEES5_S5_EEEES5_S5_EEJEEES5_S5_EEXadL_ZNS6_IXadL_ZNS3_ILc92EEES5_S5_EEXadL_ZNS3_ILc35EEES5_S5_EEJXadL_ZNS7_IXadL_ZNS3_ILc123EEES5_S5_EEEES5_S5_EEEEES5_S5_EEXadL_ZNS6_IXadL_ZNS3_ILc33EEES5_S5_EEXadL_ZNS7_IXadL_ZNS0_5alphaES5_EEEES5_S5_EEJEEES5_S5_EEEEES5_S5_EEEES5_S5_ W
_ZN4Sass8Prelexer8one_plusIXadL_ZNS0_12alternativesIXadL_ZNS0_8sequenceIXadL_ZNS0_7exactlyILc92EEEPKcS6_EEXadL_ZNS0_8any_charES6_EEJEEES6_S6_EEXadL_ZNS3_IXadL_ZNS0_6negateIXadL_ZNS0_10uri_prefixES6_EEEES6_S6_EEXadL_ZNS0_14neg_class_charIXadL_ZNS_9Constants22almost_any_value_classEEEEES6_S6_EEJEEES6_S6_EEJXadL_ZNS3_IXadL_ZNS4_ILc47EEES6_S6_EEXadL_ZNS7_IXadL_ZNS2_IXadL_ZNS4_ILc47EEES6_S6_EEXadL_ZNS4_ILc42EEES6_S6_EEJEEES6_S6_EEEES6_S6_EEJEEES6_S6_EEXadL_ZNS3_IXadL_ZNS4_ILc92EEES6_S6_EEXadL_ZNS4_ILc35EEES6_S6_EEJXadL_ZNS7_IXadL_ZNS4_ILc123EEES6_S6_EEEES6_S6_EEEEES6_S6_EEXadL_ZNS3_IXadL_ZNS4_ILc33EEES6_S6_EEXadL_ZNS7_IXadL_ZNS0_5alphaES6_EEEES6_S6_EEJEEES6_S6_EEEEES6_S6_EEEES6_S6_ W
_ZN4Sass8Prelexer8one_plusIXadL_ZNS0_14neg_class_charIXadL_ZNS0_24css_variable_url_negatesEEEEEPKcS4_EEEES4_S4_ W
_ZN4Sass8Prelexer8one_plusIXadL_ZNS0_14neg_class_charIXadL_ZNS0_34css_variable_url_top_level_negatesEEEEEPKcS4_EEEES4_S4_ W
_ZN4Sass8Prelexer8one_plusIXadL_ZNS0_16identifier_alnumEPKcEEEES3_S3_ W
_ZN4Sass8Prelexer8one_plusIXadL_ZNS0_16identifier_alphaEPKcEEEES3_S3_ W
_ZN4Sass8Prelexer8one_plusIXadL_ZNS0_17strict_identifierEPKcEEEES3_S3_ W
_ZN4Sass8Prelexer8one_plusIXadL_ZNS0_23strict_identifier_alphaEPKcEEEES3_S3_ W
_ZN4Sass8Prelexer8one_plusIXadL_ZNS0_5alnumEPKcEEEES3_S3_ W
_ZN4Sass8Prelexer8one_plusIXadL_ZNS0_5alphaEPKcEEEES3_S3_ W
_ZN4Sass8Prelexer8one_plusIXadL_ZNS0_5digitEPKcEEEES3_S3_ W
_ZN4Sass8Prelexer8one_plusIXadL_ZNS0_5spaceEPKcEEEES3_S3_ W
_ZN4Sass8Prelexer8one_plusIXadL_ZNS0_6digitsEPKcEEEES3_S3_ W
_ZN4Sass8Prelexer8one_plusIXadL_ZNS0_6hyphenEPKcEEEES3_S3_ W
_ZN4Sass8Prelexer8one_plusIXadL_ZNS0_6xdigitEPKcEEEES3_S3_ W
_ZN4Sass8Prelexer8one_plusIXadL_ZNS0_7exactlyILc45EEEPKcS4_EEEES4_S4_ W
_ZN4Sass8Prelexer8one_plusIXadL_ZNS0_7exactlyILc58EEEPKcS4_EEEES4_S4_ W
_ZN4Sass8Prelexer8one_plusIXadL_ZNS0_8sequenceIXadL_ZNS0_11interpolantEPKcEEXadL_ZNS0_12alternativesIXadL_ZNS0_6digitsES4_EEXadL_ZNS0_10identifierES4_EEJXadL_ZNS0_7exactlyILc43EEES4_S4_EEXadL_ZNS6_ILc45EEES4_S4_EEEEES4_S4_EEJEEES4_S4_EEEES4_S4_ W
_ZN4Sass8Prelexer8one_plusIXadL_ZNS0_8sequenceIXadL_ZNS0_17strict_identifierEPKcEEXadL_ZNS0_7hyphensES4_EEJEEES4_S4_EEEES4_S4_ W
_ZN4Sass8Prelexer8one_plusIXadL_ZNS0_8sequenceIXadL_ZNS0_8optionalIXadL_ZNS0_18value_combinationsEPKcEEEES5_S5_EEXadL_ZNS0_11interpolantES5_EEJXadL_ZNS3_IXadL_ZNS0_18value_combinationsES5_EEEES5_S5_EEEEES5_S5_EEEES5_S5_ W
_ZN4Sass8Prelexer8one_plusIXadL_ZNS0_8sequenceIXadL_ZNS0_9zero_plusIXadL_ZNS0_12alternativesIXadL_ZNS0_10identifierEPKcEEXadL_ZNS0_7exactlyILc45EEES6_S6_EEJEEES6_S6_EEEES6_S6_EEXadL_ZNS1_IXadL_ZNS2_IXadL_ZNS0_11interpolantES6_EEXadL_ZNS4_IXadL_ZNS0_6digitsES6_EEXadL_ZNS0_10identifierES6_EEJXadL_ZNS7_ILc43EEES6_S6_EEXadL_ZNS7_ILc45EEES6_S6_EEEEES6_S6_EEJEEES6_S6_EEEES6_S6_EEJEEES6_S6_EEEES6_S6_ W
_ZN4Sass8Prelexer8one_plusIXadL_ZNS0_8sequenceIXadL_ZNS0_9zero_plusIXadL_ZNS0_12alternativesIXadL_ZNS2_IXadL_ZNS0_8optionalIXadL_ZNS0_7exactlyILc36EEEPKcS8_EEEES8_S8_EEXadL_ZNS0_10identifierES8_EEJEEES8_S8_EEXadL_ZNS6_ILc45EEES8_S8_EEJEEES8_S8_EEEES8_S8_EEXadL_ZNS0_11interpolantES8_EEJXadL_ZNS3_IXadL_ZNS4_IXadL_ZNS0_6digitsES8_EEXadL_ZNS2_IXadL_ZNS5_IXadL_ZNS6_ILc36EEES8_S8_EEEES8_S8_EEXadL_ZNS0_10identifierES8_EEJEEES8_S8_EEJXadL_ZNS0_13quoted_stringES8_EEXadL_ZNS6_ILc45EEES8_S8_EEEEES8_S8_EEEES8_S8_EEEEES8_S8_EEEES8_S8_ W
_ZN4Sass8Prelexer8one_plusIXadL_ZNS0_8sequenceIXadL_ZNS0_9zero_plusIXadL_ZNS2_IXadL_ZNS0_7exactlyILc45EEEPKcS6_EEXadL_ZNS0_15optional_spacesES6_EEJEEES6_S6_EEEES6_S6_EEXadL_ZNS0_12alternativesIXadL_ZNS0_12kwd_optionalES6_EEXadL_ZNS4_ILc42EEES6_S6_EEJXadL_ZNS0_13quoted_stringES6_EEXadL_ZNS0_11interpolantES6_EEXadL_ZNS0_10identifierES6_EEXadL_ZNS0_8variableES6_EEXadL_ZNS0_10percentageES6_EEXadL_ZNS0_8binomialES6_EEXadL_ZNS0_9dimensionES6_EEXadL_ZNS0_5alnumES6_EEEEES6_S6_EEJEEES6_S6_EEEES6_S6_ W
_ZN4Sass8Prelexer8one_unitEPKc T
_ZN4Sass8Prelexer8optionalIXadL_ZNS0_12alternativesIXadL_ZNS0_7exactlyILc42EEEPKcS5_EEXadL_ZNS0_14css_identifierES5_EEJEEES5_S5_EEEES5_S5_ W
_ZN4Sass8Prelexer8optionalIXadL_ZNS0_12alternativesIXadL_ZNS0_7exactlyILc42EEEPKcS5_EEXadL_ZNS0_17css_ip_identifierES5_EEJEEES5_S5_EEEES5_S5_ W
_ZN4Sass8Prelexer8optionalIXadL_ZNS0_13block_commentEPKcEEEES3_S3_ W
_ZN4Sass8Prelexer8optionalIXadL_ZNS0_13pseudo_prefixEPKcEEEES3_S3_ W
_ZN4Sass8Prelexer8optionalIXadL_ZNS0_13quoted_stringEPKcEEEES3_S3_ W
_ZN4Sass8Prelexer8optionalIXadL_ZNS0_16namespace_schemaEPKcEEEES3_S3_ W
_ZN4Sass8Prelexer8optionalIXadL_ZNS0_16re_selector_listEPKcEEEES3_S3_ W
_ZN4Sass8Prelexer8optionalIXadL_ZNS0_18value_combinationsEPKcEEEES3_S3_ W
_ZN4Sass8Prelexer8optionalIXadL_ZNS0_1WEPKcEEEES3_S3_ W
_ZN4Sass8Prelexer8optionalIXadL_ZNS0_4signEPKcEEEES3_S3_ W
_ZN4Sass8Prelexer8optionalIXadL_ZNS0_6digitsEPKcEEEES3_S3_ W
_ZN4Sass8Prelexer8optionalIXadL_ZNS0_7exactlyILc32EEEPKcS4_EEEES4_S4_ W
_ZN4Sass8Prelexer8optionalIXadL_ZNS0_7exactlyILc36EEEPKcS4_EEEES4_S4_ W
_ZN4Sass8Prelexer8optionalIXadL_ZNS0_7exactlyILc42EEEPKcS4_EEEES4_S4_ W
_ZN4Sass8Prelexer8optionalIXadL_ZNS0_7exactlyILc45EEEPKcS4_EEEES4_S4_ W
_ZN4Sass8Prelexer8optionalIXadL_ZNS0_7exactlyILc58EEEPKcS4_EEEES4_S4_ W
_ZN4Sass8Prelexer8optionalIXadL_ZNS0_8sequenceIXadL_ZNS0_12alternativesIXadL_ZNS0_8variableEPKcEEXadL_ZNS0_17identifier_schemaES5_EEJXadL_ZNS0_10identifierES5_EEEEES5_S5_EEXadL_ZNS0_23optional_css_whitespaceES5_EEJXadL_ZNS0_7exactlyILc61EEES5_S5_EEXadL_ZNS0_23optional_css_whitespaceES5_EEXadL_ZNS3_IXadL_ZNS0_8variableES5_EEXadL_ZNS0_17identifier_schemaES5_EEJXadL_ZNS0_10identifierES5_EEXadL_ZNS0_13quoted_stringES5_EEXadL_ZNS0_6numberES5_EEXadL_ZNS0_3hexES5_EEXadL_ZNS0_4hexaES5_EEEEES5_S5_EEXadL_ZNS0_9zero_plusIXadL_ZNS2_IXadL_ZNS0_23optional_css_whitespaceES5_EEXadL_ZNS6_ILc44EEES5_S5_EEJXadL_ZNS0_23optional_css_whitespaceES5_EEXadL_ZNS2_IXadL_ZNS3_IXadL_ZNS0_8variableES5_EEXadL_ZNS0_17identifier_schemaES5_EEJXadL_ZNS0_10identifierES5_EEEEES5_S5_EEXadL_ZNS0_23optional_css_whitespaceES5_EEJXadL_ZNS6_ILc61EEES5_S5_EEXadL_ZNS0_23optional_css_whitespaceES5_EEXadL_ZNS3_IXadL_ZNS0_8variableES5_EEXadL_ZNS0_17identifier_schemaES5_EEJXadL_ZNS0_10identifierES5_EEXadL_ZNS0_13quoted_stringES5_EEXadL_ZNS0_6numberES5_EEXadL_ZNS0_3hexES5_EEXadL_ZNS0_4hexaES5_EEEEES5_S5_EEEEES5_S5_EEEEES5_S5_EEEES5_S5_EEEEES5_S5_EEEES5_S5_ W
_ZN4Sass8Prelexer8optionalIXadL_ZNS0_8sequenceIXadL_ZNS0_17css_ip_identifierEPKcEEXadL_ZNS0_7exactlyILc124EEES4_S4_EEJEEES4_S4_EEEES4_S4_ W
_ZN4Sass8Prelexer8optionalIXadL_ZNS0_8sequenceIXadL_ZNS0_7exactlyILc101EEEPKcS5_EEXadL_ZNS1_IXadL_ZNS0_4signES5_EEEES5_S5_EEJXadL_ZNS0_15unsigned_numberES5_EEEEES5_S5_EEEES5_S5_ W
_ZN4Sass8Prelexer8optionalIXadL_ZNS0_8sequenceIXadL_ZNS0_7exactlyILc45EEEPKcS5_EEXadL_ZNS0_8one_plusIXadL_ZNS0_12alternativesIXadL_ZNS0_5alphaES5_EEXadL_ZNS3_ILc43EEES5_S5_EEJXadL_ZNS3_ILc45EEES5_S5_EEEEES5_S5_EEEES5_S5_EEJEEES5_S5_EEEES5_S5_ W
_ZN4Sass8Prelexer8optionalIXadL_ZNS0_8sequenceIXadL_ZNS0_7exactlyILc45EEEPKcS5_EEXadL_ZNS0_8one_plusIXadL_ZNS0_5alnumES5_EEEES5_S5_EEJXadL_ZNS3_ILc45EEES5_S5_EEEEES5_S5_EEEES5_S5_ W
_ZN4Sass8Prelexer8optionalIXadL_ZNS0_8sequenceIXadL_ZNS0_7exactlyILc45EEEPKcS5_EEXadL_ZNS0_9lookaheadIXadL_ZNS0_12alternativesIXadL_ZNS0_5spaceES5_EEEES5_S5_EEEES5_S5_EEJEEES5_S5_EEEES5_S5_ W
_ZN4Sass8Prelexer8optionalIXadL_ZNS0_8sequenceIXadL_ZNS0_7exactlyILc47EEEPKcS5_EEXadL_ZNS0_6negateIXadL_ZNS2_IXadL_ZNS0_7exactlyIXadL_ZNS_9Constants11calc_fn_kwdEEEEES5_S5_EEXadL_ZNS3_ILc40EEES5_S5_EEJEEES5_S5_EEEES5_S5_EEJXadL_ZNS0_14multiple_unitsES5_EEEEES5_S5_EEEES5_S5_ W
_ZN4Sass8Prelexer8optionalIXadL_ZNS0_8sequenceIXadL_ZNS0_7hyphensEPKcEEXadL_ZNS0_8one_plusIXadL_ZNS2_IXadL_ZNS0_17strict_identifierES4_EEXadL_ZNS0_7hyphensES4_EEJEEES4_S4_EEEES4_S4_EEJEEES4_S4_EEEES4_S4_ W
_ZN4Sass8Prelexer8optionalIXadL_ZNS0_8sequenceIXadL_ZNS0_9zero_plusIXadL_ZNS0_7exactlyILc45EEEPKcS6_EEEES6_S6_EEXadL_ZNS0_10identifierES6_EEJXadL_ZNS4_ILc124EEES6_S6_EEEEES6_S6_EEEES6_S6_ W
_ZN4Sass8Prelexer8optionalIXadL_ZNS0_8sequenceIXadL_ZNS1_IXadL_ZNS0_1WEPKcEEEES4_S4_EEXadL_ZNS0_7exactlyILc41EEES4_S4_EEJEEES4_S4_EEEES4_S4_ W
_ZN4Sass8Prelexer8real_uriEPKc T
_ZN4Sass8Prelexer8sequenceIXadL_ZNS0_10identifierEPKcEEEES3_S3_ W
_ZN4Sass8Prelexer8sequenceIXadL_ZNS0_10identifierEPKcEEXadL_ZNS0_7exactlyILc124EEES3_S3_EEJEEES3_S3_ W
_ZN4Sass8Prelexer8sequenceIXadL_ZNS0_10identifierEPKcEEXadL_ZNS0_7exactlyILc58EEES3_S3_EEJXadL_ZNS4_ILc47EEES3_S3_EEXadL_ZNS4_ILc47EEES3_S3_EEEEES3_S3_ W
_ZN4Sass8Prelexer8sequenceIXadL_ZNS0_10identifierEPKcEEXadL_ZNS0_8optionalIXadL_ZNS0_13block_commentES3_EEEES3_S3_EEJXadL_ZNS0_7exactlyILc40EEES3_S3_EEEEES3_S3_ W
_ZN4Sass8Prelexer8sequenceIXadL_ZNS0_10identifierEPKcEEXadL_ZNS0_9zero_plusIXadL_ZNS0_13block_commentES3_EEEES3_S3_EEJEEES3_S3_ W
_ZN4Sass8Prelexer8sequenceIXadL_ZNS0_10non_greedyIXadL_ZNS0_12alternativesIXadL_ZNS0_10class_charIXadL_ZNS_9Constants14real_uri_charsEEEEEPKcS7_EEXadL_ZNS0_13uri_characterES7_EEJXadL_ZNS0_8NONASCIIES7_EEXadL_ZNS0_6ESCAPEES7_EEEEES7_S7_EEXadL_ZNS3_IXadL_ZNS0_15real_uri_suffixES7_EEXadL_ZNS0_7exactlyIXadL_ZNS5_11hash_lbraceEEEEES7_S7_EEJEEES7_S7_EEEES7_S7_EEEES7_S7_ W
_ZN4Sass8Prelexer8sequenceIXadL_ZNS0_10non_greedyIXadL_ZNS0_12alternativesIXadL_ZNS0_10class_charIXadL_ZNS_9Constants14real_uri_charsEEEEEPKcS7_EEXadL_ZNS0_13uri_characterES7_EEJXadL_ZNS0_8NONASCIIES7_EEXadL_ZNS0_6ESCAPEES7_EEEEES7_S7_EEXadL_ZNS3_IXadL_ZNS1_IXadL_ZNS0_8optionalIXadL_ZNS0_1WES7_EEEES7_S7_EEXadL_ZNS0_7exactlyILc41EEES7_S7_EEJEEES7_S7_EEXadL_ZNS0_9lookaheadIXadL_ZNS0_7exactlyIXadL_ZNS5_11hash_lbraceEEEEES7_S7_EEEES7_S7_EEJEEES7_S7_EEEES7_S7_EEXadL_ZNS8_IXadL_ZNS1_IXadL_ZNS8_IXadL_ZNS0_1WES7_EEEES7_S7_EEXadL_ZNS9_ILc41EEES7_S7_EEJEEES7_S7_EEEES7_S7_EEJEEES7_S7_ W
_ZN4Sass8Prelexer8sequenceIXadL_ZNS0_10non_greedyIXadL_ZNS0_8any_charEPKcEEXadL_ZNS0_11end_of_lineES4_EEEES4_S4_EEEES4_S4_ W
_ZN4Sass8Prelexer8sequenceIXadL_ZNS0_10percentageEPKcEEXadL_ZNS0_9lookaheadIXadL_ZNS0_6numberES3_EEEES3_S3_EEJEEES3_S3_ W
_ZN4Sass8Prelexer8sequenceIXadL_ZNS0_10uri_prefixEPKcEEXadL_ZNS0_1WES3_EEJXadL_ZNS0_14real_uri_valueES3_EEEEES3_S3_ W
_ZN4Sass8Prelexer8sequenceIXadL_ZNS0_11end_of_fileEPKcEEEES3_S3_ W
_ZN4Sass8Prelexer8sequenceIXadL_ZNS0_11insensitiveILc105EEEPKcS4_EEXadL_ZNS_6Parser23re_attr_sensitive_closeES4_EEJEEES4_S4_ W
_ZN4Sass8Prelexer8sequenceIXadL_ZNS0_11insensitiveIXadL_ZNS_9Constants6of_kwdEEEEEPKcS5_EEEES5_S5_ W
_ZN4Sass8Prelexer8sequenceIXadL_ZNS0_11insensitiveIXadL_ZNS_9Constants6or_kwdEEEEEPKcS5_EEXadL_ZNS0_13word_boundaryES5_EEJEEES5_S5_ W
_ZN4Sass8Prelexer8sequenceIXadL_ZNS0_11insensitiveIXadL_ZNS_9Constants7and_kwdEEEEEPKcS5_EEXadL_ZNS0_13word_boundaryES5_EEJEEES5_S5_ W
_ZN4Sass8Prelexer8sequenceIXadL_ZNS0_11insensitiveIXadL_ZNS_9Constants7not_kwdEEEEEPKcS5_EEXadL_ZNS0_13word_boundaryES5_EEJEEES5_S5_ W
_ZN4Sass8Prelexer8sequenceIXadL_ZNS0_11insensitiveIXadL_ZNS_9Constants8only_kwdEEEEEPKcS5_EEXadL_ZNS0_13word_boundaryES5_EEJEEES5_S5_ W
_ZN4Sass8Prelexer8sequenceIXadL_ZNS0_11insensitiveIXadL_ZNS_9Constants9using_kwdEEEEEPKcS5_EEXadL_ZNS0_13word_boundaryES5_EEJEEES5_S5_ W
_ZN4Sass8Prelexer8sequenceIXadL_ZNS0_11interpolantEPKcEEXadL_ZNS0_12alternativesIXadL_ZNS0_6digitsES3_EEXadL_ZNS0_10identifierES3_EEJXadL_ZNS0_7exactlyILc43EEES3_S3_EEXadL_ZNS5_ILc45EEES3_S3_EEEEES3_S3_EEJEEES3_S3_ W
_ZN4Sass8Prelexer8sequenceIXadL_ZNS0_11interpolantEPKcEEXadL_ZNS0_14real_uri_valueES3_EEJEEES3_S3_ W
_ZN4Sass8Prelexer8sequenceIXadL_ZNS0_11interpolantEPKcEEXadL_ZNS0_8optionalIXadL_ZNS0_13quoted_stringES3_EEEES3_S3_EEJEEES3_S3_ W
_ZN4Sass8Prelexer8sequenceIXadL_ZNS0_11interpolantEPKcEEXadL_ZNS0_8optionalIXadL_ZNS0_18value_combinationsES3_EEEES3_S3_EEJEEES3_S3_ W
_ZN4Sass8Prelexer8sequenceIXadL_ZNS0_11interpolantEPKcEEXadL_ZNS0_9zero_plusIXadL_ZNS0_12alternativesIXadL_ZNS0_6digitsES3_EEXadL_ZNS1_IXadL_ZNS0_8optionalIXadL_ZNS0_7exactlyILc36EEES3_S3_EEEES3_S3_EEXadL_ZNS0_10identifierES3_EEJEEES3_S3_EEJXadL_ZNS0_13quoted_stringES3_EEXadL_ZNS7_ILc45EEES3_S3_EEEEES3_S3_EEEES3_S3_EEJEEES3_S3_ W
_ZN4Sass8Prelexer8sequenceIXadL_ZNS0_12alternativesIXadL_ZNS0_10identifierEPKcEEXadL_ZNS0_11interpolantES4_EEJEEES4_S4_EEEES4_S4_ W
_ZN4Sass8Prelexer8sequenceIXadL_ZNS0_12alternativesIXadL_ZNS0_12kwd_optionalEPKcEEXadL_ZNS0_7exactlyILc42EEES4_S4_EEJXadL_ZNS0_13quoted_stringES4_EEXadL_ZNS0_11interpolantES4_EEXadL_ZNS0_10identifierES4_EEXadL_ZNS0_8variableES4_EEXadL_ZNS0_10percentageES4_EEXadL_ZNS0_8binomialES4_EEXadL_ZNS0_9dimensionES4_EEXadL_ZNS0_5alnumES4_EEEEES4_S4_EEEES4_S4_ W
_ZN4Sass8Prelexer8sequenceIXadL_ZNS0_12alternativesIXadL_ZNS0_12minmax_rangeILm1ELm3EXadL_ZNS0_6xdigitEPKcEEEES5_S5_EEXadL_ZNS0_8any_charES5_EEJEEES5_S5_EEXadL_ZNS0_8optionalIXadL_ZNS0_7exactlyILc32EEES5_S5_EEEES5_S5_EEJEEES5_S5_ W
_ZN4Sass8Prelexer8sequenceIXadL_ZNS0_12alternativesIXadL_ZNS0_13quoted_stringEPKcEEXadL_ZNS0_10non_greedyIXadL_ZNS2_IXadL_ZNS0_10class_charIXadL_ZNS_9Constants14real_uri_charsEEEEES4_S4_EEXadL_ZNS0_13uri_characterES4_EEJXadL_ZNS0_8NONASCIIES4_EEXadL_ZNS0_6ESCAPEES4_EEEEES4_S4_EEXadL_ZNS2_IXadL_ZNS0_8sequenceIXadL_ZNS0_1WES4_EEXadL_ZNS0_7exactlyILc41EEES4_S4_EEJEEES4_S4_EEXadL_ZNS0_7exactlyIXadL_ZNS7_11hash_lbraceEEEEES4_S4_EEJEEES4_S4_EEEES4_S4_EEJEEES4_S4_EEEES4_S4_ W
_ZN4Sass8Prelexer8sequenceIXadL_ZNS0_12alternativesIXadL_ZNS0_17identifier_schemaEPKcEEXadL_ZNS0_10identifierES4_EEJEEES4_S4_EEEES4_S4_ W
_ZN4Sass8Prelexer8sequenceIXadL_ZNS0_12alternativesIXadL_ZNS0_17identifier_schemaEPKcEEXadL_ZNS0_10identifierES4_EEJEEES4_S4_EEXadL_ZNS0_9zero_plusIXadL_ZNS1_IXadL_ZNS0_7exactlyILc46EEES4_S4_EEXadL_ZNS2_IXadL_ZNS0_17identifier_schemaES4_EEXadL_ZNS0_10identifierES4_EEJEEES4_S4_EEJEEES4_S4_EEEES4_S4_EEJXadL_ZNS5_IXadL_ZNS1_IXadL_ZNS6_ILc40EEES4_S4_EEXadL_ZNS0_23optional_css_whitespaceES4_EEJXadL_ZNS0_8optionalIXadL_ZNS1_IXadL_ZNS2_IXadL_ZNS0_8variableES4_EEXadL_ZNS0_17identifier_schemaES4_EEJXadL_ZNS0_10identifierES4_EEEEES4_S4_EEXadL_ZNS0_23optional_css_whitespaceES4_EEJXadL_ZNS6_ILc61EEES4_S4_EEXadL_ZNS0_23optional_css_whitespaceES4_EEXadL_ZNS2_IXadL_ZNS0_8variableES4_EEXadL_ZNS0_17identifier_schemaES4_EEJXadL_ZNS0_10identifierES4_EEXadL_ZNS0_13quoted_stringES4_EEXadL_ZNS0_6numberES4_EEXadL_ZNS0_3hexES4_EEXadL_ZNS0_4hexaES4_EEEEES4_S4_EEXadL_ZNS5_IXadL_ZNS1_IXadL_ZNS0_23optional_css_whitespaceES4_EEXadL_ZNS6_ILc44EEES4_S4_EEJXadL_ZNS0_23optional_css_whitespaceES4_EEXadL_ZNS1_IXadL_ZNS2_IXadL_ZNS0_8variableES4_EEXadL_ZNS0_17identifier_schemaES4_EEJXadL_ZNS0_10identifierES4_EEEEES4_S4_EEXadL_ZNS0_23optional_css_whitespaceES4_EEJXadL_ZNS6_ILc61EEES4_S4_EEXadL_ZNS0_23optional_css_whitespaceES4_EEXadL_ZNS2_IXadL_ZNS0_8variableES4_EEXadL_ZNS0_17identifier_schemaES4_EEJXadL_ZNS0_10identifierES4_EEXadL_ZNS0_13quoted_stringES4_EEXadL_ZNS0_6numberES4_EEXadL_ZNS0_3hexES4_EEXadL_ZNS0_4hexaES4_EEEEES4_S4_EEEEES4_S4_EEEEES4_S4_EEEES4_S4_EEEEES4_S4_EEEES4_S4_EEXadL_ZNS0_23optional_css_whitespaceES4_EEXadL_ZNS6_ILc41EEES4_S4_EEEEES4_S4_EEEES4_S4_EEEEES4_S4_ W
_ZN4Sass8Prelexer8sequenceIXadL_ZNS0_12alternativesIXadL_ZNS0_3hexEPKcEEXadL_ZNS0_4hex0ES4_EEJEEES4_S4_EEXadL_ZNS0_6negateIXadL_ZNS0_7exactlyILc45EEES4_S4_EEEES4_S4_EEJEEES4_S4_ W
_ZN4Sass8Prelexer8sequenceIXadL_ZNS0_12alternativesIXadL_ZNS0_4wordIXadL_ZNS_9Constants14expression_kwdEEEEEPKcS6_EEXadL_ZNS0_8sequenceIXadL_ZNS7_IXadL_ZNS0_7exactlyIXadL_ZNS4_10progid_kwdEEEEES6_S6_EEXadL_ZNS0_7exactlyILc58EEES6_S6_EEJEEES6_S6_EEXadL_ZNS0_9zero_plusIXadL_ZNS2_IXadL_ZNS0_10char_rangeILc97ELc122EEES6_S6_EEXadL_ZNS9_ILc46EEES6_S6_EEJEEES6_S6_EEEES6_S6_EEJEEES6_S6_EEJEEES6_S6_EEEES6_S6_ W
_ZN4Sass8Prelexer8sequenceIXadL_ZNS0_12alternativesIXadL_ZNS0_6digitsEPKcEEXadL_ZNS0_10identifierES4_EEJXadL_ZNS0_7exactlyILc43EEES4_S4_EEXadL_ZNS5_ILc45EEES4_S4_EEEEES4_S4_EEEES4_S4_ W
_ZN4Sass8Prelexer8sequenceIXadL_ZNS0_12alternativesIXadL_ZNS0_7exactlyILc123EEEPKcS5_EEXadL_ZNS3_ILc125EEES5_S5_EEJXadL_ZNS3_ILc59EEES5_S5_EEEEES5_S5_EEEES5_S5_ W
_ZN4Sass8Prelexer8sequenceIXadL_ZNS0_12alternativesIXadL_ZNS0_7exactlyILc34EEEPKcS5_EEXadL_ZNS0_9lookaheadIXadL_ZNS0_7exactlyIXadL_ZNS_9Constants11hash_lbraceEEEEES5_S5_EEEES5_S5_EEJEEES5_S5_EEEES5_S5_ W
_ZN4Sass8Prelexer8sequenceIXadL_ZNS0_12alternativesIXadL_ZNS0_7exactlyILc39EEEPKcS5_EEXadL_ZNS0_9lookaheadIXadL_ZNS0_7exactlyIXadL_ZNS_9Constants11hash_lbraceEEEEES5_S5_EEEES5_S5_EEJEEES5_S5_EEEES5_S5_ W
_ZN4Sass8Prelexer8sequenceIXadL_ZNS0_12alternativesIXadL_ZNS0_7exactlyILc44EEEPKcS5_EEXadL_ZNS3_ILc40EEES5_S5_EEJXadL_ZNS3_ILc41EEES5_S5_EEXadL_ZNS0_12kwd_optionalES5_EEXadL_ZNS0_13quoted_stringES5_EEXadL_ZNS0_11interpolantES5_EEXadL_ZNS0_10identifierES5_EEXadL_ZNS0_10percentageES5_EEXadL_ZNS0_9dimensionES5_EEXadL_ZNS0_8variableES5_EEXadL_ZNS0_5alnumES5_EEXadL_ZNS0_8sequenceIXadL_ZNS3_ILc92EEES5_S5_EEXadL_ZNS0_8any_charES5_EEJEEES5_S5_EEEEES5_S5_EEEES5_S5_ W
_ZN4Sass8Prelexer8sequenceIXadL_ZNS0_12alternativesIXadL_ZNS0_7exactlyILc47EEEPKcS5_EEXadL_ZNS3_ILc44EEES5_S5_EEJXadL_ZNS3_ILc32EEES5_S5_EEEEES5_S5_EEXadL_ZNS0_15optional_spacesES5_EEJEEES5_S5_ W
_ZN4Sass8Prelexer8sequenceIXadL_ZNS0_12alternativesIXadL_ZNS0_7exactlyILc59EEEPKcS5_EEXadL_ZNS3_ILc125EEES5_S5_EEJEEES5_S5_EEEES5_S5_ W
_ZN4Sass8Prelexer8sequenceIXadL_ZNS0_12alternativesIXadL_ZNS0_7exactlyILc59EEEPKcS5_EEXadL_ZNS3_ILc125EEES5_S5_EEJXadL_ZNS0_11end_of_fileES5_EEEEES5_S5_EEEES5_S5_ W
_ZN4Sass8Prelexer8sequenceIXadL_ZNS0_12alternativesIXadL_ZNS0_7exactlyILc85EEEPKcS5_EEXadL_ZNS3_ILc117EEES5_S5_EEJEEES5_S5_EEXadL_ZNS3_ILc43EEES5_S5_EEJXadL_ZNS0_12padded_tokenILm6EXadL_ZNS0_6xdigitES5_EEXadL_ZNS3_ILc63EEES5_S5_EEEES5_S5_EEEEES5_S5_ W
_ZN4Sass8Prelexer8sequenceIXadL_ZNS0_12alternativesIXadL_ZNS0_8NONASCIIEPKcEEXadL_ZNS0_19escapable_characterES4_EEJEEES4_S4_EEEES4_S4_ W
_ZN4Sass8Prelexer8sequenceIXadL_ZNS0_12alternativesIXadL_ZNS0_8sequenceIXadL_ZNS0_6negateIXadL_ZNS0_7exactlyIXadL_ZNS_9Constants10url_fn_kwdEEEEEPKcS8_EEEES8_S8_EEXadL_ZNS0_8one_plusIXadL_ZNS0_14neg_class_charIXadL_ZNS0_24css_variable_url_negatesEEEEES8_S8_EEEES8_S8_EEJEEES8_S8_EEXadL_ZNS3_IXadL_ZNS0_7exactlyILc35EEES8_S8_EEXadL_ZNS4_IXadL_ZNSB_ILc123EEES8_S8_EEEES8_S8_EEJEEES8_S8_EEJXadL_ZNS3_IXadL_ZNSB_ILc47EEES8_S8_EEXadL_ZNS4_IXadL_ZNSB_ILc42EEES8_S8_EEEES8_S8_EEJEEES8_S8_EEXadL_ZNS0_13static_stringES8_EEXadL_ZNS0_8real_uriES8_EEXadL_ZNS0_13block_commentES8_EEEEES8_S8_EEEES8_S8_ W
_ZN4Sass8Prelexer8sequenceIXadL_ZNS0_12alternativesIXadL_ZNS0_8sequenceIXadL_ZNS0_6negateIXadL_ZNS0_7exactlyIXadL_ZNS_9Constants10url_fn_kwdEEEEEPKcS8_EEEES8_S8_EEXadL_ZNS0_8one_plusIXadL_ZNS0_14neg_class_charIXadL_ZNS0_34css_variable_url_top_level_negatesEEEEES8_S8_EEEES8_S8_EEJEEES8_S8_EEXadL_ZNS3_IXadL_ZNS0_7exactlyILc35EEES8_S8_EEXadL_ZNS4_IXadL_ZNSB_ILc123EEES8_S8_EEEES8_S8_EEJEEES8_S8_EEJXadL_ZNS3_IXadL_ZNSB_ILc47EEES8_S8_EEXadL_ZNS4_IXadL_ZNSB_ILc42EEES8_S8_EEEES8_S8_EEJEEES8_S8_EEXadL_ZNS0_13static_stringES8_EEXadL_ZNS0_8real_uriES8_EEXadL_ZNS0_13block_commentES8_EEEEES8_S8_EEEES8_S8_ W
_ZN4Sass8Prelexer8sequenceIXadL_ZNS0_12alternativesIXadL_ZNS0_8variableEPKcEEXadL_ZNS0_17identifier_schemaES4_EEJXadL_ZNS0_10identifierES4_EEEEES4_S4_EEXadL_ZNS0_23optional_css_whitespaceES4_EEJXadL_ZNS0_7exactlyILc61EEES4_S4_EEXadL_ZNS0_23optional_css_whitespaceES4_EEXadL_ZNS2_IXadL_ZNS0_8variableES4_EEXadL_ZNS0_17identifier_schemaES4_EEJXadL_ZNS0_10identifierES4_EEXadL_ZNS0_13quoted_stringES4_EEXadL_ZNS0_6numberES4_EEXadL_ZNS0_3hexES4_EEXadL_ZNS0_4hexaES4_EEEEES4_S4_EEEEES4_S4_ W
_ZN4Sass8Prelexer8sequenceIXadL_ZNS0_12alternativesIXadL_ZNS0_8variableEPKcEEXadL_ZNS0_17identifier_schemaES4_EEJXadL_ZNS0_10identifierES4_EEEEES4_S4_EEXadL_ZNS0_23optional_css_whitespaceES4_EEJXadL_ZNS0_7exactlyILc61EEES4_S4_EEXadL_ZNS0_23optional_css_whitespaceES4_EEXadL_ZNS2_IXadL_ZNS0_8variableES4_EEXadL_ZNS0_17identifier_schemaES4_EEJXadL_ZNS0_10identifierES4_EEXadL_ZNS0_13quoted_stringES4_EEXadL_ZNS0_6numberES4_EEXadL_ZNS0_3hexES4_EEXadL_ZNS0_4hexaES4_EEEEES4_S4_EEXadL_ZNS0_9zero_plusIXadL_ZNS1_IXadL_ZNS0_23optional_css_whitespaceES4_EEXadL_ZNS5_ILc44EEES4_S4_EEJXadL_ZNS0_23optional_css_whitespaceES4_EEXadL_ZNS1_IXadL_ZNS2_IXadL_ZNS0_8variableES4_EEXadL_ZNS0_17identifier_schemaES4_EEJXadL_ZNS0_10identifierES4_EEEEES4_S4_EEXadL_ZNS0_23optional_css_whitespaceES4_EEJXadL_ZNS5_ILc61EEES4_S4_EEXadL_ZNS0_23optional_css_whitespaceES4_EEXadL_ZNS2_IXadL_ZNS0_8variableES4_EEXadL_ZNS0_17identifier_schemaES4_EEJXadL_ZNS0_10identifierES4_EEXadL_ZNS0_13quoted_stringES4_EEXadL_ZNS0_6numberES4_EEXadL_ZNS0_3hexES4_EEXadL_ZNS0_4hexaES4_EEEEES4_S4_EEEEES4_S4_EEEEES4_S4_EEEES4_S4_EEEEES4_S4_ W
_ZN4Sass8Prelexer8sequenceIXadL_ZNS0_12alternativesIXadL_ZNS0_8variableEPKcEEXadL_ZNS0_17identifier_schemaES4_EEJXadL_ZNS0_10identifierES4_EEXadL_ZNS0_13quoted_stringES4_EEXadL_ZNS0_6numberES4_EEXadL_ZNS0_3hexES4_EEXadL_ZNS0_4hexaES4_EEEEES4_S4_EEEES4_S4_ W
_ZN4Sass8Prelexer8sequenceIXadL_ZNS0_12alternativesIXadL_ZNS0_8variableEPKcEEXadL_ZNS0_17identifier_schemaES4_EEJXadL_ZNS0_10identifierES4_EEXadL_ZNS0_13quoted_stringES4_EEXadL_ZNS0_6numberES4_EEXadL_ZNS0_3hexES4_EEXadL_ZNS0_4hexaES4_EEEEES4_S4_EEXadL_ZNS0_9zero_plusIXadL_ZNS1_IXadL_ZNS0_23optional_css_whitespaceES4_EEXadL_ZNS0_7exactlyILc44EEES4_S4_EEJXadL_ZNS0_23optional_css_whitespaceES4_EEXadL_ZNS1_IXadL_ZNS2_IXadL_ZNS0_8variableES4_EEXadL_ZNS0_17identifier_schemaES4_EEJXadL_ZNS0_10identifierES4_EEEEES4_S4_EEXadL_ZNS0_23optional_css_whitespaceES4_EEJXadL_ZNS6_ILc61EEES4_S4_EEXadL_ZNS0_23optional_css_whitespaceES4_EEXadL_ZNS2_IXadL_ZNS0_8variableES4_EEXadL_ZNS0_17identifier_schemaES4_EEJXadL_ZNS0_10identifierES4_EEXadL_ZNS0_13quoted_stringES4_EEXadL_ZNS0_6numberES4_EEXadL_ZNS0_3hexES4_EEXadL_ZNS0_4hexaES4_EEEEES4_S4_EEEEES4_S4_EEEEES4_S4_EEEES4_S4_EEJEEES4_S4_ W
_ZN4Sass8Prelexer8sequenceIXadL_ZNS0_12alternativesIXadL_ZNS1_IXadL_ZNS0_15optional_spacesEPKcEEXadL_ZNS2_IXadL_ZNS0_7exactlyILc47EEES4_S4_EEXadL_ZNS5_ILc44EEES4_S4_EEJXadL_ZNS5_ILc32EEES4_S4_EEEEES4_S4_EEJXadL_ZNS0_15optional_spacesES4_EEEEES4_S4_EEXadL_ZNS0_6spacesES4_EEJEEES4_S4_EEXadL_ZNS0_16static_componentES4_EEJEEES4_S4_ W
_ZN4Sass8Prelexer8sequenceIXadL_ZNS0_12alternativesIXadL_ZNS1_IXadL_ZNS0_7exactlyILc35EEEPKcS5_EEXadL_ZNS0_6negateIXadL_ZNS3_ILc123EEES5_S5_EEEES5_S5_EEJEEES5_S5_EEXadL_ZNS3_ILc46EEES5_S5_EEJXadL_ZNS1_IXadL_ZNS0_8optionalIXadL_ZNS0_13pseudo_prefixES5_EEEES5_S5_EEXadL_ZNS6_IXadL_ZNS0_10uri_prefixES5_EEEES5_S5_EEJEEES5_S5_EEEEES5_S5_EEXadL_ZNS0_8one_plusIXadL_ZNS1_IXadL_ZNS0_9zero_plusIXadL_ZNS1_IXadL_ZNS3_ILc45EEES5_S5_EEXadL_ZNS0_15optional_spacesES5_EEJEEES5_S5_EEEES5_S5_EEXadL_ZNS2_IXadL_ZNS0_12kwd_optionalES5_EEXadL_ZNS3_ILc42EEES5_S5_EEJXadL_ZNS0_13quoted_stringES5_EEXadL_ZNS0_11interpolantES5_EEXadL_ZNS0_10identifierES5_EEXadL_ZNS0_8variableES5_EEXadL_ZNS0_10percentageES5_EEXadL_ZNS0_8binomialES5_EEXadL_ZNS0_9dimensionES5_EEXadL_ZNS0_5alnumES5_EEEEES5_S5_EEJEEES5_S5_EEEES5_S5_EEJXadL_ZNS9_IXadL_ZNS3_ILc45EEES5_S5_EEEES5_S5_EEEEES5_S5_ W
_ZN4Sass8Prelexer8sequenceIXadL_ZNS0_12calc_fn_callEPKcEEXadL_ZNS0_7exactlyILc40EEES3_S3_EEJEEES3_S3_ W
_ZN4Sass8Prelexer8sequenceIXadL_ZNS0_12delimited_byIXadL_ZNS_9Constants10slash_starEEEXadL_ZNS3_10star_slashEEELb0EEEPKcS5_EEEES5_S5_ W
_ZN4Sass8Prelexer8sequenceIXadL_ZNS0_12padded_tokenILm6EXadL_ZNS0_6xdigitEPKcEEXadL_ZNS0_7exactlyILc63EEES4_S4_EEEES4_S4_EEEES4_S4_ W
_ZN4Sass8Prelexer8sequenceIXadL_ZNS0_12re_linebreakEPKcEEEES3_S3_ W
_ZN4Sass8Prelexer8sequenceIXadL_ZNS0_13quoted_stringEPKcEEXadL_ZNS0_15optional_spacesES3_EEJXadL_ZNS0_7exactlyILc59EEES3_S3_EEEEES3_S3_ W
_ZN4Sass8Prelexer8sequenceIXadL_ZNS0_13quoted_stringEPKcEEXadL_ZNS0_9lookaheadIXadL_ZNS0_7exactlyILc45EEES3_S3_EEEES3_S3_EEJEEES3_S3_ W
_ZN4Sass8Prelexer8sequenceIXadL_ZNS0_13word_boundaryEPKcEEEES3_S3_ W
_ZN4Sass8Prelexer8sequenceIXadL_ZNS0_13word_boundaryEPKcEEXadL_ZNS0_15optional_spacesES3_EEJEEES3_S3_ W
_ZN4Sass8Prelexer8sequenceIXadL_ZNS0_14css_whitespaceEPKcEEXadL_ZNS0_11insensitiveIXadL_ZNS_9Constants6of_kwdEEEEES3_S3_EEJEEES3_S3_ W
_ZN4Sass8Prelexer8sequenceIXadL_ZNS0_14multiple_unitsEPKcEEEES3_S3_ W
_ZN4Sass8Prelexer8sequenceIXadL_ZNS0_14multiple_unitsEPKcEEXadL_ZNS0_8optionalIXadL_ZNS1_IXadL_ZNS0_7exactlyILc47EEES3_S3_EEXadL_ZNS0_6negateIXadL_ZNS1_IXadL_ZNS0_7exactlyIXadL_ZNS_9Constants11calc_fn_kwdEEEEES3_S3_EEXadL_ZNS5_ILc40EEES3_S3_EEJEEES3_S3_EEEES3_S3_EEJXadL_ZNS0_14multiple_unitsES3_EEEEES3_S3_EEEES3_S3_EEJEEES3_S3_ W
_ZN4Sass8Prelexer8sequenceIXadL_ZNS0_14neg_class_charIXadL_ZNS_9Constants22almost_any_value_classEEEEEPKcS5_EEEES5_S5_ W
_ZN4Sass8Prelexer8sequenceIXadL_ZNS0_14real_uri_valueEPKcEEEES3_S3_ W
_ZN4Sass8Prelexer8sequenceIXadL_ZNS0_14real_uri_valueEPKcEEXadL_ZNS0_7exactlyILc41EEES3_S3_EEJEEES3_S3_ W
_ZN4Sass8Prelexer8sequenceIXadL_ZNS0_15optional_spacesEPKcEEEES3_S3_ W
_ZN4Sass8Prelexer8sequenceIXadL_ZNS0_15optional_spacesEPKcEEXadL_ZNS0_12alternativesIXadL_ZNS0_7exactlyILc47EEES3_S3_EEXadL_ZNS5_ILc44EEES3_S3_EEJXadL_ZNS5_ILc32EEES3_S3_EEEEES3_S3_EEJXadL_ZNS0_15optional_spacesES3_EEEEES3_S3_ W
_ZN4Sass8Prelexer8sequenceIXadL_ZNS0_15optional_spacesEPKcEEXadL_ZNS0_6numberES3_EEJEEES3_S3_ W
_ZN4Sass8Prelexer8sequenceIXadL_ZNS0_15optional_spacesEPKcEEXadL_ZNS0_7exactlyILc41EEES3_S3_EEJEEES3_S3_ W
_ZN4Sass8Prelexer8sequenceIXadL_ZNS0_15optional_spacesEPKcEEXadL_ZNS0_7exactlyILc47EEES3_S3_EEJXadL_ZNS0_15optional_spacesES3_EEXadL_ZNS0_6numberES3_EEEEES3_S3_ W
_ZN4Sass8Prelexer8sequenceIXadL_ZNS0_15optional_spacesEPKcEEXadL_ZNS0_7exactlyILc59EEES3_S3_EEJEEES3_S3_ W
_ZN4Sass8Prelexer8sequenceIXadL_ZNS0_15optional_spacesEPKcEEXadL_ZNS0_7exactlyIXadL_ZNS_9Constants6rbraceEEEEES3_S3_EEJEEES3_S3_ W
_ZN4Sass8Prelexer8sequenceIXadL_ZNS0_15optional_spacesEPKcEEXadL_ZNS0_8optionalIXadL_ZNS0_16re_selector_listES3_EEEES3_S3_EEJXadL_ZNS0_15optional_spacesES3_EEXadL_ZNS0_7exactlyILc41EEES3_S3_EEEEES3_S3_ W
_ZN4Sass8Prelexer8sequenceIXadL_ZNS0_15unit_identifierEPKcEEEES3_S3_ W
_ZN4Sass8Prelexer8sequenceIXadL_ZNS0_15unsigned_numberEPKcEEEES3_S3_ W
_ZN4Sass8Prelexer8sequenceIXadL_ZNS0_15unsigned_numberEPKcEEXadL_ZNS0_8optionalIXadL_ZNS1_IXadL_ZNS0_7exactlyILc101EEES3_S3_EEXadL_ZNS4_IXadL_ZNS0_4signES3_EEEES3_S3_EEJXadL_ZNS0_15unsigned_numberES3_EEEEES3_S3_EEEES3_S3_EEJEEES3_S3_ W
_ZN4Sass8Prelexer8sequenceIXadL_ZNS0_16parenthese_scopeEPKcEEXadL_ZNS0_11interpolantES3_EEJXadL_ZNS0_8optionalIXadL_ZNS0_13quoted_stringES3_EEEES3_S3_EEEEES3_S3_ W
_ZN4Sass8Prelexer8sequenceIXadL_ZNS0_16skip_over_scopesIXadL_ZNS0_7exactlyILc40EEEPKcS5_EEXadL_ZNS3_ILc41EEES5_S5_EEEES5_S5_EEEES5_S5_ W
_ZN4Sass8Prelexer8sequenceIXadL_ZNS0_16static_componentEPKcEEEES3_S3_ W
_ZN4Sass8Prelexer8sequenceIXadL_ZNS0_16static_componentEPKcEEXadL_ZNS0_8one_plusIXadL_ZNS0_17strict_identifierES3_EEEES3_S3_EEJEEES3_S3_ W
_ZN4Sass8Prelexer8sequenceIXadL_ZNS0_16static_componentEPKcEEXadL_ZNS0_9zero_plusIXadL_ZNS0_10identifierES3_EEEES3_S3_EEJEEES3_S3_ W
_ZN4Sass8Prelexer8sequenceIXadL_ZNS0_17css_ip_identifierEPKcEEXadL_ZNS0_7exactlyILc124EEES3_S3_EEJEEES3_S3_ W
_ZN4Sass8Prelexer8sequenceIXadL_ZNS0_17css_ip_identifierEPKcEEXadL_ZNS0_7exactlyILc47EEES3_S3_EEJEEES3_S3_ W
_ZN4Sass8Prelexer8sequenceIXadL_ZNS0_17identifier_alnumsEPKcEEEES3_S3_ W
_ZN4Sass8Prelexer8sequenceIXadL_ZNS0_17identifier_schemaEPKcEEEES3_S3_ W
_ZN4Sass8Prelexer8sequenceIXadL_ZNS0_17strict_identifierEPKcEEXadL_ZNS0_7hyphensES3_EEJEEES3_S3_ W
_ZN4Sass8Prelexer8sequenceIXadL_ZNS0_1WEPKcEEXadL_ZNS0_12alternativesIXadL_ZNS0_13quoted_stringES3_EEXadL_ZNS0_10non_greedyIXadL_ZNS4_IXadL_ZNS0_10class_charIXadL_ZNS_9Constants14real_uri_charsEEEEES3_S3_EEXadL_ZNS0_13uri_characterES3_EEJXadL_ZNS0_8NONASCIIES3_EEXadL_ZNS0_6ESCAPEES3_EEEEES3_S3_EEXadL_ZNS4_IXadL_ZNS1_IXadL_ZNS0_1WES3_EEXadL_ZNS0_7exactlyILc41EEES3_S3_EEJEEES3_S3_EEXadL_ZNS0_7exactlyIXadL_ZNS7_11hash_lbraceEEEEES3_S3_EEJEEES3_S3_EEEES3_S3_EEJEEES3_S3_EEJEEES3_S3_ W
_ZN4Sass8Prelexer8sequenceIXadL_ZNS0_1WEPKcEEXadL_ZNS0_14real_uri_valueES3_EEJEEES3_S3_ W
_ZN4Sass8Prelexer8sequenceIXadL_ZNS0_1WEPKcEEXadL_ZNS0_14real_uri_valueES3_EEJXadL_ZNS0_7exactlyILc41EEES3_S3_EEEEES3_S3_ W
_ZN4Sass8Prelexer8sequenceIXadL_ZNS0_1WEPKcEEXadL_ZNS0_7exactlyILc41EEES3_S3_EEJEEES3_S3_ W
_ZN4Sass8Prelexer8sequenceIXadL_ZNS0_20ie_keyword_arg_valueEPKcEEEES3_S3_ W
_ZN4Sass8Prelexer8sequenceIXadL_ZNS0_21optional_css_commentsEPKcEEXadL_ZNS0_12alternativesIXadL_ZNS0_7exactlyILc44EEES3_S3_EEXadL_ZNS5_ILc40EEES3_S3_EEJXadL_ZNS5_ILc41EEES3_S3_EEXadL_ZNS0_12kwd_optionalES3_EEXadL_ZNS0_13quoted_stringES3_EEXadL_ZNS0_11interpolantES3_EEXadL_ZNS0_10identifierES3_EEXadL_ZNS0_10percentageES3_EEXadL_ZNS0_9dimensionES3_EEXadL_ZNS0_8variableES3_EEXadL_ZNS0_5alnumES3_EEXadL_ZNS1_IXadL_ZNS5_ILc92EEES3_S3_EEXadL_ZNS0_8any_charES3_EEJEEES3_S3_EEEEES3_S3_EEJEEES3_S3_ W
_ZN4Sass8Prelexer8sequenceIXadL_ZNS0_21optional_css_commentsEPKcEEXadL_ZNS0_12alternativesIXadL_ZNS0_7exactlyILc59EEES3_S3_EEXadL_ZNS5_ILc125EEES3_S3_EEJXadL_ZNS0_11end_of_fileES3_EEEEES3_S3_EEJEEES3_S3_ W
_ZN4Sass8Prelexer8sequenceIXadL_ZNS0_21optional_css_commentsEPKcEEXadL_ZNS0_4wordIXadL_ZNS_9Constants17if_after_else_kwdEEEEES3_S3_EEJEEES3_S3_ W
_ZN4Sass8Prelexer8sequenceIXadL_ZNS0_21optional_css_commentsEPKcEEXadL_ZNS0_7exactlyILc123EEES3_S3_EEJEEES3_S3_ W
_ZN4Sass8Prelexer8sequenceIXadL_ZNS0_21optional_css_commentsEPKcEEXadL_ZNS0_7exactlyILc58EEES3_S3_EEJEEES3_S3_ W
_ZN4Sass8Prelexer8sequenceIXadL_ZNS0_21optional_css_commentsEPKcEEXadL_ZNS0_7exactlyILc59EEES3_S3_EEJEEES3_S3_ W
_ZN4Sass8Prelexer8sequenceIXadL_ZNS0_23ie_keyword_arg_propertyEPKcEEXadL_ZNS0_23optional_css_whitespaceES3_EEJXadL_ZNS0_7exactlyILc61EEES3_S3_EEXadL_ZNS0_23optional_css_whitespaceES3_EEXadL_ZNS0_20ie_keyword_arg_valueES3_EEEEES3_S3_ W
_ZN4Sass8Prelexer8sequenceIXadL_ZNS0_23optional_css_whitespaceEPKcEEXadL_ZNS0_12alternativesIXadL_ZNS0_8variableES3_EEXadL_ZNS0_17identifier_schemaES3_EEJXadL_ZNS0_10identifierES3_EEXadL_ZNS0_13quoted_stringES3_EEXadL_ZNS0_6numberES3_EEXadL_ZNS0_3hexES3_EEXadL_ZNS0_4hexaES3_EEEEES3_S3_EEJEEES3_S3_ W
_ZN4Sass8Prelexer8sequenceIXadL_ZNS0_23optional_css_whitespaceEPKcEEXadL_ZNS0_12alternativesIXadL_ZNS0_8variableES3_EEXadL_ZNS0_17identifier_schemaES3_EEJXadL_ZNS0_10identifierES3_EEXadL_ZNS0_13quoted_stringES3_EEXadL_ZNS0_6numberES3_EEXadL_ZNS0_3hexES3_EEXadL_ZNS0_4hexaES3_EEEEES3_S3_EEJXadL_ZNS0_9zero_plusIXadL_ZNS1_IXadL_ZNS0_23optional_css_whitespaceES3_EEXadL_ZNS0_7exactlyILc44EEES3_S3_EEJXadL_ZNS0_23optional_css_whitespaceES3_EEXadL_ZNS1_IXadL_ZNS4_IXadL_ZNS0_8variableES3_EEXadL_ZNS0_17identifier_schemaES3_EEJXadL_ZNS0_10identifierES3_EEEEES3_S3_EEXadL_ZNS0_23optional_css_whitespaceES3_EEJXadL_ZNS6_ILc61EEES3_S3_EEXadL_ZNS0_23optional_css_whitespaceES3_EEXadL_ZNS4_IXadL_ZNS0_8variableES3_EEXadL_ZNS0_17identifier_schemaES3_EEJXadL_ZNS0_10identifierES3_EEXadL_ZNS0_13quoted_stringES3_EEXadL_ZNS0_6numberES3_EEXadL_ZNS0_3hexES3_EEXadL_ZNS0_4hexaES3_EEEEES3_S3_EEEEES3_S3_EEEEES3_S3_EEEES3_S3_EEEEES3_S3_ W
_ZN4Sass8Prelexer8sequenceIXadL_ZNS0_23optional_css_whitespaceEPKcEEXadL_ZNS0_20ie_keyword_arg_valueES3_EEJEEES3_S3_ W
_ZN4Sass8Prelexer8sequenceIXadL_ZNS0_23optional_css_whitespaceEPKcEEXadL_ZNS0_4signES3_EEJXadL_ZNS0_23optional_css_whitespaceES3_EEXadL_ZNS0_6digitsES3_EEEEES3_S3_ W
_ZN4Sass8Prelexer8sequenceIXadL_ZNS0_23optional_css_whitespaceEPKcEEXadL_ZNS0_4wordIXadL_ZNS_9Constants10global_kwdEEEEES3_S3_EEJEEES3_S3_ W
_ZN4Sass8Prelexer8sequenceIXadL_ZNS0_23optional_css_whitespaceEPKcEEXadL_ZNS0_4wordIXadL_ZNS_9Constants11default_kwdEEEEES3_S3_EEJEEES3_S3_ W
_ZN4Sass8Prelexer8sequenceIXadL_ZNS0_23optional_css_whitespaceEPKcEEXadL_ZNS0_4wordIXadL_ZNS_9Constants12optional_kwdEEEEES3_S3_EEJEEES3_S3_ W
_ZN4Sass8Prelexer8sequenceIXadL_ZNS0_23optional_css_whitespaceEPKcEEXadL_ZNS0_4wordIXadL_ZNS_9Constants13important_kwdEEEEES3_S3_EEJEEES3_S3_ W
_ZN4Sass8Prelexer8sequenceIXadL_ZNS0_23optional_css_whitespaceEPKcEEXadL_ZNS0_6digitsES3_EEJEEES3_S3_ W
_ZN4Sass8Prelexer8sequenceIXadL_ZNS0_23optional_css_whitespaceEPKcEEXadL_ZNS0_7exactlyILc41EEES3_S3_EEJEEES3_S3_ W
_ZN4Sass8Prelexer8sequenceIXadL_ZNS0_23optional_css_whitespaceEPKcEEXadL_ZNS0_7exactlyILc44EEES3_S3_EEJXadL_ZNS0_23optional_css_whitespaceES3_EEXadL_ZNS1_IXadL_ZNS0_12alternativesIXadL_ZNS0_8variableES3_EEXadL_ZNS0_17identifier_schemaES3_EEJXadL_ZNS0_10identifierES3_EEEEES3_S3_EEXadL_ZNS0_23optional_css_whitespaceES3_EEJXadL_ZNS4_ILc61EEES3_S3_EEXadL_ZNS0_23optional_css_whitespaceES3_EEXadL_ZNS5_IXadL_ZNS0_8variableES3_EEXadL_ZNS0_17identifier_schemaES3_EEJXadL_ZNS0_10identifierES3_EEXadL_ZNS0_13quoted_stringES3_EEXadL_ZNS0_6numberES3_EEXadL_ZNS0_3hexES3_EEXadL_ZNS0_4hexaES3_EEEEES3_S3_EEEEES3_S3_EEEEES3_S3_ W
_ZN4Sass8Prelexer8sequenceIXadL_ZNS0_23optional_css_whitespaceEPKcEEXadL_ZNS0_7exactlyILc45EEES3_S3_EEJEEES3_S3_ W
_ZN4Sass8Prelexer8sequenceIXadL_ZNS0_23optional_css_whitespaceEPKcEEXadL_ZNS0_7exactlyILc61EEES3_S3_EEJXadL_ZNS0_23optional_css_whitespaceES3_EEXadL_ZNS0_12alternativesIXadL_ZNS0_8variableES3_EEXadL_ZNS0_17identifier_schemaES3_EEJXadL_ZNS0_10identifierES3_EEXadL_ZNS0_13quoted_stringES3_EEXadL_ZNS0_6numberES3_EEXadL_ZNS0_3hexES3_EEXadL_ZNS0_4hexaES3_EEEEES3_S3_EEEEES3_S3_ W
_ZN4Sass8Prelexer8sequenceIXadL_ZNS0_23optional_css_whitespaceEPKcEEXadL_ZNS0_7exactlyILc61EEES3_S3_EEJXadL_ZNS0_23optional_css_whitespaceES3_EEXadL_ZNS0_12alternativesIXadL_ZNS0_8variableES3_EEXadL_ZNS0_17identifier_schemaES3_EEJXadL_ZNS0_10identifierES3_EEXadL_ZNS0_13quoted_stringES3_EEXadL_ZNS0_6numberES3_EEXadL_ZNS0_3hexES3_EEXadL_ZNS0_4hexaES3_EEEEES3_S3_EEXadL_ZNS0_9zero_plusIXadL_ZNS1_IXadL_ZNS0_23optional_css_whitespaceES3_EEXadL_ZNS4_ILc44EEES3_S3_EEJXadL_ZNS0_23optional_css_whitespaceES3_EEXadL_ZNS1_IXadL_ZNS5_IXadL_ZNS0_8variableES3_EEXadL_ZNS0_17identifier_schemaES3_EEJXadL_ZNS0_10identifierES3_EEEEES3_S3_EEXadL_ZNS0_23optional_css_whitespaceES3_EEJXadL_ZNS4_ILc61EEES3_S3_EEXadL_ZNS0_23optional_css_whitespaceES3_EEXadL_ZNS5_IXadL_ZNS0_8variableES3_EEXadL_ZNS0_17identifier_schemaES3_EEJXadL_ZNS0_10identifierES3_EEXadL_ZNS0_13quoted_stringES3_EEXadL_ZNS0_6numberES3_EEXadL_ZNS0_3hexES3_EEXadL_ZNS0_4hexaES3_EEEEES3_S3_EEEEES3_S3_EEEEES3_S3_EEEES3_S3_EEEEES3_S3_ W
_ZN4Sass8Prelexer8sequenceIXadL_ZNS0_23optional_css_whitespaceEPKcEEXadL_ZNS0_7exactlyILc61EEES3_S3_EEJXadL_ZNS0_23optional_css_whitespaceES3_EEXadL_ZNS0_20ie_keyword_arg_valueES3_EEEEES3_S3_ W
_ZN4Sass8Prelexer8sequenceIXadL_ZNS0_23optional_css_whitespaceEPKcEEXadL_ZNS0_8optionalIXadL_ZNS1_IXadL_ZNS0_12alternativesIXadL_ZNS0_8variableES3_EEXadL_ZNS0_17identifier_schemaES3_EEJXadL_ZNS0_10identifierES3_EEEEES3_S3_EEXadL_ZNS0_23optional_css_whitespaceES3_EEJXadL_ZNS0_7exactlyILc61EEES3_S3_EEXadL_ZNS0_23optional_css_whitespaceES3_EEXadL_ZNS5_IXadL_ZNS0_8variableES3_EEXadL_ZNS0_17identifier_schemaES3_EEJXadL_ZNS0_10identifierES3_EEXadL_ZNS0_13quoted_stringES3_EEXadL_ZNS0_6numberES3_EEXadL_ZNS0_3hexES3_EEXadL_ZNS0_4hexaES3_EEEEES3_S3_EEXadL_ZNS0_9zero_plusIXadL_ZNS1_IXadL_ZNS0_23optional_css_whitespaceES3_EEXadL_ZNS6_ILc44EEES3_S3_EEJXadL_ZNS0_23optional_css_whitespaceES3_EEXadL_ZNS1_IXadL_ZNS5_IXadL_ZNS0_8variableES3_EEXadL_ZNS0_17identifier_schemaES3_EEJXadL_ZNS0_10identifierES3_EEEEES3_S3_EEXadL_ZNS0_23optional_css_whitespaceES3_EEJXadL_ZNS6_ILc61EEES3_S3_EEXadL_ZNS0_23optional_css_whitespaceES3_EEXadL_ZNS5_IXadL_ZNS0_8variableES3_EEXadL_ZNS0_17identifier_schemaES3_EEJXadL_ZNS0_10identifierES3_EEXadL_ZNS0_13quoted_stringES3_EEXadL_ZNS0_6numberES3_EEXadL_ZNS0_3hexES3_EEXadL_ZNS0_4hexaES3_EEEEES3_S3_EEEEES3_S3_EEEEES3_S3_EEEES3_S3_EEEEES3_S3_EEEES3_S3_EEJXadL_ZNS0_23optional_css_whitespaceES3_EEXadL_ZNS6_ILc41EEES3_S3_EEEEES3_S3_ W
_ZN4Sass8Prelexer8sequenceIXadL_ZNS0_23optional_css_whitespaceEPKcEEXadL_ZNS1_IXadL_ZNS0_12alternativesIXadL_ZNS0_8variableES3_EEXadL_ZNS0_17identifier_schemaES3_EEJXadL_ZNS0_10identifierES3_EEEEES3_S3_EEXadL_ZNS0_23optional_css_whitespaceES3_EEJXadL_ZNS0_7exactlyILc61EEES3_S3_EEXadL_ZNS0_23optional_css_whitespaceES3_EEXadL_ZNS4_IXadL_ZNS0_8variableES3_EEXadL_ZNS0_17identifier_schemaES3_EEJXadL_ZNS0_10identifierES3_EEXadL_ZNS0_13quoted_stringES3_EEXadL_ZNS0_6numberES3_EEXadL_ZNS0_3hexES3_EEXadL_ZNS0_4hexaES3_EEEEES3_S3_EEEEES3_S3_EEJEEES3_S3_ W
_ZN4Sass8Prelexer8sequenceIXadL_ZNS0_23re_reference_combinatorEPKcEEXadL_ZNS0_7exactlyILc47EEES3_S3_EEJEEES3_S3_ W
_ZN4Sass8Prelexer8sequenceIXadL_ZNS0_23strict_identifier_alphaEPKcEEEES3_S3_ W
_ZN4Sass8Prelexer8sequenceIXadL_ZNS0_23strict_identifier_alphaEPKcEEXadL_ZNS0_9zero_plusIXadL_ZNS0_12alternativesIXadL_ZNS0_23strict_identifier_alnumES3_EEXadL_ZNS1_IXadL_ZNS0_8one_plusIXadL_ZNS0_7exactlyILc45EEES3_S3_EEEES3_S3_EEXadL_ZNS0_23strict_identifier_alphaES3_EEJEEES3_S3_EEJEEES3_S3_EEEES3_S3_EEJEEES3_S3_ W
_ZN4Sass8Prelexer8sequenceIXadL_ZNS0_2opEPKcEEXadL_ZNS0_6numberES3_EEJEEES3_S3_ W
_ZN4Sass8Prelexer8sequenceIXadL_ZNS0_3hexEPKcEEXadL_ZNS0_6negateIXadL_ZNS0_7exactlyILc45EEES3_S3_EEEES3_S3_EEJEEES3_S3_ W
_ZN4Sass8Prelexer8sequenceIXadL_ZNS0_4nameEPKcEEEES3_S3_ W
_ZN4Sass8Prelexer8sequenceIXadL_ZNS0_4signEPKcEEXadL_ZNS0_23optional_css_whitespaceES3_EEJXadL_ZNS0_6digitsES3_EEEEES3_S3_ W
_ZN4Sass8Prelexer8sequenceIXadL_ZNS0_4wordIXadL_ZNS_9Constants10global_kwdEEEEEPKcS5_EEEES5_S5_ W
_ZN4Sass8Prelexer8sequenceIXadL_ZNS0_4wordIXadL_ZNS_9Constants10progid_kwdEEEEEPKcS5_EEXadL_ZNS0_7exactlyILc58EEES5_S5_EEJXadL_ZNS0_12alternativesIXadL_ZNS0_17identifier_schemaES5_EEXadL_ZNS0_10identifierES5_EEJEEES5_S5_EEXadL_ZNS0_9zero_plusIXadL_ZNS1_IXadL_ZNS6_ILc46EEES5_S5_EEXadL_ZNS7_IXadL_ZNS0_17identifier_schemaES5_EEXadL_ZNS0_10identifierES5_EEJEEES5_S5_EEJEEES5_S5_EEEES5_S5_EEXadL_ZNS8_IXadL_ZNS1_IXadL_ZNS6_ILc40EEES5_S5_EEXadL_ZNS0_23optional_css_whitespaceES5_EEJXadL_ZNS0_8optionalIXadL_ZNS1_IXadL_ZNS7_IXadL_ZNS0_8variableES5_EEXadL_ZNS0_17identifier_schemaES5_EEJXadL_ZNS0_10identifierES5_EEEEES5_S5_EEXadL_ZNS0_23optional_css_whitespaceES5_EEJXadL_ZNS6_ILc61EEES5_S5_EEXadL_ZNS0_23optional_css_whitespaceES5_EEXadL_ZNS7_IXadL_ZNS0_8variableES5_EEXadL_ZNS0_17identifier_schemaES5_EEJXadL_ZNS0_10identifierES5_EEXadL_ZNS0_13quoted_stringES5_EEXadL_ZNS0_6numberES5_EEXadL_ZNS0_3hexES5_EEXadL_ZNS0_4hexaES5_EEEEES5_S5_EEXadL_ZNS8_IXadL_ZNS1_IXadL_ZNS0_23optional_css_whitespaceES5_EEXadL_ZNS6_ILc44EEES5_S5_EEJXadL_ZNS0_23optional_css_whitespaceES5_EEXadL_ZNS1_IXadL_ZNS7_IXadL_ZNS0_8variableES5_EEXadL_ZNS0_17identifier_schemaES5_EEJXadL_ZNS0_10identifierES5_EEEEES5_S5_EEXadL_ZNS0_23optional_css_whitespaceES5_EEJXadL_ZNS6_ILc61EEES5_S5_EEXadL_ZNS0_23optional_css_whitespaceES5_EEXadL_ZNS7_IXadL_ZNS0_8variableES5_EEXadL_ZNS0_17identifier_schemaES5_EEJXadL_ZNS0_10identifierES5_EEXadL_ZNS0_13quoted_stringES5_EEXadL_ZNS0_6numberES5_EEXadL_ZNS0_3hexES5_EEXadL_ZNS0_4hexaES5_EEEEES5_S5_EEEEES5_S5_EEEEES5_S5_EEEES5_S5_EEEEES5_S5_EEEES5_S5_EEXadL_ZNS0_23optional_css_whitespaceES5_EEXadL_ZNS6_ILc41EEES5_S5_EEEEES5_S5_EEEES5_S5_EEEEES5_S5_ W
_ZN4Sass8Prelexer8sequenceIXadL_ZNS0_4wordIXadL_ZNS_9Constants11default_kwdEEEEEPKcS5_EEEES5_S5_ W
_ZN4Sass8Prelexer8sequenceIXadL_ZNS0_4wordIXadL_ZNS_9Constants12optional_kwdEEEEEPKcS5_EEEES5_S5_ W
_ZN4Sass8Prelexer8sequenceIXadL_ZNS0_4wordIXadL_ZNS_9Constants13important_kwdEEEEEPKcS5_EEEES5_S5_ W
_ZN4Sass8Prelexer8sequenceIXadL_ZNS0_4wordIXadL_ZNS_9Constants14expression_kwdEEEEEPKcS5_EEXadL_ZNS0_7exactlyILc40EEES5_S5_EEJXadL_ZNS0_16skip_over_scopesIXadL_ZNS6_ILc40EEES5_S5_EEXadL_ZNS6_ILc41EEES5_S5_EEEES5_S5_EEEEES5_S5_ W
_ZN4Sass8Prelexer8sequenceIXadL_ZNS0_4wordIXadL_ZNS_9Constants17if_after_else_kwdEEEEEPKcS5_EEEES5_S5_ W
_ZN4Sass8Prelexer8sequenceIXadL_ZNS0_6digitsEPKcEEEES3_S3_ W
_ZN4Sass8Prelexer8sequenceIXadL_ZNS0_6negateIXadL_ZNS0_10uri_prefixEPKcEEEES4_S4_EEEES4_S4_ W
_ZN4Sass8Prelexer8sequenceIXadL_ZNS0_6negateIXadL_ZNS0_10uri_prefixEPKcEEEES4_S4_EEXadL_ZNS0_14neg_class_charIXadL_ZNS_9Constants22almost_any_value_classEEEEES4_S4_EEJEEES4_S4_ W
_ZN4Sass8Prelexer8sequenceIXadL_ZNS0_6negateIXadL_ZNS0_12alternativesIXadL_ZNS0_7exactlyILc47EEEPKcS6_EEXadL_ZNS4_ILc42EEES6_S6_EEJEEES6_S6_EEEES6_S6_EEEES6_S6_ W
_ZN4Sass8Prelexer8sequenceIXadL_ZNS0_6negateIXadL_ZNS0_15unsigned_numberEPKcEEEES4_S4_EEEES4_S4_ W
_ZN4Sass8Prelexer8sequenceIXadL_ZNS0_6negateIXadL_ZNS0_15unsigned_numberEPKcEEEES4_S4_EEXadL_ZNS0_7exactlyILc45EEES4_S4_EEJXadL_ZNS2_IXadL_ZNS0_15unsigned_numberES4_EEEES4_S4_EEEEES4_S4_ W
_ZN4Sass8Prelexer8sequenceIXadL_ZNS0_6negateIXadL_ZNS0_15unsigned_numberEPKcEEEES4_S4_EEXadL_ZNS0_7exactlyILc45EEES4_S4_EEJXadL_ZNS2_IXadL_ZNS0_5spaceES4_EEEES4_S4_EEEEES4_S4_ W
_ZN4Sass8Prelexer8sequenceIXadL_ZNS0_6negateIXadL_ZNS0_5alphaEPKcEEEES4_S4_EEEES4_S4_ W
_ZN4Sass8Prelexer8sequenceIXadL_ZNS0_6negateIXadL_ZNS0_5digitEPKcEEEES4_S4_EEXadL_ZNS0_7exactlyILc45EEES4_S4_EEJEEES4_S4_ W
_ZN4Sass8Prelexer8sequenceIXadL_ZNS0_6negateIXadL_ZNS0_5spaceEPKcEEEES4_S4_EEEES4_S4_ W
_ZN4Sass8Prelexer8sequenceIXadL_ZNS0_6negateIXadL_ZNS0_7exactlyILc123EEEPKcS5_EEEES5_S5_EEEES5_S5_ W
_ZN4Sass8Prelexer8sequenceIXadL_ZNS0_6negateIXadL_ZNS0_7exactlyILc37EEEPKcS5_EEEES5_S5_EEEES5_S5_ W
_ZN4Sass8Prelexer8sequenceIXadL_ZNS0_6negateIXadL_ZNS0_7exactlyILc37EEEPKcS5_EEEES5_S5_EEXadL_ZNS0_9lookaheadIXadL_ZNS3_ILc40EEES5_S5_EEEES5_S5_EEJEEES5_S5_ W
_ZN4Sass8Prelexer8sequenceIXadL_ZNS0_6negateIXadL_ZNS0_7exactlyILc42EEEPKcS5_EEEES5_S5_EEEES5_S5_ W
_ZN4Sass8Prelexer8sequenceIXadL_ZNS0_6negateIXadL_ZNS0_7exactlyILc45EEEPKcS5_EEEES5_S5_EEEES5_S5_ W
_ZN4Sass8Prelexer8sequenceIXadL_ZNS0_6negateIXadL_ZNS0_7exactlyILc61EEEPKcS5_EEEES5_S5_EEEES5_S5_ W
_ZN4Sass8Prelexer8sequenceIXadL_ZNS0_6negateIXadL_ZNS0_7exactlyIXadL_ZNS_9Constants10url_fn_kwdEEEEEPKcS6_EEEES6_S6_EEXadL_ZNS0_8one_plusIXadL_ZNS0_14neg_class_charIXadL_ZNS0_24css_variable_url_negatesEEEEES6_S6_EEEES6_S6_EEJEEES6_S6_ W
_ZN4Sass8Prelexer8sequenceIXadL_ZNS0_6negateIXadL_ZNS0_7exactlyIXadL_ZNS_9Constants10url_fn_kwdEEEEEPKcS6_EEEES6_S6_EEXadL_ZNS0_8one_plusIXadL_ZNS0_14neg_class_charIXadL_ZNS0_34css_variable_url_top_level_negatesEEEEES6_S6_EEEES6_S6_EEJEEES6_S6_ W
_ZN4Sass8Prelexer8sequenceIXadL_ZNS0_6negateIXadL_ZNS1_IXadL_ZNS0_7exactlyIXadL_ZNS_9Constants11calc_fn_kwdEEEEEPKcS6_EEXadL_ZNS0_7exactlyILc40EEES6_S6_EEJEEES6_S6_EEEES6_S6_EEXadL_ZNS0_14multiple_unitsES6_EEJEEES6_S6_ W
_ZN4Sass8Prelexer8sequenceIXadL_ZNS0_6negateIXadL_ZNS1_IXadL_ZNS0_7exactlyIXadL_ZNS_9Constants7url_kwdEEEEEPKcS6_EEXadL_ZNS0_7exactlyILc40EEES6_S6_EEJEEES6_S6_EEEES6_S6_EEXadL_ZNS0_14neg_class_charIXadL_ZNS4_22almost_any_value_classEEEEES6_S6_EEJEEES6_S6_ W
_ZN4Sass8Prelexer8sequenceIXadL_ZNS0_6numberEPKcEEEES3_S3_ W
_ZN4Sass8Prelexer8sequenceIXadL_ZNS0_6numberEPKcEEXadL_ZNS0_15optional_spacesES3_EEJXadL_ZNS0_7exactlyILc47EEES3_S3_EEXadL_ZNS0_15optional_spacesES3_EEXadL_ZNS0_6numberES3_EEEEES3_S3_ W
_ZN4Sass8Prelexer8sequenceIXadL_ZNS0_6numberEPKcEEXadL_ZNS0_15unit_identifierES3_EEJEEES3_S3_ W
_ZN4Sass8Prelexer8sequenceIXadL_ZNS0_6numberEPKcEEXadL_ZNS0_7exactlyILc37EEES3_S3_EEJEEES3_S3_ W
_ZN4Sass8Prelexer8sequenceIXadL_ZNS0_6numberEPKcEEXadL_ZNS0_9lookaheadIXadL_ZNS1_IXadL_ZNS0_2opES3_EEXadL_ZNS0_6numberES3_EEJEEES3_S3_EEEES3_S3_EEJEEES3_S3_ W
_ZN4Sass8Prelexer8sequenceIXadL_ZNS0_7betweenIXadL_ZNS0_1HEPKcEELm1ELm6EEES4_S4_EEXadL_ZNS0_8optionalIXadL_ZNS0_1WES4_EEEES4_S4_EEJEEES4_S4_ W
_ZN4Sass8Prelexer8sequenceIXadL_ZNS0_7exactlyILc101EEEPKcS4_EEXadL_ZNS0_8optionalIXadL_ZNS0_4signES4_EEEES4_S4_EEJXadL_ZNS0_15unsigned_numberES4_EEEEES4_S4_ W
_ZN4Sass8Prelexer8sequenceIXadL_ZNS0_7exactlyILc108EEEPKcS4_EEXadL_ZNS2_ILc40EEES4_S4_EEJXadL_ZNS0_1WES4_EEXadL_ZNS0_12alternativesIXadL_ZNS0_13quoted_stringES4_EEXadL_ZNS0_10non_greedyIXadL_ZNS5_IXadL_ZNS0_10class_charIXadL_ZNS_9Constants14real_uri_charsEEEEES4_S4_EEXadL_ZNS0_13uri_characterES4_EEJXadL_ZNS0_8NONASCIIES4_EEXadL_ZNS0_6ESCAPEES4_EEEEES4_S4_EEXadL_ZNS5_IXadL_ZNS1_IXadL_ZNS0_1WES4_EEXadL_ZNS2_ILc41EEES4_S4_EEJEEES4_S4_EEXadL_ZNS0_7exactlyIXadL_ZNS8_11hash_lbraceEEEEES4_S4_EEJEEES4_S4_EEEES4_S4_EEJEEES4_S4_EEEEES4_S4_ W
_ZN4Sass8Prelexer8sequenceIXadL_ZNS0_7exactlyILc108EEEPKcS4_EEXadL_ZNS2_ILc40EEES4_S4_EEJXadL_ZNS0_9zero_plusIXadL_ZNS0_12alternativesIXadL_ZNS0_10class_charIXadL_ZNS_9Constants14real_uri_charsEEEEES4_S4_EEXadL_ZNS0_13uri_characterES4_EEJXadL_ZNS0_8NONASCIIES4_EEXadL_ZNS0_6ESCAPEES4_EEEEES4_S4_EEEES4_S4_EEXadL_ZNS2_ILc41EEES4_S4_EEEEES4_S4_ W
_ZN4Sass8Prelexer8sequenceIXadL_ZNS0_7exactlyILc110EEEPKcS4_EEXadL_ZNS0_9zero_plusIXadL_ZNS1_IXadL_ZNS0_23optional_css_whitespaceES4_EEXadL_ZNS0_4signES4_EEJXadL_ZNS0_23optional_css_whitespaceES4_EEXadL_ZNS0_6digitsES4_EEEEES4_S4_EEEES4_S4_EEJEEES4_S4_ W
_ZN4Sass8Prelexer8sequenceIXadL_ZNS0_7exactlyILc114EEEPKcS4_EEXadL_ZNS2_ILc108EEES4_S4_EEJXadL_ZNS2_ILc40EEES4_S4_EEXadL_ZNS0_1WES4_EEXadL_ZNS0_12alternativesIXadL_ZNS0_13quoted_stringES4_EEXadL_ZNS0_10non_greedyIXadL_ZNS5_IXadL_ZNS0_10class_charIXadL_ZNS_9Constants14real_uri_charsEEEEES4_S4_EEXadL_ZNS0_13uri_characterES4_EEJXadL_ZNS0_8NONASCIIES4_EEXadL_ZNS0_6ESCAPEES4_EEEEES4_S4_EEXadL_ZNS5_IXadL_ZNS1_IXadL_ZNS0_1WES4_EEXadL_ZNS2_ILc41EEES4_S4_EEJEEES4_S4_EEXadL_ZNS0_7exactlyIXadL_ZNS8_11hash_lbraceEEEEES4_S4_EEJEEES4_S4_EEEES4_S4_EEJEEES4_S4_EEEEES4_S4_ W
_ZN4Sass8Prelexer8sequenceIXadL_ZNS0_7exactlyILc114EEEPKcS4_EEXadL_ZNS2_ILc108EEES4_S4_EEJXadL_ZNS2_ILc40EEES4_S4_EEXadL_ZNS0_9zero_plusIXadL_ZNS0_12alternativesIXadL_ZNS0_10class_charIXadL_ZNS_9Constants14real_uri_charsEEEEES4_S4_EEXadL_ZNS0_13uri_characterES4_EEJXadL_ZNS0_8NONASCIIES4_EEXadL_ZNS0_6ESCAPEES4_EEEEES4_S4_EEEES4_S4_EEXadL_ZNS2_ILc41EEES4_S4_EEEEES4_S4_ W
_ZN4Sass8Prelexer8sequenceIXadL_ZNS0_7exactlyILc117EEEPKcS4_EEXadL_ZNS2_ILc114EEES4_S4_EEJXadL_ZNS2_ILc108EEES4_S4_EEXadL_ZNS2_ILc40EEES4_S4_EEXadL_ZNS0_1WES4_EEXadL_ZNS0_12alternativesIXadL_ZNS0_13quoted_stringES4_EEXadL_ZNS0_10non_greedyIXadL_ZNS5_IXadL_ZNS0_10class_charIXadL_ZNS_9Constants14real_uri_charsEEEEES4_S4_EEXadL_ZNS0_13uri_characterES4_EEJXadL_ZNS0_8NONASCIIES4_EEXadL_ZNS0_6ESCAPEES4_EEEEES4_S4_EEXadL_ZNS5_IXadL_ZNS1_IXadL_ZNS0_1WES4_EEXadL_ZNS2_ILc41EEES4_S4_EEJEEES4_S4_EEXadL_ZNS0_7exactlyIXadL_ZNS8_11hash_lbraceEEEEES4_S4_EEJEEES4_S4_EEEES4_S4_EEJEEES4_S4_EEEEES4_S4_ W
_ZN4Sass8Prelexer8sequenceIXadL_ZNS0_7exactlyILc117EEEPKcS4_EEXadL_ZNS2_ILc114EEES4_S4_EEJXadL_ZNS2_ILc108EEES4_S4_EEXadL_ZNS2_ILc40EEES4_S4_EEXadL_ZNS0_9zero_plusIXadL_ZNS0_12alternativesIXadL_ZNS0_10class_charIXadL_ZNS_9Constants14real_uri_charsEEEEES4_S4_EEXadL_ZNS0_13uri_characterES4_EEJXadL_ZNS0_8NONASCIIES4_EEXadL_ZNS0_6ESCAPEES4_EEEEES4_S4_EEEES4_S4_EEXadL_ZNS2_ILc41EEES4_S4_EEEEES4_S4_ W
_ZN4Sass8Prelexer8sequenceIXadL_ZNS0_7exactlyILc120EEEPKcS4_EEXadL_ZNS0_8one_plusIXadL_ZNS0_6xdigitES4_EEEES4_S4_EEJEEES4_S4_ W
_ZN4Sass8Prelexer8sequenceIXadL_ZNS0_7exactlyILc123EEEPKcS4_EEEES4_S4_ W
_ZN4Sass8Prelexer8sequenceIXadL_ZNS0_7exactlyILc124EEEPKcS4_EEEES4_S4_ W
_ZN4Sass8Prelexer8sequenceIXadL_ZNS0_7exactlyILc124EEEPKcS4_EEXadL_ZNS0_6negateIXadL_ZNS2_ILc61EEES4_S4_EEEES4_S4_EEJEEES4_S4_ W
_ZN4Sass8Prelexer8sequenceIXadL_ZNS0_7exactlyILc33EEEPKcS4_EEXadL_ZNS0_23optional_css_whitespaceES4_EEJXadL_ZNS0_4wordIXadL_ZNS_9Constants10global_kwdEEEEES4_S4_EEEEES4_S4_ W
_ZN4Sass8Prelexer8sequenceIXadL_ZNS0_7exactlyILc33EEEPKcS4_EEXadL_ZNS0_23optional_css_whitespaceES4_EEJXadL_ZNS0_4wordIXadL_ZNS_9Constants11default_kwdEEEEES4_S4_EEEEES4_S4_ W
_ZN4Sass8Prelexer8sequenceIXadL_ZNS0_7exactlyILc33EEEPKcS4_EEXadL_ZNS0_23optional_css_whitespaceES4_EEJXadL_ZNS0_4wordIXadL_ZNS_9Constants12optional_kwdEEEEES4_S4_EEEEES4_S4_ W
_ZN4Sass8Prelexer8sequenceIXadL_ZNS0_7exactlyILc33EEEPKcS4_EEXadL_ZNS0_23optional_css_whitespaceES4_EEJXadL_ZNS0_4wordIXadL_ZNS_9Constants13important_kwdEEEEES4_S4_EEEEES4_S4_ W
_ZN4Sass8Prelexer8sequenceIXadL_ZNS0_7exactlyILc33EEEPKcS4_EEXadL_ZNS0_4wordIXadL_ZNS_9Constants13important_kwdEEEEES4_S4_EEJEEES4_S4_ W
_ZN4Sass8Prelexer8sequenceIXadL_ZNS0_7exactlyILc33EEEPKcS4_EEXadL_ZNS0_6negateIXadL_ZNS0_5alphaES4_EEEES4_S4_EEJEEES4_S4_ W
_ZN4Sass8Prelexer8sequenceIXadL_ZNS0_7exactlyILc34EEEPKcS4_EEEES4_S4_ W
_ZN4Sass8Prelexer8sequenceIXadL_ZNS0_7exactlyILc34EEEPKcS4_EEXadL_ZNS0_9zero_plusIXadL_ZNS0_12alternativesIXadL_ZNS1_IXadL_ZNS2_ILc92EEES4_S4_EEXadL_ZNS0_12re_linebreakES4_EEJEEES4_S4_EEXadL_ZNS0_10escape_seqES4_EEJXadL_ZNS0_11unicode_seqES4_EEXadL_ZNS0_11interpolantES4_EEXadL_ZNS0_12any_char_butILc34EEES4_S4_EEEEES4_S4_EEEES4_S4_EEJXadL_ZNS2_ILc34EEES4_S4_EEEEES4_S4_ W
_ZN4Sass8Prelexer8sequenceIXadL_ZNS0_7exactlyILc34EEEPKcS4_EEXadL_ZNS0_9zero_plusIXadL_ZNS0_12alternativesIXadL_ZNS1_IXadL_ZNS2_ILc92EEES4_S4_EEXadL_ZNS0_8any_charES4_EEJEEES4_S4_EEXadL_ZNS1_IXadL_ZNS2_ILc35EEES4_S4_EEXadL_ZNS0_6negateIXadL_ZNS2_ILc123EEES4_S4_EEEES4_S4_EEJEEES4_S4_EEJXadL_ZNS0_14neg_class_charIXadL_ZNS0_21string_double_negatesEEEEES4_S4_EEEEES4_S4_EEEES4_S4_EEJXadL_ZNS6_IXadL_ZNS2_ILc34EEES4_S4_EEXadL_ZNS0_9lookaheadIXadL_ZNS0_7exactlyIXadL_ZNS_9Constants11hash_lbraceEEEEES4_S4_EEEES4_S4_EEJEEES4_S4_EEEEES4_S4_ W
_ZN4Sass8Prelexer8sequenceIXadL_ZNS0_7exactlyILc35EEEPKcS4_EEXadL_ZNS0_10identifierES4_EEJEEES4_S4_ W
_ZN4Sass8Prelexer8sequenceIXadL_ZNS0_7exactlyILc35EEEPKcS4_EEXadL_ZNS0_17identifier_alnumsES4_EEJEEES4_S4_ W
_ZN4Sass8Prelexer8sequenceIXadL_ZNS0_7exactlyILc35EEEPKcS4_EEXadL_ZNS0_6negateIXadL_ZNS2_ILc123EEES4_S4_EEEES4_S4_EEJEEES4_S4_ W
_ZN4Sass8Prelexer8sequenceIXadL_ZNS0_7exactlyILc35EEEPKcS4_EEXadL_ZNS0_8one_plusIXadL_ZNS0_6xdigitES4_EEEES4_S4_EEJEEES4_S4_ W
_ZN4Sass8Prelexer8sequenceIXadL_ZNS0_7exactlyILc36EEEPKcS4_EEXadL_ZNS0_10identifierES4_EEJEEES4_S4_ W
_ZN4Sass8Prelexer8sequenceIXadL_ZNS0_7exactlyILc37EEEPKcS4_EEEES4_S4_ W
_ZN4Sass8Prelexer8sequenceIXadL_ZNS0_7exactlyILc37EEEPKcS4_EEXadL_ZNS0_17identifier_alnumsES4_EEJEEES4_S4_ W
_ZN4Sass8Prelexer8sequenceIXadL_ZNS0_7exactlyILc39EEEPKcS4_EEEES4_S4_ W
_ZN4Sass8Prelexer8sequenceIXadL_ZNS0_7exactlyILc39EEEPKcS4_EEXadL_ZNS0_9zero_plusIXadL_ZNS0_12alternativesIXadL_ZNS1_IXadL_ZNS2_ILc92EEES4_S4_EEXadL_ZNS0_12re_linebreakES4_EEJEEES4_S4_EEXadL_ZNS0_10escape_seqES4_EEJXadL_ZNS0_11unicode_seqES4_EEXadL_ZNS0_11interpolantES4_EEXadL_ZNS0_12any_char_butILc39EEES4_S4_EEEEES4_S4_EEEES4_S4_EEJXadL_ZNS2_ILc39EEES4_S4_EEEEES4_S4_ W
_ZN4Sass8Prelexer8sequenceIXadL_ZNS0_7exactlyILc39EEEPKcS4_EEXadL_ZNS0_9zero_plusIXadL_ZNS0_12alternativesIXadL_ZNS1_IXadL_ZNS2_ILc92EEES4_S4_EEXadL_ZNS0_8any_charES4_EEJEEES4_S4_EEXadL_ZNS1_IXadL_ZNS2_ILc35EEES4_S4_EEXadL_ZNS0_6negateIXadL_ZNS2_ILc123EEES4_S4_EEEES4_S4_EEJEEES4_S4_EEJXadL_ZNS0_14neg_class_charIXadL_ZNS0_21string_single_negatesEEEEES4_S4_EEEEES4_S4_EEEES4_S4_EEJXadL_ZNS6_IXadL_ZNS2_ILc39EEES4_S4_EEXadL_ZNS0_9lookaheadIXadL_ZNS0_7exactlyIXadL_ZNS_9Constants11hash_lbraceEEEEES4_S4_EEEES4_S4_EEJEEES4_S4_EEEEES4_S4_ W
_ZN4Sass8Prelexer8sequenceIXadL_ZNS0_7exactlyILc40EEEPKcS4_EEEES4_S4_ W
_ZN4Sass8Prelexer8sequenceIXadL_ZNS0_7exactlyILc40EEEPKcS4_EEXadL_ZNS0_15optional_spacesES4_EEJXadL_ZNS0_8optionalIXadL_ZNS0_16re_selector_listES4_EEEES4_S4_EEXadL_ZNS0_15optional_spacesES4_EEXadL_ZNS2_ILc41EEES4_S4_EEEEES4_S4_ W
_ZN4Sass8Prelexer8sequenceIXadL_ZNS0_7exactlyILc40EEEPKcS4_EEXadL_ZNS0_16skip_over_scopesIXadL_ZNS2_ILc40EEES4_S4_EEXadL_ZNS2_ILc41EEES4_S4_EEEES4_S4_EEJEEES4_S4_ W
_ZN4Sass8Prelexer8sequenceIXadL_ZNS0_7exactlyILc40EEEPKcS4_EEXadL_ZNS0_1WES4_EEJXadL_ZNS0_12alternativesIXadL_ZNS0_13quoted_stringES4_EEXadL_ZNS0_10non_greedyIXadL_ZNS5_IXadL_ZNS0_10class_charIXadL_ZNS_9Constants14real_uri_charsEEEEES4_S4_EEXadL_ZNS0_13uri_characterES4_EEJXadL_ZNS0_8NONASCIIES4_EEXadL_ZNS0_6ESCAPEES4_EEEEES4_S4_EEXadL_ZNS5_IXadL_ZNS1_IXadL_ZNS0_1WES4_EEXadL_ZNS2_ILc41EEES4_S4_EEJEEES4_S4_EEXadL_ZNS0_7exactlyIXadL_ZNS8_11hash_lbraceEEEEES4_S4_EEJEEES4_S4_EEEES4_S4_EEJEEES4_S4_EEEEES4_S4_ W
_ZN4Sass8Prelexer8sequenceIXadL_ZNS0_7exactlyILc40EEEPKcS4_EEXadL_ZNS0_1WES4_EEJXadL_ZNS0_14real_uri_valueES4_EEXadL_ZNS2_ILc41EEES4_S4_EEEEES4_S4_ W
_ZN4Sass8Prelexer8sequenceIXadL_ZNS0_7exactlyILc40EEEPKcS4_EEXadL_ZNS0_23optional_css_whitespaceES4_EEJXadL_ZNS0_8optionalIXadL_ZNS1_IXadL_ZNS0_12alternativesIXadL_ZNS0_8variableES4_EEXadL_ZNS0_17identifier_schemaES4_EEJXadL_ZNS0_10identifierES4_EEEEES4_S4_EEXadL_ZNS0_23optional_css_whitespaceES4_EEJXadL_ZNS2_ILc61EEES4_S4_EEXadL_ZNS0_23optional_css_whitespaceES4_EEXadL_ZNS6_IXadL_ZNS0_8variableES4_EEXadL_ZNS0_17identifier_schemaES4_EEJXadL_ZNS0_10identifierES4_EEXadL_ZNS0_13quoted_stringES4_EEXadL_ZNS0_6numberES4_EEXadL_ZNS0_3hexES4_EEXadL_ZNS0_4hexaES4_EEEEES4_S4_EEXadL_ZNS0_9zero_plusIXadL_ZNS1_IXadL_ZNS0_23optional_css_whitespaceES4_EEXadL_ZNS2_ILc44EEES4_S4_EEJXadL_ZNS0_23optional_css_whitespaceES4_EEXadL_ZNS1_IXadL_ZNS6_IXadL_ZNS0_8variableES4_EEXadL_ZNS0_17identifier_schemaES4_EEJXadL_ZNS0_10identifierES4_EEEEES4_S4_EEXadL_ZNS0_23optional_css_whitespaceES4_EEJXadL_ZNS2_ILc61EEES4_S4_EEXadL_ZNS0_23optional_css_whitespaceES4_EEXadL_ZNS6_IXadL_ZNS0_8variableES4_EEXadL_ZNS0_17identifier_schemaES4_EEJXadL_ZNS0_10identifierES4_EEXadL_ZNS0_13quoted_stringES4_EEXadL_ZNS0_6numberES4_EEXadL_ZNS0_3hexES4_EEXadL_ZNS0_4hexaES4_EEEEES4_S4_EEEEES4_S4_EEEEES4_S4_EEEES4_S4_EEEEES4_S4_EEEES4_S4_EEXadL_ZNS0_23optional_css_whitespaceES4_EEXadL_ZNS2_ILc41EEES4_S4_EEEEES4_S4_ W
_ZN4Sass8Prelexer8sequenceIXadL_ZNS0_7exactlyILc40EEEPKcS4_EEXadL_ZNS0_9zero_plusIXadL_ZNS0_12alternativesIXadL_ZNS0_10class_charIXadL_ZNS_9Constants14real_uri_charsEEEEES4_S4_EEXadL_ZNS0_13uri_characterES4_EEJXadL_ZNS0_8NONASCIIES4_EEXadL_ZNS0_6ESCAPEES4_EEEEES4_S4_EEEES4_S4_EEJXadL_ZNS2_ILc41EEES4_S4_EEEEES4_S4_ W
_ZN4Sass8Prelexer8sequenceIXadL_ZNS0_7exactlyILc41EEEPKcS4_EEEES4_S4_ W
_ZN4Sass8Prelexer8sequenceIXadL_ZNS0_7exactlyILc42EEEPKcS4_EEEES4_S4_ W
_ZN4Sass8Prelexer8sequenceIXadL_ZNS0_7exactlyILc42EEEPKcS4_EEXadL_ZNS0_8one_unitES4_EEJEEES4_S4_ W
_ZN4Sass8Prelexer8sequenceIXadL_ZNS0_7exactlyILc43EEEPKcS4_EEXadL_ZNS0_12padded_tokenILm6EXadL_ZNS0_6xdigitES4_EEXadL_ZNS2_ILc63EEES4_S4_EEEES4_S4_EEJEEES4_S4_ W
_ZN4Sass8Prelexer8sequenceIXadL_ZNS0_7exactlyILc44EEEPKcS4_EEXadL_ZNS0_23optional_css_whitespaceES4_EEJXadL_ZNS1_IXadL_ZNS0_12alternativesIXadL_ZNS0_8variableES4_EEXadL_ZNS0_17identifier_schemaES4_EEJXadL_ZNS0_10identifierES4_EEEEES4_S4_EEXadL_ZNS0_23optional_css_whitespaceES4_EEJXadL_ZNS2_ILc61EEES4_S4_EEXadL_ZNS0_23optional_css_whitespaceES4_EEXadL_ZNS5_IXadL_ZNS0_8variableES4_EEXadL_ZNS0_17identifier_schemaES4_EEJXadL_ZNS0_10identifierES4_EEXadL_ZNS0_13quoted_stringES4_EEXadL_ZNS0_6numberES4_EEXadL_ZNS0_3hexES4_EEXadL_ZNS0_4hexaES4_EEEEES4_S4_EEEEES4_S4_EEEEES4_S4_ W
_ZN4Sass8Prelexer8sequenceIXadL_ZNS0_7exactlyILc45EEEPKcS4_EEEES4_S4_ W
_ZN4Sass8Prelexer8sequenceIXadL_ZNS0_7exactlyILc45EEEPKcS4_EEXadL_ZNS0_15optional_spacesES4_EEJEEES4_S4_ W
_ZN4Sass8Prelexer8sequenceIXadL_ZNS0_7exactlyILc45EEEPKcS4_EEXadL_ZNS0_23optional_css_whitespaceES4_EEJXadL_ZNS2_ILc45EEES4_S4_EEEEES4_S4_ W
_ZN4Sass8Prelexer8sequenceIXadL_ZNS0_7exactlyILc45EEEPKcS4_EEXadL_ZNS0_6negateIXadL_ZNS0_15unsigned_numberES4_EEEES4_S4_EEJEEES4_S4_ W
_ZN4Sass8Prelexer8sequenceIXadL_ZNS0_7exactlyILc45EEEPKcS4_EEXadL_ZNS0_6negateIXadL_ZNS0_5spaceES4_EEEES4_S4_EEJEEES4_S4_ W
_ZN4Sass8Prelexer8sequenceIXadL_ZNS0_7exactlyILc45EEEPKcS4_EEXadL_ZNS0_8one_plusIXadL_ZNS0_12alternativesIXadL_ZNS0_5alphaES4_EEXadL_ZNS2_ILc43EEES4_S4_EEJXadL_ZNS2_ILc45EEES4_S4_EEEEES4_S4_EEEES4_S4_EEJEEES4_S4_ W
_ZN4Sass8Prelexer8sequenceIXadL_ZNS0_7exactlyILc45EEEPKcS4_EEXadL_ZNS0_8one_plusIXadL_ZNS0_5alnumES4_EEEES4_S4_EEJXadL_ZNS2_ILc45EEES4_S4_EEEEES4_S4_ W
_ZN4Sass8Prelexer8sequenceIXadL_ZNS0_7exactlyILc45EEEPKcS4_EEXadL_ZNS0_8one_plusIXadL_ZNS0_5alphaES4_EEEES4_S4_EEJEEES4_S4_ W
_ZN4Sass8Prelexer8sequenceIXadL_ZNS0_7exactlyILc45EEEPKcS4_EEXadL_ZNS0_9lookaheadIXadL_ZNS0_12alternativesIXadL_ZNS0_5spaceES4_EEEES4_S4_EEEES4_S4_EEJEEES4_S4_ W
_ZN4Sass8Prelexer8sequenceIXadL_ZNS0_7exactlyILc45EEEPKcS4_EEXadL_ZNS2_ILc45EEES4_S4_EEJEEES4_S4_ W
_ZN4Sass8Prelexer8sequenceIXadL_ZNS0_7exactlyILc46EEEPKcS4_EEXadL_ZNS0_10identifierES4_EEJEEES4_S4_ W
_ZN4Sass8Prelexer8sequenceIXadL_ZNS0_7exactlyILc46EEEPKcS4_EEXadL_ZNS0_12alternativesIXadL_ZNS0_17identifier_schemaES4_EEXadL_ZNS0_10identifierES4_EEJEEES4_S4_EEJEEES4_S4_ W
_ZN4Sass8Prelexer8sequenceIXadL_ZNS0_7exactlyILc46EEEPKcS4_EEXadL_ZNS0_8one_plusIXadL_ZNS0_6digitsES4_EEEES4_S4_EEJEEES4_S4_ W
_ZN4Sass8Prelexer8sequenceIXadL_ZNS0_7exactlyILc47EEEPKcS4_EEEES4_S4_ W
_ZN4Sass8Prelexer8sequenceIXadL_ZNS0_7exactlyILc47EEEPKcS4_EEXadL_ZNS0_15optional_spacesES4_EEJXadL_ZNS0_6numberES4_EEEEES4_S4_ W
_ZN4Sass8Prelexer8sequenceIXadL_ZNS0_7exactlyILc47EEEPKcS4_EEXadL_ZNS0_23re_reference_combinatorES4_EEJXadL_ZNS2_ILc47EEES4_S4_EEEEES4_S4_ W
_ZN4Sass8Prelexer8sequenceIXadL_ZNS0_7exactlyILc47EEEPKcS4_EEXadL_ZNS0_6negateIXadL_ZNS0_12alternativesIXadL_ZNS2_ILc47EEES4_S4_EEXadL_ZNS2_ILc42EEES4_S4_EEJEEES4_S4_EEEES4_S4_EEJEEES4_S4_ W
_ZN4Sass8Prelexer8sequenceIXadL_ZNS0_7exactlyILc47EEEPKcS4_EEXadL_ZNS0_6negateIXadL_ZNS1_IXadL_ZNS0_7exactlyIXadL_ZNS_9Constants11calc_fn_kwdEEEEES4_S4_EEXadL_ZNS2_ILc40EEES4_S4_EEJEEES4_S4_EEEES4_S4_EEJXadL_ZNS0_14multiple_unitsES4_EEEEES4_S4_ W
_ZN4Sass8Prelexer8sequenceIXadL_ZNS0_7exactlyILc47EEEPKcS4_EEXadL_ZNS0_6negateIXadL_ZNS2_ILc42EEES4_S4_EEEES4_S4_EEJEEES4_S4_ W
_ZN4Sass8Prelexer8sequenceIXadL_ZNS0_7exactlyILc47EEEPKcS4_EEXadL_ZNS0_8optionalIXadL_ZNS1_IXadL_ZNS0_17css_ip_identifierES4_EEXadL_ZNS2_ILc124EEES4_S4_EEJEEES4_S4_EEEES4_S4_EEJXadL_ZNS0_17css_ip_identifierES4_EEXadL_ZNS2_ILc47EEES4_S4_EEEEES4_S4_ W
_ZN4Sass8Prelexer8sequenceIXadL_ZNS0_7exactlyILc47EEEPKcS4_EEXadL_ZNS2_ILc47EEES4_S4_EEJEEES4_S4_ W
_ZN4Sass8Prelexer8sequenceIXadL_ZNS0_7exactlyILc48EEEPKcS4_EEXadL_ZNS2_ILc120EEES4_S4_EEJXadL_ZNS0_8one_plusIXadL_ZNS0_6xdigitES4_EEEES4_S4_EEEEES4_S4_ W
_ZN4Sass8Prelexer8sequenceIXadL_ZNS0_7exactlyILc58EEEPKcS4_EEEES4_S4_ W
